

Microchip Technology PIC18 LITE Macro Assembler V2.00 build -1524193055 
                                                                                               Tue Oct 23 01:02:09 2018

Microchip Technology Omniscient Code Generator v2.00 (Free mode) build 20180527130849
     1  0000                     
     2                           ; Version 2.00
     3                           ; Generated 27/05/2018 GMT
     4                           
     5                           ; 
     6                           ; Copyright © 2018, Microchip Technology Inc. and its subsidiaries ("Microchip")
     7                           ; All rights reserved.
     8                           ; 
     9                           ; This software is developed by Microchip Technology Inc. and its subsidiaries ("Microch
                                 ip").
    10                           ; 
    11                           ; Redistribution and use in source and binary forms, with or without modification, are
    12                           ; permitted provided that the following conditions are met:
    13                           ; 
    14                           ;     1. Redistributions of source code must retain the above copyright notice, this lis
                                 t of
    15                           ;        conditions and the following disclaimer.
    16                           ; 
    17                           ;     2. Redistributions in binary form must reproduce the above copyright notice, this 
                                 list
    18                           ;        of conditions and the following disclaimer in the documentation and/or other
    19                           ;        materials provided with the distribution.
    20                           ; 
    21                           ;     3. Microchip's name may not be used to endorse or promote products derived from th
                                 is
    22                           ;        software without specific prior written permission.
    23                           ; 
    24                           ; THIS SOFTWARE IS PROVIDED BY MICROCHIP "AS IS" AND ANY EXPRESS OR IMPLIED WARRANTIES,

    25                           ; INCLUDING, BUT NOT LIMITED TO, THE IMPLIED WARRANTIES OF MERCHANTABILITY AND FITNESS F
                                 OR
    26                           ; PURPOSE ARE DISCLAIMED.  IN NO EVENT SHALL MICROCHIP BE LIABLE FOR ANY DIRECT, INDIREC
                                 T,
    27                           ; INCIDENTAL, SPECIAL, EXEMPLARY, OR CONSEQUENTIAL DAMAGES (INCLUDING BUT NOT LIMITED TO
                                 
    28                           ; PROCUREMENT OF SUBSTITUTE GOODS OR SERVICES; LOSS OF USE, DATA OR PROFITS; OR BUSINESS
                                 
    29                           ; INTERRUPTION) HOWSOEVER CAUSED AND ON ANY THEORY OF LIABILITY, WHETHER IN CONTRACT, ST
                                 RICT
    30                           ; LIABILITY, OR TORT (INCLUDING NEGLIGENCE OR OTHERWISE) ARISING IN ANY WAY OUT OF THE U
                                 SE OF
    31                           ; THIS SOFTWARE, EVEN IF ADVISED OF THE POSSIBILITY OF SUCH DAMAGE.
    32                           ; 
    33                           
    34                           
    35                           ; 
    36                           ; Code-generator required, PIC18F26K22 Definitions
    37                           ; 
    38  0000                     fsr0 equ 0FE9h
    39  0000                     fsr0h equ 0FEAh
    40  0000                     fsr0l equ 0FE9h
    41  0000                     fsr1 equ 0FE1h
    42  0000                     fsr1h equ 0FE2h
    43  0000                     fsr1l equ 0FE1h
    44  0000                     fsr2 equ 0FD9h
    45  0000                     fsr2h equ 0FDAh
    46  0000                     fsr2l equ 0FD9h
    47  0000                     indf0 equ 0FEFh
    48  0000                     indf1 equ 0FE7h
    49  0000                     indf2 equ 0FDFh
    50  0000                     intcon equ 0FF2h
    51  0000                     nvmcon equ 00h
    52  0000                     pcl equ 0FF9h
    53  0000                     pclath equ 0FFAh
    54  0000                     pclatu equ 0FFBh
    55  0000                     plusw0 equ 0FEBh
    56  0000                     plusw1 equ 0FE3h
    57  0000                     plusw2 equ 0FDBh
    58  0000                     postdec0 equ 0FEDh
    59  0000                     postdec1 equ 0FE5h
    60  0000                     postdec2 equ 0FDDh
    61  0000                     postinc0 equ 0FEEh
    62  0000                     postinc1 equ 0FE6h
    63  0000                     postinc2 equ 0FDEh
    64  0000                     preinc0 equ 0FECh
    65  0000                     preinc1 equ 0FE4h
    66  0000                     preinc2 equ 0FDCh
    67  0000                     prod equ 0FF3h
    68  0000                     prodh equ 0FF4h
    69  0000                     prodl equ 0FF3h
    70  0000                     status equ 0FD8h
    71  0000                     tablat equ 0FF5h
    72  0000                     tblptr equ 0FF6h
    73  0000                     tblptrh equ 0FF7h
    74  0000                     tblptrl equ 0FF6h
    75  0000                     tblptru equ 0FF8h
    76  0000                     tosl equ 0FFDh
    77  0000                     wreg equ 0FE8h
    78  0000                     
     2                           opt pagewidth 120
     3  0000                     byte0	macro	val
     4                           	(getbyte(val,0))
     5                           endm
     6  0000                     byte1	macro	val
     7                           	(getbyte(val,1))
     8                           endm
     9  0000                     byte2	macro	val
    10                           	(getbyte(val,2))
    11                           endm
    12  0000                     byte3	macro	val
    13                           	(getbyte(val,3))
    14                           endm
    15  0000                     byte4	macro	val
    16                           	(getbyte(val,4))
    17                           endm
    18  0000                     byte5	macro	val
    19                           	(getbyte(val,5))
    20                           endm
    21  0000                     byte6	macro	val
    22                           	(getbyte(val,6))
    23                           endm
    24  0000                     byte7	macro	val
    25                           	(getbyte(val,7))
    26                           endm
    27  0000                     getword	macro	val,pos
    28                           	(((val) >> (8 * pos)) and 0xffff)
    29                           endm
    30  0000                     word0	macro	val
    31                           	(getword(val,0))
    32                           endm
    33  0000                     word1	macro	val
    34                           	(getword(val,2))
    35                           endm
    36  0000                     word2	macro	val
    37                           	(getword(val,4))
    38                           endm
    39  0000                     word3	macro	val
    40                           	(getword(val,6))
    41                           endm
    42  0000                     gettword	macro	val,pos
    43                           	(((val) >> (8 * pos)) and 0xffffff)
    44                           endm
    45  0000                     tword0	macro	val
    46                           	(gettword(val,0))
    47                           endm
    48  0000                     tword1	macro	val
    49                           	(gettword(val,3))
    50                           endm
    51  0000                     tword2	macro	val
    52                           	(gettword(val,6))
    53                           endm
    54  0000                     getdword	macro	val,pos
    55                           	(((val) >> (8 * pos)) and 0xffffffff)
    56                           endm
    57  0000                     dword0	macro	val
    58                           	(getdword(val,0))
    59                           endm
    60  0000                     dword1	macro	val
    61                           	(getdword(val,4))
    62                           endm
    63  0000                     clrc   macro
    64                           	bcf	status,0
    65                           endm
    66  0000                     setc   macro
    67                           	bsf	status,0
    68                           endm
    69  0000                     clrz   macro
    70                           	bcf	status,2
    71                           endm
    72  0000                     setz   macro
    73                           	bsf	status,2
    74                           endm
    75  0000                     skipnz macro
    76                           	btfsc	status,2
    77                           endm
    78  0000                     skipz  macro
    79                           	btfss	status,2
    80                           endm
    81  0000                     skipnc macro
    82                           	btfsc	status,0
    83                           endm
    84  0000                     skipc  macro
    85                           	btfss	status,0
    86                           endm
    87  0000                     pushw macro
    88                           	movwf postinc1
    89                           endm
    90  0000                     pushf macro arg1
    91                           	movff arg1, postinc1
    92                           endm
    93  0000                     popw macro
    94                           	movf postdec1,f
    95                           	movf indf1,w
    96                           endm
    97  0000                     popf macro arg1
    98                           	movf postdec1,f
    99                           	movff indf1,arg1
   100                           endm
   101  0000                     popfc macro arg1
   102                           	movff plusw1,arg1
   103                           	decfsz fsr1,f
   104                           endm
   105  0000                     	global	__ramtop
   106                           	global	__accesstop
   107                           # 54 "C:\Program Files (x86)\Microchip\xc8\v2.00\pic\include\pic18f26k22.h"
   108                           ANSELA equ 0F38h ;# 
   109  0000                     # 99 "C:\Program Files (x86)\Microchip\xc8\v2.00\pic\include\pic18f26k22.h"
   110                           ANSELB equ 0F39h ;# 
   111  0000                     # 149 "C:\Program Files (x86)\Microchip\xc8\v2.00\pic\include\pic18f26k22.h"
   112                           ANSELC equ 0F3Ah ;# 
   113  0000                     # 200 "C:\Program Files (x86)\Microchip\xc8\v2.00\pic\include\pic18f26k22.h"
   114                           PMD2 equ 0F3Dh ;# 
   115  0000                     # 238 "C:\Program Files (x86)\Microchip\xc8\v2.00\pic\include\pic18f26k22.h"
   116                           PMD1 equ 0F3Eh ;# 
   117  0000                     # 303 "C:\Program Files (x86)\Microchip\xc8\v2.00\pic\include\pic18f26k22.h"
   118                           PMD0 equ 0F3Fh ;# 
   119  0000                     # 380 "C:\Program Files (x86)\Microchip\xc8\v2.00\pic\include\pic18f26k22.h"
   120                           VREFCON2 equ 0F40h ;# 
   121  0000                     # 385 "C:\Program Files (x86)\Microchip\xc8\v2.00\pic\include\pic18f26k22.h"
   122                           DACCON1 equ 0F40h ;# 
   123  0000                     # 482 "C:\Program Files (x86)\Microchip\xc8\v2.00\pic\include\pic18f26k22.h"
   124                           VREFCON1 equ 0F41h ;# 
   125  0000                     # 487 "C:\Program Files (x86)\Microchip\xc8\v2.00\pic\include\pic18f26k22.h"
   126                           DACCON0 equ 0F41h ;# 
   127  0000                     # 602 "C:\Program Files (x86)\Microchip\xc8\v2.00\pic\include\pic18f26k22.h"
   128                           VREFCON0 equ 0F42h ;# 
   129  0000                     # 607 "C:\Program Files (x86)\Microchip\xc8\v2.00\pic\include\pic18f26k22.h"
   130                           FVRCON equ 0F42h ;# 
   131  0000                     # 696 "C:\Program Files (x86)\Microchip\xc8\v2.00\pic\include\pic18f26k22.h"
   132                           CTMUICON equ 0F43h ;# 
   133  0000                     # 701 "C:\Program Files (x86)\Microchip\xc8\v2.00\pic\include\pic18f26k22.h"
   134                           CTMUICONH equ 0F43h ;# 
   135  0000                     # 846 "C:\Program Files (x86)\Microchip\xc8\v2.00\pic\include\pic18f26k22.h"
   136                           CTMUCONL equ 0F44h ;# 
   137  0000                     # 851 "C:\Program Files (x86)\Microchip\xc8\v2.00\pic\include\pic18f26k22.h"
   138                           CTMUCON1 equ 0F44h ;# 
   139  0000                     # 1000 "C:\Program Files (x86)\Microchip\xc8\v2.00\pic\include\pic18f26k22.h"
   140                           CTMUCONH equ 0F45h ;# 
   141  0000                     # 1005 "C:\Program Files (x86)\Microchip\xc8\v2.00\pic\include\pic18f26k22.h"
   142                           CTMUCON0 equ 0F45h ;# 
   143  0000                     # 1112 "C:\Program Files (x86)\Microchip\xc8\v2.00\pic\include\pic18f26k22.h"
   144                           SRCON1 equ 0F46h ;# 
   145  0000                     # 1174 "C:\Program Files (x86)\Microchip\xc8\v2.00\pic\include\pic18f26k22.h"
   146                           SRCON0 equ 0F47h ;# 
   147  0000                     # 1245 "C:\Program Files (x86)\Microchip\xc8\v2.00\pic\include\pic18f26k22.h"
   148                           CCPTMRS1 equ 0F48h ;# 
   149  0000                     # 1297 "C:\Program Files (x86)\Microchip\xc8\v2.00\pic\include\pic18f26k22.h"
   150                           CCPTMRS0 equ 0F49h ;# 
   151  0000                     # 1371 "C:\Program Files (x86)\Microchip\xc8\v2.00\pic\include\pic18f26k22.h"
   152                           T6CON equ 0F4Ah ;# 
   153  0000                     # 1442 "C:\Program Files (x86)\Microchip\xc8\v2.00\pic\include\pic18f26k22.h"
   154                           PR6 equ 0F4Bh ;# 
   155  0000                     # 1462 "C:\Program Files (x86)\Microchip\xc8\v2.00\pic\include\pic18f26k22.h"
   156                           TMR6 equ 0F4Ch ;# 
   157  0000                     # 1482 "C:\Program Files (x86)\Microchip\xc8\v2.00\pic\include\pic18f26k22.h"
   158                           T5GCON equ 0F4Dh ;# 
   159  0000                     # 1577 "C:\Program Files (x86)\Microchip\xc8\v2.00\pic\include\pic18f26k22.h"
   160                           T5CON equ 0F4Eh ;# 
   161  0000                     # 1686 "C:\Program Files (x86)\Microchip\xc8\v2.00\pic\include\pic18f26k22.h"
   162                           TMR5 equ 0F4Fh ;# 
   163  0000                     # 1693 "C:\Program Files (x86)\Microchip\xc8\v2.00\pic\include\pic18f26k22.h"
   164                           TMR5L equ 0F4Fh ;# 
   165  0000                     # 1713 "C:\Program Files (x86)\Microchip\xc8\v2.00\pic\include\pic18f26k22.h"
   166                           TMR5H equ 0F50h ;# 
   167  0000                     # 1733 "C:\Program Files (x86)\Microchip\xc8\v2.00\pic\include\pic18f26k22.h"
   168                           T4CON equ 0F51h ;# 
   169  0000                     # 1804 "C:\Program Files (x86)\Microchip\xc8\v2.00\pic\include\pic18f26k22.h"
   170                           PR4 equ 0F52h ;# 
   171  0000                     # 1824 "C:\Program Files (x86)\Microchip\xc8\v2.00\pic\include\pic18f26k22.h"
   172                           TMR4 equ 0F53h ;# 
   173  0000                     # 1844 "C:\Program Files (x86)\Microchip\xc8\v2.00\pic\include\pic18f26k22.h"
   174                           CCP5CON equ 0F54h ;# 
   175  0000                     # 1908 "C:\Program Files (x86)\Microchip\xc8\v2.00\pic\include\pic18f26k22.h"
   176                           CCPR5 equ 0F55h ;# 
   177  0000                     # 1915 "C:\Program Files (x86)\Microchip\xc8\v2.00\pic\include\pic18f26k22.h"
   178                           CCPR5L equ 0F55h ;# 
   179  0000                     # 1935 "C:\Program Files (x86)\Microchip\xc8\v2.00\pic\include\pic18f26k22.h"
   180                           CCPR5H equ 0F56h ;# 
   181  0000                     # 1955 "C:\Program Files (x86)\Microchip\xc8\v2.00\pic\include\pic18f26k22.h"
   182                           CCP4CON equ 0F57h ;# 
   183  0000                     # 2019 "C:\Program Files (x86)\Microchip\xc8\v2.00\pic\include\pic18f26k22.h"
   184                           CCPR4 equ 0F58h ;# 
   185  0000                     # 2026 "C:\Program Files (x86)\Microchip\xc8\v2.00\pic\include\pic18f26k22.h"
   186                           CCPR4L equ 0F58h ;# 
   187  0000                     # 2046 "C:\Program Files (x86)\Microchip\xc8\v2.00\pic\include\pic18f26k22.h"
   188                           CCPR4H equ 0F59h ;# 
   189  0000                     # 2066 "C:\Program Files (x86)\Microchip\xc8\v2.00\pic\include\pic18f26k22.h"
   190                           PSTR3CON equ 0F5Ah ;# 
   191  0000                     # 2142 "C:\Program Files (x86)\Microchip\xc8\v2.00\pic\include\pic18f26k22.h"
   192                           ECCP3AS equ 0F5Bh ;# 
   193  0000                     # 2147 "C:\Program Files (x86)\Microchip\xc8\v2.00\pic\include\pic18f26k22.h"
   194                           CCP3AS equ 0F5Bh ;# 
   195  0000                     # 2384 "C:\Program Files (x86)\Microchip\xc8\v2.00\pic\include\pic18f26k22.h"
   196                           PWM3CON equ 0F5Ch ;# 
   197  0000                     # 2454 "C:\Program Files (x86)\Microchip\xc8\v2.00\pic\include\pic18f26k22.h"
   198                           CCP3CON equ 0F5Dh ;# 
   199  0000                     # 2536 "C:\Program Files (x86)\Microchip\xc8\v2.00\pic\include\pic18f26k22.h"
   200                           CCPR3 equ 0F5Eh ;# 
   201  0000                     # 2543 "C:\Program Files (x86)\Microchip\xc8\v2.00\pic\include\pic18f26k22.h"
   202                           CCPR3L equ 0F5Eh ;# 
   203  0000                     # 2563 "C:\Program Files (x86)\Microchip\xc8\v2.00\pic\include\pic18f26k22.h"
   204                           CCPR3H equ 0F5Fh ;# 
   205  0000                     # 2583 "C:\Program Files (x86)\Microchip\xc8\v2.00\pic\include\pic18f26k22.h"
   206                           SLRCON equ 0F60h ;# 
   207  0000                     # 2615 "C:\Program Files (x86)\Microchip\xc8\v2.00\pic\include\pic18f26k22.h"
   208                           WPUB equ 0F61h ;# 
   209  0000                     # 2677 "C:\Program Files (x86)\Microchip\xc8\v2.00\pic\include\pic18f26k22.h"
   210                           IOCB equ 0F62h ;# 
   211  0000                     # 2716 "C:\Program Files (x86)\Microchip\xc8\v2.00\pic\include\pic18f26k22.h"
   212                           PSTR2CON equ 0F63h ;# 
   213  0000                     # 2856 "C:\Program Files (x86)\Microchip\xc8\v2.00\pic\include\pic18f26k22.h"
   214                           ECCP2AS equ 0F64h ;# 
   215  0000                     # 2861 "C:\Program Files (x86)\Microchip\xc8\v2.00\pic\include\pic18f26k22.h"
   216                           CCP2AS equ 0F64h ;# 
   217  0000                     # 3098 "C:\Program Files (x86)\Microchip\xc8\v2.00\pic\include\pic18f26k22.h"
   218                           PWM2CON equ 0F65h ;# 
   219  0000                     # 3168 "C:\Program Files (x86)\Microchip\xc8\v2.00\pic\include\pic18f26k22.h"
   220                           CCP2CON equ 0F66h ;# 
   221  0000                     # 3250 "C:\Program Files (x86)\Microchip\xc8\v2.00\pic\include\pic18f26k22.h"
   222                           CCPR2 equ 0F67h ;# 
   223  0000                     # 3257 "C:\Program Files (x86)\Microchip\xc8\v2.00\pic\include\pic18f26k22.h"
   224                           CCPR2L equ 0F67h ;# 
   225  0000                     # 3277 "C:\Program Files (x86)\Microchip\xc8\v2.00\pic\include\pic18f26k22.h"
   226                           CCPR2H equ 0F68h ;# 
   227  0000                     # 3297 "C:\Program Files (x86)\Microchip\xc8\v2.00\pic\include\pic18f26k22.h"
   228                           SSP2CON3 equ 0F69h ;# 
   229  0000                     # 3359 "C:\Program Files (x86)\Microchip\xc8\v2.00\pic\include\pic18f26k22.h"
   230                           SSP2MSK equ 0F6Ah ;# 
   231  0000                     # 3429 "C:\Program Files (x86)\Microchip\xc8\v2.00\pic\include\pic18f26k22.h"
   232                           SSP2CON2 equ 0F6Bh ;# 
   233  0000                     # 3574 "C:\Program Files (x86)\Microchip\xc8\v2.00\pic\include\pic18f26k22.h"
   234                           SSP2CON1 equ 0F6Ch ;# 
   235  0000                     # 3694 "C:\Program Files (x86)\Microchip\xc8\v2.00\pic\include\pic18f26k22.h"
   236                           SSP2STAT equ 0F6Dh ;# 
   237  0000                     # 4094 "C:\Program Files (x86)\Microchip\xc8\v2.00\pic\include\pic18f26k22.h"
   238                           SSP2ADD equ 0F6Eh ;# 
   239  0000                     # 4164 "C:\Program Files (x86)\Microchip\xc8\v2.00\pic\include\pic18f26k22.h"
   240                           SSP2BUF equ 0F6Fh ;# 
   241  0000                     # 4184 "C:\Program Files (x86)\Microchip\xc8\v2.00\pic\include\pic18f26k22.h"
   242                           BAUDCON2 equ 0F70h ;# 
   243  0000                     # 4189 "C:\Program Files (x86)\Microchip\xc8\v2.00\pic\include\pic18f26k22.h"
   244                           BAUD2CON equ 0F70h ;# 
   245  0000                     # 4446 "C:\Program Files (x86)\Microchip\xc8\v2.00\pic\include\pic18f26k22.h"
   246                           RCSTA2 equ 0F71h ;# 
   247  0000                     # 4451 "C:\Program Files (x86)\Microchip\xc8\v2.00\pic\include\pic18f26k22.h"
   248                           RC2STA equ 0F71h ;# 
   249  0000                     # 4734 "C:\Program Files (x86)\Microchip\xc8\v2.00\pic\include\pic18f26k22.h"
   250                           TXSTA2 equ 0F72h ;# 
   251  0000                     # 4739 "C:\Program Files (x86)\Microchip\xc8\v2.00\pic\include\pic18f26k22.h"
   252                           TX2STA equ 0F72h ;# 
   253  0000                     # 4986 "C:\Program Files (x86)\Microchip\xc8\v2.00\pic\include\pic18f26k22.h"
   254                           TXREG2 equ 0F73h ;# 
   255  0000                     # 4991 "C:\Program Files (x86)\Microchip\xc8\v2.00\pic\include\pic18f26k22.h"
   256                           TX2REG equ 0F73h ;# 
   257  0000                     # 5024 "C:\Program Files (x86)\Microchip\xc8\v2.00\pic\include\pic18f26k22.h"
   258                           RCREG2 equ 0F74h ;# 
   259  0000                     # 5029 "C:\Program Files (x86)\Microchip\xc8\v2.00\pic\include\pic18f26k22.h"
   260                           RC2REG equ 0F74h ;# 
   261  0000                     # 5062 "C:\Program Files (x86)\Microchip\xc8\v2.00\pic\include\pic18f26k22.h"
   262                           SPBRG2 equ 0F75h ;# 
   263  0000                     # 5067 "C:\Program Files (x86)\Microchip\xc8\v2.00\pic\include\pic18f26k22.h"
   264                           SP2BRG equ 0F75h ;# 
   265  0000                     # 5100 "C:\Program Files (x86)\Microchip\xc8\v2.00\pic\include\pic18f26k22.h"
   266                           SPBRGH2 equ 0F76h ;# 
   267  0000                     # 5105 "C:\Program Files (x86)\Microchip\xc8\v2.00\pic\include\pic18f26k22.h"
   268                           SP2BRGH equ 0F76h ;# 
   269  0000                     # 5138 "C:\Program Files (x86)\Microchip\xc8\v2.00\pic\include\pic18f26k22.h"
   270                           CM2CON1 equ 0F77h ;# 
   271  0000                     # 5143 "C:\Program Files (x86)\Microchip\xc8\v2.00\pic\include\pic18f26k22.h"
   272                           CM12CON equ 0F77h ;# 
   273  0000                     # 5260 "C:\Program Files (x86)\Microchip\xc8\v2.00\pic\include\pic18f26k22.h"
   274                           CM2CON0 equ 0F78h ;# 
   275  0000                     # 5265 "C:\Program Files (x86)\Microchip\xc8\v2.00\pic\include\pic18f26k22.h"
   276                           CM2CON equ 0F78h ;# 
   277  0000                     # 5540 "C:\Program Files (x86)\Microchip\xc8\v2.00\pic\include\pic18f26k22.h"
   278                           CM1CON0 equ 0F79h ;# 
   279  0000                     # 5545 "C:\Program Files (x86)\Microchip\xc8\v2.00\pic\include\pic18f26k22.h"
   280                           CM1CON equ 0F79h ;# 
   281  0000                     # 5962 "C:\Program Files (x86)\Microchip\xc8\v2.00\pic\include\pic18f26k22.h"
   282                           PIE4 equ 0F7Ah ;# 
   283  0000                     # 5994 "C:\Program Files (x86)\Microchip\xc8\v2.00\pic\include\pic18f26k22.h"
   284                           PIR4 equ 0F7Bh ;# 
   285  0000                     # 6026 "C:\Program Files (x86)\Microchip\xc8\v2.00\pic\include\pic18f26k22.h"
   286                           IPR4 equ 0F7Ch ;# 
   287  0000                     # 6066 "C:\Program Files (x86)\Microchip\xc8\v2.00\pic\include\pic18f26k22.h"
   288                           PIE5 equ 0F7Dh ;# 
   289  0000                     # 6098 "C:\Program Files (x86)\Microchip\xc8\v2.00\pic\include\pic18f26k22.h"
   290                           PIR5 equ 0F7Eh ;# 
   291  0000                     # 6130 "C:\Program Files (x86)\Microchip\xc8\v2.00\pic\include\pic18f26k22.h"
   292                           IPR5 equ 0F7Fh ;# 
   293  0000                     # 6176 "C:\Program Files (x86)\Microchip\xc8\v2.00\pic\include\pic18f26k22.h"
   294                           PORTA equ 0F80h ;# 
   295  0000                     # 6467 "C:\Program Files (x86)\Microchip\xc8\v2.00\pic\include\pic18f26k22.h"
   296                           PORTB equ 0F81h ;# 
   297  0000                     # 6840 "C:\Program Files (x86)\Microchip\xc8\v2.00\pic\include\pic18f26k22.h"
   298                           PORTC equ 0F82h ;# 
   299  0000                     # 7171 "C:\Program Files (x86)\Microchip\xc8\v2.00\pic\include\pic18f26k22.h"
   300                           PORTE equ 0F84h ;# 
   301  0000                     # 7246 "C:\Program Files (x86)\Microchip\xc8\v2.00\pic\include\pic18f26k22.h"
   302                           LATA equ 0F89h ;# 
   303  0000                     # 7358 "C:\Program Files (x86)\Microchip\xc8\v2.00\pic\include\pic18f26k22.h"
   304                           LATB equ 0F8Ah ;# 
   305  0000                     # 7470 "C:\Program Files (x86)\Microchip\xc8\v2.00\pic\include\pic18f26k22.h"
   306                           LATC equ 0F8Bh ;# 
   307  0000                     # 7582 "C:\Program Files (x86)\Microchip\xc8\v2.00\pic\include\pic18f26k22.h"
   308                           TRISA equ 0F92h ;# 
   309  0000                     # 7587 "C:\Program Files (x86)\Microchip\xc8\v2.00\pic\include\pic18f26k22.h"
   310                           DDRA equ 0F92h ;# 
   311  0000                     # 7804 "C:\Program Files (x86)\Microchip\xc8\v2.00\pic\include\pic18f26k22.h"
   312                           TRISB equ 0F93h ;# 
   313  0000                     # 7809 "C:\Program Files (x86)\Microchip\xc8\v2.00\pic\include\pic18f26k22.h"
   314                           DDRB equ 0F93h ;# 
   315  0000                     # 8026 "C:\Program Files (x86)\Microchip\xc8\v2.00\pic\include\pic18f26k22.h"
   316                           TRISC equ 0F94h ;# 
   317  0000                     # 8031 "C:\Program Files (x86)\Microchip\xc8\v2.00\pic\include\pic18f26k22.h"
   318                           DDRC equ 0F94h ;# 
   319  0000                     # 8248 "C:\Program Files (x86)\Microchip\xc8\v2.00\pic\include\pic18f26k22.h"
   320                           TRISE equ 0F96h ;# 
   321  0000                     # 8269 "C:\Program Files (x86)\Microchip\xc8\v2.00\pic\include\pic18f26k22.h"
   322                           OSCTUNE equ 0F9Bh ;# 
   323  0000                     # 8339 "C:\Program Files (x86)\Microchip\xc8\v2.00\pic\include\pic18f26k22.h"
   324                           HLVDCON equ 0F9Ch ;# 
   325  0000                     # 8344 "C:\Program Files (x86)\Microchip\xc8\v2.00\pic\include\pic18f26k22.h"
   326                           LVDCON equ 0F9Ch ;# 
   327  0000                     # 8619 "C:\Program Files (x86)\Microchip\xc8\v2.00\pic\include\pic18f26k22.h"
   328                           PIE1 equ 0F9Dh ;# 
   329  0000                     # 8696 "C:\Program Files (x86)\Microchip\xc8\v2.00\pic\include\pic18f26k22.h"
   330                           PIR1 equ 0F9Eh ;# 
   331  0000                     # 8773 "C:\Program Files (x86)\Microchip\xc8\v2.00\pic\include\pic18f26k22.h"
   332                           IPR1 equ 0F9Fh ;# 
   333  0000                     # 8850 "C:\Program Files (x86)\Microchip\xc8\v2.00\pic\include\pic18f26k22.h"
   334                           PIE2 equ 0FA0h ;# 
   335  0000                     # 8936 "C:\Program Files (x86)\Microchip\xc8\v2.00\pic\include\pic18f26k22.h"
   336                           PIR2 equ 0FA1h ;# 
   337  0000                     # 9022 "C:\Program Files (x86)\Microchip\xc8\v2.00\pic\include\pic18f26k22.h"
   338                           IPR2 equ 0FA2h ;# 
   339  0000                     # 9108 "C:\Program Files (x86)\Microchip\xc8\v2.00\pic\include\pic18f26k22.h"
   340                           PIE3 equ 0FA3h ;# 
   341  0000                     # 9218 "C:\Program Files (x86)\Microchip\xc8\v2.00\pic\include\pic18f26k22.h"
   342                           PIR3 equ 0FA4h ;# 
   343  0000                     # 9296 "C:\Program Files (x86)\Microchip\xc8\v2.00\pic\include\pic18f26k22.h"
   344                           IPR3 equ 0FA5h ;# 
   345  0000                     # 9374 "C:\Program Files (x86)\Microchip\xc8\v2.00\pic\include\pic18f26k22.h"
   346                           EECON1 equ 0FA6h ;# 
   347  0000                     # 9440 "C:\Program Files (x86)\Microchip\xc8\v2.00\pic\include\pic18f26k22.h"
   348                           EECON2 equ 0FA7h ;# 
   349  0000                     # 9460 "C:\Program Files (x86)\Microchip\xc8\v2.00\pic\include\pic18f26k22.h"
   350                           EEDATA equ 0FA8h ;# 
   351  0000                     # 9480 "C:\Program Files (x86)\Microchip\xc8\v2.00\pic\include\pic18f26k22.h"
   352                           EEADR equ 0FA9h ;# 
   353  0000                     # 9550 "C:\Program Files (x86)\Microchip\xc8\v2.00\pic\include\pic18f26k22.h"
   354                           EEADRH equ 0FAAh ;# 
   355  0000                     # 9584 "C:\Program Files (x86)\Microchip\xc8\v2.00\pic\include\pic18f26k22.h"
   356                           RCSTA1 equ 0FABh ;# 
   357  0000                     # 9589 "C:\Program Files (x86)\Microchip\xc8\v2.00\pic\include\pic18f26k22.h"
   358                           RCSTA equ 0FABh ;# 
   359  0000                     # 9593 "C:\Program Files (x86)\Microchip\xc8\v2.00\pic\include\pic18f26k22.h"
   360                           RC1STA equ 0FABh ;# 
   361  0000                     # 10040 "C:\Program Files (x86)\Microchip\xc8\v2.00\pic\include\pic18f26k22.h"
   362                           TXSTA1 equ 0FACh ;# 
   363  0000                     # 10045 "C:\Program Files (x86)\Microchip\xc8\v2.00\pic\include\pic18f26k22.h"
   364                           TXSTA equ 0FACh ;# 
   365  0000                     # 10049 "C:\Program Files (x86)\Microchip\xc8\v2.00\pic\include\pic18f26k22.h"
   366                           TX1STA equ 0FACh ;# 
   367  0000                     # 10415 "C:\Program Files (x86)\Microchip\xc8\v2.00\pic\include\pic18f26k22.h"
   368                           TXREG1 equ 0FADh ;# 
   369  0000                     # 10420 "C:\Program Files (x86)\Microchip\xc8\v2.00\pic\include\pic18f26k22.h"
   370                           TXREG equ 0FADh ;# 
   371  0000                     # 10424 "C:\Program Files (x86)\Microchip\xc8\v2.00\pic\include\pic18f26k22.h"
   372                           TX1REG equ 0FADh ;# 
   373  0000                     # 10493 "C:\Program Files (x86)\Microchip\xc8\v2.00\pic\include\pic18f26k22.h"
   374                           RCREG1 equ 0FAEh ;# 
   375  0000                     # 10498 "C:\Program Files (x86)\Microchip\xc8\v2.00\pic\include\pic18f26k22.h"
   376                           RCREG equ 0FAEh ;# 
   377  0000                     # 10502 "C:\Program Files (x86)\Microchip\xc8\v2.00\pic\include\pic18f26k22.h"
   378                           RC1REG equ 0FAEh ;# 
   379  0000                     # 10571 "C:\Program Files (x86)\Microchip\xc8\v2.00\pic\include\pic18f26k22.h"
   380                           SPBRG1 equ 0FAFh ;# 
   381  0000                     # 10576 "C:\Program Files (x86)\Microchip\xc8\v2.00\pic\include\pic18f26k22.h"
   382                           SPBRG equ 0FAFh ;# 
   383  0000                     # 10580 "C:\Program Files (x86)\Microchip\xc8\v2.00\pic\include\pic18f26k22.h"
   384                           SP1BRG equ 0FAFh ;# 
   385  0000                     # 10649 "C:\Program Files (x86)\Microchip\xc8\v2.00\pic\include\pic18f26k22.h"
   386                           SPBRGH1 equ 0FB0h ;# 
   387  0000                     # 10654 "C:\Program Files (x86)\Microchip\xc8\v2.00\pic\include\pic18f26k22.h"
   388                           SPBRGH equ 0FB0h ;# 
   389  0000                     # 10658 "C:\Program Files (x86)\Microchip\xc8\v2.00\pic\include\pic18f26k22.h"
   390                           SP1BRGH equ 0FB0h ;# 
   391  0000                     # 10727 "C:\Program Files (x86)\Microchip\xc8\v2.00\pic\include\pic18f26k22.h"
   392                           T3CON equ 0FB1h ;# 
   393  0000                     # 10835 "C:\Program Files (x86)\Microchip\xc8\v2.00\pic\include\pic18f26k22.h"
   394                           TMR3 equ 0FB2h ;# 
   395  0000                     # 10842 "C:\Program Files (x86)\Microchip\xc8\v2.00\pic\include\pic18f26k22.h"
   396                           TMR3L equ 0FB2h ;# 
   397  0000                     # 10862 "C:\Program Files (x86)\Microchip\xc8\v2.00\pic\include\pic18f26k22.h"
   398                           TMR3H equ 0FB3h ;# 
   399  0000                     # 10882 "C:\Program Files (x86)\Microchip\xc8\v2.00\pic\include\pic18f26k22.h"
   400                           T3GCON equ 0FB4h ;# 
   401  0000                     # 10977 "C:\Program Files (x86)\Microchip\xc8\v2.00\pic\include\pic18f26k22.h"
   402                           ECCP1AS equ 0FB6h ;# 
   403  0000                     # 10982 "C:\Program Files (x86)\Microchip\xc8\v2.00\pic\include\pic18f26k22.h"
   404                           ECCPAS equ 0FB6h ;# 
   405  0000                     # 11359 "C:\Program Files (x86)\Microchip\xc8\v2.00\pic\include\pic18f26k22.h"
   406                           PWM1CON equ 0FB7h ;# 
   407  0000                     # 11364 "C:\Program Files (x86)\Microchip\xc8\v2.00\pic\include\pic18f26k22.h"
   408                           PWMCON equ 0FB7h ;# 
   409  0000                     # 11613 "C:\Program Files (x86)\Microchip\xc8\v2.00\pic\include\pic18f26k22.h"
   410                           BAUDCON1 equ 0FB8h ;# 
   411  0000                     # 11618 "C:\Program Files (x86)\Microchip\xc8\v2.00\pic\include\pic18f26k22.h"
   412                           BAUDCON equ 0FB8h ;# 
   413  0000                     # 11622 "C:\Program Files (x86)\Microchip\xc8\v2.00\pic\include\pic18f26k22.h"
   414                           BAUDCTL equ 0FB8h ;# 
   415  0000                     # 11626 "C:\Program Files (x86)\Microchip\xc8\v2.00\pic\include\pic18f26k22.h"
   416                           BAUD1CON equ 0FB8h ;# 
   417  0000                     # 12287 "C:\Program Files (x86)\Microchip\xc8\v2.00\pic\include\pic18f26k22.h"
   418                           PSTR1CON equ 0FB9h ;# 
   419  0000                     # 12292 "C:\Program Files (x86)\Microchip\xc8\v2.00\pic\include\pic18f26k22.h"
   420                           PSTRCON equ 0FB9h ;# 
   421  0000                     # 12437 "C:\Program Files (x86)\Microchip\xc8\v2.00\pic\include\pic18f26k22.h"
   422                           T2CON equ 0FBAh ;# 
   423  0000                     # 12508 "C:\Program Files (x86)\Microchip\xc8\v2.00\pic\include\pic18f26k22.h"
   424                           PR2 equ 0FBBh ;# 
   425  0000                     # 12528 "C:\Program Files (x86)\Microchip\xc8\v2.00\pic\include\pic18f26k22.h"
   426                           TMR2 equ 0FBCh ;# 
   427  0000                     # 12548 "C:\Program Files (x86)\Microchip\xc8\v2.00\pic\include\pic18f26k22.h"
   428                           CCP1CON equ 0FBDh ;# 
   429  0000                     # 12630 "C:\Program Files (x86)\Microchip\xc8\v2.00\pic\include\pic18f26k22.h"
   430                           CCPR1 equ 0FBEh ;# 
   431  0000                     # 12637 "C:\Program Files (x86)\Microchip\xc8\v2.00\pic\include\pic18f26k22.h"
   432                           CCPR1L equ 0FBEh ;# 
   433  0000                     # 12657 "C:\Program Files (x86)\Microchip\xc8\v2.00\pic\include\pic18f26k22.h"
   434                           CCPR1H equ 0FBFh ;# 
   435  0000                     # 12677 "C:\Program Files (x86)\Microchip\xc8\v2.00\pic\include\pic18f26k22.h"
   436                           ADCON2 equ 0FC0h ;# 
   437  0000                     # 12748 "C:\Program Files (x86)\Microchip\xc8\v2.00\pic\include\pic18f26k22.h"
   438                           ADCON1 equ 0FC1h ;# 
   439  0000                     # 12816 "C:\Program Files (x86)\Microchip\xc8\v2.00\pic\include\pic18f26k22.h"
   440                           ADCON0 equ 0FC2h ;# 
   441  0000                     # 12941 "C:\Program Files (x86)\Microchip\xc8\v2.00\pic\include\pic18f26k22.h"
   442                           ADRES equ 0FC3h ;# 
   443  0000                     # 12948 "C:\Program Files (x86)\Microchip\xc8\v2.00\pic\include\pic18f26k22.h"
   444                           ADRESL equ 0FC3h ;# 
   445  0000                     # 12968 "C:\Program Files (x86)\Microchip\xc8\v2.00\pic\include\pic18f26k22.h"
   446                           ADRESH equ 0FC4h ;# 
   447  0000                     # 12988 "C:\Program Files (x86)\Microchip\xc8\v2.00\pic\include\pic18f26k22.h"
   448                           SSP1CON2 equ 0FC5h ;# 
   449  0000                     # 12993 "C:\Program Files (x86)\Microchip\xc8\v2.00\pic\include\pic18f26k22.h"
   450                           SSPCON2 equ 0FC5h ;# 
   451  0000                     # 13342 "C:\Program Files (x86)\Microchip\xc8\v2.00\pic\include\pic18f26k22.h"
   452                           SSP1CON1 equ 0FC6h ;# 
   453  0000                     # 13347 "C:\Program Files (x86)\Microchip\xc8\v2.00\pic\include\pic18f26k22.h"
   454                           SSPCON1 equ 0FC6h ;# 
   455  0000                     # 13580 "C:\Program Files (x86)\Microchip\xc8\v2.00\pic\include\pic18f26k22.h"
   456                           SSP1STAT equ 0FC7h ;# 
   457  0000                     # 13585 "C:\Program Files (x86)\Microchip\xc8\v2.00\pic\include\pic18f26k22.h"
   458                           SSPSTAT equ 0FC7h ;# 
   459  0000                     # 14210 "C:\Program Files (x86)\Microchip\xc8\v2.00\pic\include\pic18f26k22.h"
   460                           SSP1ADD equ 0FC8h ;# 
   461  0000                     # 14215 "C:\Program Files (x86)\Microchip\xc8\v2.00\pic\include\pic18f26k22.h"
   462                           SSPADD equ 0FC8h ;# 
   463  0000                     # 14464 "C:\Program Files (x86)\Microchip\xc8\v2.00\pic\include\pic18f26k22.h"
   464                           SSP1BUF equ 0FC9h ;# 
   465  0000                     # 14469 "C:\Program Files (x86)\Microchip\xc8\v2.00\pic\include\pic18f26k22.h"
   466                           SSPBUF equ 0FC9h ;# 
   467  0000                     # 14518 "C:\Program Files (x86)\Microchip\xc8\v2.00\pic\include\pic18f26k22.h"
   468                           SSP1MSK equ 0FCAh ;# 
   469  0000                     # 14523 "C:\Program Files (x86)\Microchip\xc8\v2.00\pic\include\pic18f26k22.h"
   470                           SSPMSK equ 0FCAh ;# 
   471  0000                     # 14656 "C:\Program Files (x86)\Microchip\xc8\v2.00\pic\include\pic18f26k22.h"
   472                           SSP1CON3 equ 0FCBh ;# 
   473  0000                     # 14661 "C:\Program Files (x86)\Microchip\xc8\v2.00\pic\include\pic18f26k22.h"
   474                           SSPCON3 equ 0FCBh ;# 
   475  0000                     # 14778 "C:\Program Files (x86)\Microchip\xc8\v2.00\pic\include\pic18f26k22.h"
   476                           T1GCON equ 0FCCh ;# 
   477  0000                     # 14873 "C:\Program Files (x86)\Microchip\xc8\v2.00\pic\include\pic18f26k22.h"
   478                           T1CON equ 0FCDh ;# 
   479  0000                     # 14986 "C:\Program Files (x86)\Microchip\xc8\v2.00\pic\include\pic18f26k22.h"
   480                           TMR1 equ 0FCEh ;# 
   481  0000                     # 14993 "C:\Program Files (x86)\Microchip\xc8\v2.00\pic\include\pic18f26k22.h"
   482                           TMR1L equ 0FCEh ;# 
   483  0000                     # 15013 "C:\Program Files (x86)\Microchip\xc8\v2.00\pic\include\pic18f26k22.h"
   484                           TMR1H equ 0FCFh ;# 
   485  0000                     # 15033 "C:\Program Files (x86)\Microchip\xc8\v2.00\pic\include\pic18f26k22.h"
   486                           RCON equ 0FD0h ;# 
   487  0000                     # 15166 "C:\Program Files (x86)\Microchip\xc8\v2.00\pic\include\pic18f26k22.h"
   488                           WDTCON equ 0FD1h ;# 
   489  0000                     # 15194 "C:\Program Files (x86)\Microchip\xc8\v2.00\pic\include\pic18f26k22.h"
   490                           OSCCON2 equ 0FD2h ;# 
   491  0000                     # 15251 "C:\Program Files (x86)\Microchip\xc8\v2.00\pic\include\pic18f26k22.h"
   492                           OSCCON equ 0FD3h ;# 
   493  0000                     # 15334 "C:\Program Files (x86)\Microchip\xc8\v2.00\pic\include\pic18f26k22.h"
   494                           T0CON equ 0FD5h ;# 
   495  0000                     # 15404 "C:\Program Files (x86)\Microchip\xc8\v2.00\pic\include\pic18f26k22.h"
   496                           TMR0 equ 0FD6h ;# 
   497  0000                     # 15411 "C:\Program Files (x86)\Microchip\xc8\v2.00\pic\include\pic18f26k22.h"
   498                           TMR0L equ 0FD6h ;# 
   499  0000                     # 15431 "C:\Program Files (x86)\Microchip\xc8\v2.00\pic\include\pic18f26k22.h"
   500                           TMR0H equ 0FD7h ;# 
   501  0000                     # 15451 "C:\Program Files (x86)\Microchip\xc8\v2.00\pic\include\pic18f26k22.h"
   502                           STATUS equ 0FD8h ;# 
   503  0000                     # 15522 "C:\Program Files (x86)\Microchip\xc8\v2.00\pic\include\pic18f26k22.h"
   504                           FSR2 equ 0FD9h ;# 
   505  0000                     # 15529 "C:\Program Files (x86)\Microchip\xc8\v2.00\pic\include\pic18f26k22.h"
   506                           FSR2L equ 0FD9h ;# 
   507  0000                     # 15549 "C:\Program Files (x86)\Microchip\xc8\v2.00\pic\include\pic18f26k22.h"
   508                           FSR2H equ 0FDAh ;# 
   509  0000                     # 15556 "C:\Program Files (x86)\Microchip\xc8\v2.00\pic\include\pic18f26k22.h"
   510                           PLUSW2 equ 0FDBh ;# 
   511  0000                     # 15576 "C:\Program Files (x86)\Microchip\xc8\v2.00\pic\include\pic18f26k22.h"
   512                           PREINC2 equ 0FDCh ;# 
   513  0000                     # 15596 "C:\Program Files (x86)\Microchip\xc8\v2.00\pic\include\pic18f26k22.h"
   514                           POSTDEC2 equ 0FDDh ;# 
   515  0000                     # 15616 "C:\Program Files (x86)\Microchip\xc8\v2.00\pic\include\pic18f26k22.h"
   516                           POSTINC2 equ 0FDEh ;# 
   517  0000                     # 15636 "C:\Program Files (x86)\Microchip\xc8\v2.00\pic\include\pic18f26k22.h"
   518                           INDF2 equ 0FDFh ;# 
   519  0000                     # 15656 "C:\Program Files (x86)\Microchip\xc8\v2.00\pic\include\pic18f26k22.h"
   520                           BSR equ 0FE0h ;# 
   521  0000                     # 15663 "C:\Program Files (x86)\Microchip\xc8\v2.00\pic\include\pic18f26k22.h"
   522                           FSR1 equ 0FE1h ;# 
   523  0000                     # 15670 "C:\Program Files (x86)\Microchip\xc8\v2.00\pic\include\pic18f26k22.h"
   524                           FSR1L equ 0FE1h ;# 
   525  0000                     # 15690 "C:\Program Files (x86)\Microchip\xc8\v2.00\pic\include\pic18f26k22.h"
   526                           FSR1H equ 0FE2h ;# 
   527  0000                     # 15697 "C:\Program Files (x86)\Microchip\xc8\v2.00\pic\include\pic18f26k22.h"
   528                           PLUSW1 equ 0FE3h ;# 
   529  0000                     # 15717 "C:\Program Files (x86)\Microchip\xc8\v2.00\pic\include\pic18f26k22.h"
   530                           PREINC1 equ 0FE4h ;# 
   531  0000                     # 15737 "C:\Program Files (x86)\Microchip\xc8\v2.00\pic\include\pic18f26k22.h"
   532                           POSTDEC1 equ 0FE5h ;# 
   533  0000                     # 15757 "C:\Program Files (x86)\Microchip\xc8\v2.00\pic\include\pic18f26k22.h"
   534                           POSTINC1 equ 0FE6h ;# 
   535  0000                     # 15777 "C:\Program Files (x86)\Microchip\xc8\v2.00\pic\include\pic18f26k22.h"
   536                           INDF1 equ 0FE7h ;# 
   537  0000                     # 15797 "C:\Program Files (x86)\Microchip\xc8\v2.00\pic\include\pic18f26k22.h"
   538                           WREG equ 0FE8h ;# 
   539  0000                     # 15835 "C:\Program Files (x86)\Microchip\xc8\v2.00\pic\include\pic18f26k22.h"
   540                           FSR0 equ 0FE9h ;# 
   541  0000                     # 15842 "C:\Program Files (x86)\Microchip\xc8\v2.00\pic\include\pic18f26k22.h"
   542                           FSR0L equ 0FE9h ;# 
   543  0000                     # 15862 "C:\Program Files (x86)\Microchip\xc8\v2.00\pic\include\pic18f26k22.h"
   544                           FSR0H equ 0FEAh ;# 
   545  0000                     # 15869 "C:\Program Files (x86)\Microchip\xc8\v2.00\pic\include\pic18f26k22.h"
   546                           PLUSW0 equ 0FEBh ;# 
   547  0000                     # 15889 "C:\Program Files (x86)\Microchip\xc8\v2.00\pic\include\pic18f26k22.h"
   548                           PREINC0 equ 0FECh ;# 
   549  0000                     # 15909 "C:\Program Files (x86)\Microchip\xc8\v2.00\pic\include\pic18f26k22.h"
   550                           POSTDEC0 equ 0FEDh ;# 
   551  0000                     # 15929 "C:\Program Files (x86)\Microchip\xc8\v2.00\pic\include\pic18f26k22.h"
   552                           POSTINC0 equ 0FEEh ;# 
   553  0000                     # 15949 "C:\Program Files (x86)\Microchip\xc8\v2.00\pic\include\pic18f26k22.h"
   554                           INDF0 equ 0FEFh ;# 
   555  0000                     # 15969 "C:\Program Files (x86)\Microchip\xc8\v2.00\pic\include\pic18f26k22.h"
   556                           INTCON3 equ 0FF0h ;# 
   557  0000                     # 16061 "C:\Program Files (x86)\Microchip\xc8\v2.00\pic\include\pic18f26k22.h"
   558                           INTCON2 equ 0FF1h ;# 
   559  0000                     # 16131 "C:\Program Files (x86)\Microchip\xc8\v2.00\pic\include\pic18f26k22.h"
   560                           INTCON equ 0FF2h ;# 
   561  0000                     # 16248 "C:\Program Files (x86)\Microchip\xc8\v2.00\pic\include\pic18f26k22.h"
   562                           PROD equ 0FF3h ;# 
   563  0000                     # 16255 "C:\Program Files (x86)\Microchip\xc8\v2.00\pic\include\pic18f26k22.h"
   564                           PRODL equ 0FF3h ;# 
   565  0000                     # 16275 "C:\Program Files (x86)\Microchip\xc8\v2.00\pic\include\pic18f26k22.h"
   566                           PRODH equ 0FF4h ;# 
   567  0000                     # 16295 "C:\Program Files (x86)\Microchip\xc8\v2.00\pic\include\pic18f26k22.h"
   568                           TABLAT equ 0FF5h ;# 
   569  0000                     # 16317 "C:\Program Files (x86)\Microchip\xc8\v2.00\pic\include\pic18f26k22.h"
   570                           TBLPTR equ 0FF6h ;# 
   571  0000                     # 16324 "C:\Program Files (x86)\Microchip\xc8\v2.00\pic\include\pic18f26k22.h"
   572                           TBLPTRL equ 0FF6h ;# 
   573  0000                     # 16344 "C:\Program Files (x86)\Microchip\xc8\v2.00\pic\include\pic18f26k22.h"
   574                           TBLPTRH equ 0FF7h ;# 
   575  0000                     # 16364 "C:\Program Files (x86)\Microchip\xc8\v2.00\pic\include\pic18f26k22.h"
   576                           TBLPTRU equ 0FF8h ;# 
   577  0000                     # 16395 "C:\Program Files (x86)\Microchip\xc8\v2.00\pic\include\pic18f26k22.h"
   578                           PCLAT equ 0FF9h ;# 
   579  0000                     # 16402 "C:\Program Files (x86)\Microchip\xc8\v2.00\pic\include\pic18f26k22.h"
   580                           PC equ 0FF9h ;# 
   581  0000                     # 16409 "C:\Program Files (x86)\Microchip\xc8\v2.00\pic\include\pic18f26k22.h"
   582                           PCL equ 0FF9h ;# 
   583  0000                     # 16429 "C:\Program Files (x86)\Microchip\xc8\v2.00\pic\include\pic18f26k22.h"
   584                           PCLATH equ 0FFAh ;# 
   585  0000                     # 16449 "C:\Program Files (x86)\Microchip\xc8\v2.00\pic\include\pic18f26k22.h"
   586                           PCLATU equ 0FFBh ;# 
   587  0000                     # 16456 "C:\Program Files (x86)\Microchip\xc8\v2.00\pic\include\pic18f26k22.h"
   588                           STKPTR equ 0FFCh ;# 
   589  0000                     # 16562 "C:\Program Files (x86)\Microchip\xc8\v2.00\pic\include\pic18f26k22.h"
   590                           TOS equ 0FFDh ;# 
   591  0000                     # 16569 "C:\Program Files (x86)\Microchip\xc8\v2.00\pic\include\pic18f26k22.h"
   592                           TOSL equ 0FFDh ;# 
   593  0000                     # 16589 "C:\Program Files (x86)\Microchip\xc8\v2.00\pic\include\pic18f26k22.h"
   594                           TOSH equ 0FFEh ;# 
   595  0000                     # 16609 "C:\Program Files (x86)\Microchip\xc8\v2.00\pic\include\pic18f26k22.h"
   596                           TOSU equ 0FFFh ;# 
   597  0000                     	FNCALL	_main,_Beep
   598                           	FNCALL	_main,_OSCILLATOR_Initialize
   599                           	FNCALL	_main,_TIMER1_Initialize
   600                           	FNCALL	_main,_UART_Initialize
   601                           	FNCALL	_main,_atoi
   602                           	FNCALL	_main,_badineri
   603                           	FNCALL	_main,_printf
   604                           	FNCALL	_main,_read_line
   605                           	FNCALL	_main,_sleep
   606                           	FNCALL	_read_line,_putchar
   607                           	FNCALL	_read_line,_read_char
   608                           	FNCALL	_putchar,_fputc
   609                           	FNCALL	_printf,_vfprintf
   610                           	FNCALL	_vfprintf,_vfpfcnvrt
   611                           	FNCALL	_vfpfcnvrt,_fputc
   612                           	FNCALL	_fputc,_putch
   613                           	FNCALL	_badineri,_Beep
   614                           	FNCALL	_badineri,_sleep
   615                           	FNCALL	_Beep,___fladd
   616                           	FNCALL	_Beep,___fldiv
   617                           	FNCALL	_Beep,___flneg
   618                           	FNCALL	_Beep,___fltol
   619                           	FNCALL	_Beep,___xxtofl
   620                           	FNCALL	_atoi,___wmul
   621                           	FNCALL	_atoi,_isdigit
   622                           	FNCALL	_atoi,_isspace
   623                           	FNROOT	_main
   624                           	FNCALL	intlevel2,_ISR
   625                           	global	intlevel2
   626                           	FNROOT	intlevel2
   627                           	global	_nout
   628                           	global	_width
   629                           	global	_prec
   630                           	global	_flags
   631                           	global	_offset
   632                           	global	_on
   633                           	global	_cnt
   634                           	global	_ANSELC
   635                           _ANSELC	set	0xF3A
   636  0000                     	global	_ANSELA
   637                           _ANSELA	set	0xF38
   638  0000                     	global	_ANSELAbits
   639                           _ANSELAbits	set	0xF38
   640  0000                     	global	_TMR1
   641                           _TMR1	set	0xFCE
   642  0000                     	global	_RCREG1
   643                           _RCREG1	set	0xFAE
   644  0000                     	global	_TXREG1
   645                           _TXREG1	set	0xFAD
   646  0000                     	global	_SPBRGH1
   647                           _SPBRGH1	set	0xFB0
   648  0000                     	global	_SPBRG1
   649                           _SPBRG1	set	0xFAF
   650  0000                     	global	_BAUDCON1bits
   651                           _BAUDCON1bits	set	0xFB8
   652  0000                     	global	_RCSTA1bits
   653                           _RCSTA1bits	set	0xFAB
   654  0000                     	global	_TXSTA1bits
   655                           _TXSTA1bits	set	0xFAC
   656  0000                     	global	_TRISCbits
   657                           _TRISCbits	set	0xF94
   658  0000                     	global	_PIE1bits
   659                           _PIE1bits	set	0xF9D
   660  0000                     	global	_PIR1bits
   661                           _PIR1bits	set	0xF9E
   662  0000                     	global	_T1CONbits
   663                           _T1CONbits	set	0xFCD
   664  0000                     	global	_OSCTUNEbits
   665                           _OSCTUNEbits	set	0xF9B
   666  0000                     	global	_OSCCONbits
   667                           _OSCCONbits	set	0xFD3
   668  0000                     	global	_LATAbits
   669                           _LATAbits	set	0xF89
   670  0000                     	global	_TRISAbits
   671                           _TRISAbits	set	0xF92
   672  0000                     	global	_INTCONbits
   673                           _INTCONbits	set	0xFF2
   674  0000                     psect	smallconst,class=SMALLCONST,space=0,reloc=2,noexec
   675                           global __psmallconst
   676                           __psmallconst:
   677  001000                     	db	0
   678  001000  00                 	
   679                           STR_3:; BSR set to: 0
   680  001001                     
   681                           	db	68	;'D'
   682  001001  44                 	db	105	;'i'
   683  001002  69                 	db	103	;'g'
   684  001003  67                 	db	105	;'i'
   685  001004  69                 	db	116	;'t'
   686  001005  74                 	db	97	;'a'
   687  001006  61                 	db	114	;'r'
   688  001007  72                 	db	101	;'e'
   689  001008  65                 	db	32
   690  001009  20                 	db	117	;'u'
   691  00100A  75                 	db	110	;'n'
   692  00100B  6E                 	db	97	;'a'
   693  00100C  61                 	db	32
   694  00100D  20                 	db	102	;'f'
   695  00100E  66                 	db	114	;'r'
   696  00100F  72                 	db	101	;'e'
   697  001010  65                 	db	113	;'q'
   698  001011  71                 	db	117	;'u'
   699  001012  75                 	db	101	;'e'
   700  001013  65                 	db	110	;'n'
   701  001014  6E                 	db	122	;'z'
   702  001015  7A                 	db	97	;'a'
   703  001016  61                 	db	32
   704  001017  20                 	db	105	;'i'
   705  001018  69                 	db	110	;'n'
   706  001019  6E                 	db	116	;'t'
   707  00101A  74                 	db	101	;'e'
   708  00101B  65                 	db	114	;'r'
   709  00101C  72                 	db	97	;'a'
   710  00101D  61                 	db	58	;':'
   711  00101E  3A                 	db	32
   712  00101F  20                 	db	0
   713  001020  00                 	
   714                           STR_2:; BSR set to: 0
   715  001021                     
   716                           	db	66	;'B'
   717  001021  42                 	db	97	;'a'
   718  001022  61                 	db	99	;'c'
   719  001023  63                 	db	104	;'h'
   720  001024  68                 	db	32
   721  001025  20                 	db	45
   722  001026  2D                 	db	32
   723  001027  20                 	db	98	;'b'
   724  001028  62                 	db	97	;'a'
   725  001029  61                 	db	100	;'d'
   726  00102A  64                 	db	105	;'i'
   727  00102B  69                 	db	110	;'n'
   728  00102C  6E                 	db	101	;'e'
   729  00102D  65                 	db	114	;'r'
   730  00102E  72                 	db	105	;'i'
   731  00102F  69                 	db	46
   732  001030  2E                 	db	10
   733  001031  0A                 	db	13
   734  001032  0D                 	db	0
   735  001033  00                 	
   736                           STR_1:; BSR set to: 0
   737  001034                     
   738                           	db	10
   739  001034  0A                 	db	13
   740  001035  0D                 	db	82	;'R'
   741  001036  52                 	db	69	;'E'
   742  001037  45                 	db	83	;'S'
   743  001038  53                 	db	69	;'E'
   744  001039  45                 	db	84	;'T'
   745  00103A  54                 	db	10
   746  00103B  0A                 	db	13
   747  00103C  0D                 	db	0
   748  00103D  00                 ; #config settings
   749                           global __CFG_FOSC$INTIO67
   750                           __CFG_FOSC$INTIO67 equ 0x0
   751  0000                     global __CFG_PLLCFG$
   752                           __CFG_PLLCFG$ equ 0x0
   753  0000                     global __CFG_PRICLKEN$
   754                           __CFG_PRICLKEN$ equ 0x1
   755  0000                     global __CFG_FCMEN$
   756                           __CFG_FCMEN$ equ 0x0
   757  0000                     global __CFG_IESO$
   758                           __CFG_IESO$ equ 0x0
   759  0000                     global __CFG_PWRTEN$
   760                           __CFG_PWRTEN$ equ 0x0
   761  0000                     global __CFG_BOREN$SBORDIS
   762                           __CFG_BOREN$SBORDIS equ 0x0
   763  0000                     global __CFG_BORV$190
   764                           __CFG_BORV$190 equ 0x0
   765  0000                     global __CFG_WDTEN$
   766                           __CFG_WDTEN$ equ 0x0
   767  0000                     global __CFG_WDTPS$32768
   768                           __CFG_WDTPS$32768 equ 0x0
   769  0000                     	file	"C:\Users\daniele\AppData\Local\Temp\s8ck."
   770                           	line	#
   771                           psect	cinit,class=CODE,delta=1,reloc=2
   772                           global __pcinit
   773                           __pcinit:
   774  005D12                     global start_initialization
   775                           start_initialization:
   776  005D12                     
   777                           global __initialization
   778                           __initialization:
   779  005D12                     psect	bssCOMRAM,class=COMRAM,space=1,noexec
   780                           global __pbssCOMRAM
   781                           __pbssCOMRAM:
   782  000053                     _nout:
   783  000053                            ds      2
   784  000053                     _width:
   785  000055                            ds      2
   786  000055                     _prec:
   787  000057                            ds      2
   788  000057                     _flags:
   789  000059                            ds      2
   790  000059                     	global	_offset
   791                           _offset:
   792  00005B                            ds      2
   793  00005B                     psect	bssBANK0,class=BANK0,space=1,noexec,lowdata
   794                           global __pbssBANK0
   795                           __pbssBANK0:
   796  000060                     _dbuf:
   797  000060                            ds      32
   798  000060                     	global	_on
   799                           _on:
   800  000080                            ds      1
   801  000080                     	global	_cnt
   802                           _cnt:
   803  000081                            ds      1
   804  000081                     	file	"C:\Users\daniele\AppData\Local\Temp\s8ck."
   805                           	line	#
   806                           psect	cinit
   807                           ; Clear objects allocated to BANK0 (34 bytes)
   808                           	global __pbssBANK0
   809                           lfsr	0,__pbssBANK0
   810  005D12  EE00  F060         movlw	34
   811  005D16  0E22               clear_0:
   812  005D18                     clrf	postinc0,c
   813  005D18  6AEE               decf	wreg
   814  005D1A  06E8               bnz	clear_0
   815  005D1C  E1FD               ; Clear objects allocated to COMRAM (10 bytes)
   816                           	global __pbssCOMRAM
   817                           lfsr	0,__pbssCOMRAM
   818  005D1E  EE00  F053         movlw	10
   819  005D22  0E0A               clear_1:
   820  005D24                     clrf	postinc0,c
   821  005D24  6AEE               decf	wreg
   822  005D26  06E8               bnz	clear_1
   823  005D28  E1FD               psect cinit,class=CODE,delta=1
   824                           global end_of_initialization,__end_of__initialization
   825                           
   826                           ;End of C runtime variable initialization code
   827                           
   828                           end_of_initialization:
   829  005D2A                     __end_of__initialization:
   830  005D2A                     	bcf int$flags,0,c ;clear compiler interrupt flag (level 1)
   831  005D2A  905D               	bcf int$flags,1,c ;clear compiler interrupt flag (level 2)
   832  005D2C  925D               	GLOBAL	__Lmediumconst
   833                           	movlw	low highword(__Lmediumconst)
   834  005D2E  0E00               	movwf	tblptru
   835  005D30  6EF8               movlb 0
   836  005D32  0100               goto _main	;jump to C main() function
   837  005D34  EF1E  F02C         psect	cstackBANK0,class=BANK0,space=1,noexec
   838                           global __pcstackBANK0
   839                           __pcstackBANK0:
   840  000082                     	global	main@str
   841                           main@str:	; 20 bytes @ 0x0
   842  000082                     	ds   20
   843  000082                     	global	main@f
   844                           main@f:	; 2 bytes @ 0x14
   845  000096                     	ds   2
   846  000096                     	global	main@ms
   847                           main@ms:	; 2 bytes @ 0x16
   848  000098                     	ds   2
   849  000098                     psect	cstackCOMRAM,class=COMRAM,space=1,noexec
   850                           global __pcstackCOMRAM
   851                           __pcstackCOMRAM:
   852  000001                     ?_OSCILLATOR_Initialize:	; 1 bytes @ 0x0
   853  000001                     ?_UART_Initialize:	; 1 bytes @ 0x0
   854  000001                     ?_TIMER1_Initialize:	; 1 bytes @ 0x0
   855  000001                     ?_badineri:	; 1 bytes @ 0x0
   856  000001                     ?_main:	; 1 bytes @ 0x0
   857  000001                     ?_putch:	; 1 bytes @ 0x0
   858  000001                     ?_read_char:	; 1 bytes @ 0x0
   859  000001                     ?_ISR:	; 1 bytes @ 0x0
   860  000001                     ??_ISR:	; 1 bytes @ 0x0
   861  000001                     	ds   1
   862  000001                     ??_OSCILLATOR_Initialize:	; 1 bytes @ 0x1
   863  000002                     ??_UART_Initialize:	; 1 bytes @ 0x1
   864  000002                     ??_TIMER1_Initialize:	; 1 bytes @ 0x1
   865  000002                     ?_sleep:	; 1 bytes @ 0x1
   866  000002                     ??_putch:	; 1 bytes @ 0x1
   867  000002                     ??_read_char:	; 1 bytes @ 0x1
   868  000002                     	global	?_isspace
   869                           ?_isspace:	; 2 bytes @ 0x1
   870  000002                     	global	?_isdigit
   871                           ?_isdigit:	; 2 bytes @ 0x1
   872  000002                     	global	?___wmul
   873                           ?___wmul:	; 2 bytes @ 0x1
   874  000002                     	global	?___xxtofl
   875                           ?___xxtofl:	; 4 bytes @ 0x1
   876  000002                     	global	putch@c
   877                           putch@c:	; 1 bytes @ 0x1
   878  000002                     	global	sleep@ms
   879                           sleep@ms:	; 2 bytes @ 0x1
   880  000002                     	global	___wmul@multiplier
   881                           ___wmul@multiplier:	; 2 bytes @ 0x1
   882  000002                     	global	isdigit@c
   883                           isdigit@c:	; 2 bytes @ 0x1
   884  000002                     	global	isspace@c
   885                           isspace@c:	; 2 bytes @ 0x1
   886  000002                     	global	___xxtofl@val
   887                           ___xxtofl@val:	; 4 bytes @ 0x1
   888  000002                     	ds   1
   889  000002                     	global	?_fputc
   890                           ?_fputc:	; 2 bytes @ 0x2
   891  000003                     	global	fputc@c
   892                           fputc@c:	; 2 bytes @ 0x2
   893  000003                     	ds   1
   894  000003                     ??_sleep:	; 1 bytes @ 0x3
   895  000004                     ??_isspace:	; 1 bytes @ 0x3
   896  000004                     ??_isdigit:	; 1 bytes @ 0x3
   897  000004                     	global	___wmul@multiplicand
   898                           ___wmul@multiplicand:	; 2 bytes @ 0x3
   899  000004                     	ds   1
   900  000004                     	global	sleep@i
   901                           sleep@i:	; 2 bytes @ 0x4
   902  000005                     	global	fputc@fp
   903                           fputc@fp:	; 2 bytes @ 0x4
   904  000005                     	ds   1
   905  000005                     ??___wmul:	; 1 bytes @ 0x5
   906  000006                     ??___xxtofl:	; 1 bytes @ 0x5
   907  000006                     	global	___wmul@product
   908                           ___wmul@product:	; 2 bytes @ 0x5
   909  000006                     	ds   1
   910  000006                     ??_fputc:	; 1 bytes @ 0x6
   911  000007                     	ds   1
   912  000007                     	global	_isspace$1287
   913                           _isspace$1287:	; 1 bytes @ 0x7
   914  000008                     	ds   1
   915  000008                     	global	?_atoi
   916                           ?_atoi:	; 2 bytes @ 0x8
   917  000009                     	global	atoi@s
   918                           atoi@s:	; 2 bytes @ 0x8
   919  000009                     	ds   1
   920  000009                     	global	___xxtofl@sign
   921                           ___xxtofl@sign:	; 1 bytes @ 0x9
   922  00000A                     	ds   1
   923  00000A                     ??_atoi:	; 1 bytes @ 0xA
   924  00000B                     	global	___xxtofl@exp
   925                           ___xxtofl@exp:	; 1 bytes @ 0xA
   926  00000B                     	ds   1
   927  00000B                     ?_putchar:	; 2 bytes @ 0xB
   928  00000C                     	global	?_vfpfcnvrt
   929                           ?_vfpfcnvrt:	; 2 bytes @ 0xB
   930  00000C                     	global	vfpfcnvrt@fp
   931                           vfpfcnvrt@fp:	; 2 bytes @ 0xB
   932  00000C                     	global	putchar@c
   933                           putchar@c:	; 2 bytes @ 0xB
   934  00000C                     	global	___xxtofl@arg
   935                           ___xxtofl@arg:	; 4 bytes @ 0xB
   936  00000C                     	ds   2
   937  00000C                     ?_read_line:	; 1 bytes @ 0xD
   938  00000E                     ??_putchar:	; 1 bytes @ 0xD
   939  00000E                     	global	read_line@s
   940                           read_line@s:	; 2 bytes @ 0xD
   941  00000E                     	global	vfpfcnvrt@fmt
   942                           vfpfcnvrt@fmt:	; 2 bytes @ 0xD
   943  00000E                     	ds   1
   944  00000E                     	global	atoi@neg
   945                           atoi@neg:	; 2 bytes @ 0xE
   946  00000F                     	ds   1
   947  00000F                     	global	?___fldiv
   948                           ?___fldiv:	; 4 bytes @ 0xF
   949  000010                     	global	read_line@max_len
   950                           read_line@max_len:	; 2 bytes @ 0xF
   951  000010                     	global	vfpfcnvrt@ap
   952                           vfpfcnvrt@ap:	; 2 bytes @ 0xF
   953  000010                     	global	___fldiv@b
   954                           ___fldiv@b:	; 4 bytes @ 0xF
   955  000010                     	ds   1
   956  000010                     	global	_atoi$1269
   957                           _atoi$1269:	; 2 bytes @ 0x10
   958  000011                     	ds   1
   959  000011                     ??_read_line:	; 1 bytes @ 0x11
   960  000012                     ??_vfpfcnvrt:	; 1 bytes @ 0x11
   961  000012                     	global	?_vfprintf
   962                           ?_vfprintf:	; 2 bytes @ 0x11
   963  000012                     	global	vfprintf@fp
   964                           vfprintf@fp:	; 2 bytes @ 0x11
   965  000012                     	ds   1
   966  000012                     	global	read_line@i
   967                           read_line@i:	; 2 bytes @ 0x12
   968  000013                     	global	_atoi$1271
   969                           _atoi$1271:	; 2 bytes @ 0x12
   970  000013                     	ds   1
   971  000013                     	global	vfprintf@fmt
   972                           vfprintf@fmt:	; 2 bytes @ 0x13
   973  000014                     	global	___fldiv@a
   974                           ___fldiv@a:	; 4 bytes @ 0x13
   975  000014                     	ds   1
   976  000014                     	global	read_line@c
   977                           read_line@c:	; 1 bytes @ 0x14
   978  000015                     	global	_atoi$1270
   979                           _atoi$1270:	; 1 bytes @ 0x14
   980  000015                     	ds   1
   981  000015                     	global	vfprintf@ap
   982                           vfprintf@ap:	; 2 bytes @ 0x15
   983  000016                     	global	atoi@n
   984                           atoi@n:	; 2 bytes @ 0x15
   985  000016                     	ds   2
   986  000016                     ??___fldiv:	; 1 bytes @ 0x17
   987  000018                     ??_vfprintf:	; 1 bytes @ 0x17
   988  000018                     	global	vfprintf@cfmt
   989                           vfprintf@cfmt:	; 2 bytes @ 0x17
   990  000018                     	ds   2
   991  000018                     	global	?_printf
   992                           ?_printf:	; 2 bytes @ 0x19
   993  00001A                     	global	printf@fmt
   994                           printf@fmt:	; 2 bytes @ 0x19
   995  00001A                     	ds   2
   996  00001A                     ??_printf:	; 1 bytes @ 0x1B
   997  00001C                     	global	printf@ret
   998                           printf@ret:	; 2 bytes @ 0x1B
   999  00001C                     	global	___fldiv@rem
  1000                           ___fldiv@rem:	; 4 bytes @ 0x1B
  1001  00001C                     	ds   2
  1002  00001C                     	global	printf@ap
  1003                           printf@ap:	; 2 bytes @ 0x1D
  1004  00001E                     	ds   2
  1005  00001E                     	global	___fldiv@sign
  1006                           ___fldiv@sign:	; 1 bytes @ 0x1F
  1007  000020                     	ds   1
  1008  000020                     	global	___fldiv@new_exp
  1009                           ___fldiv@new_exp:	; 2 bytes @ 0x20
  1010  000021                     	ds   2
  1011  000021                     	global	___fldiv@grs
  1012                           ___fldiv@grs:	; 4 bytes @ 0x22
  1013  000023                     	ds   4
  1014  000023                     	global	___fldiv@bexp
  1015                           ___fldiv@bexp:	; 1 bytes @ 0x26
  1016  000027                     	ds   1
  1017  000027                     	global	___fldiv@aexp
  1018                           ___fldiv@aexp:	; 1 bytes @ 0x27
  1019  000028                     	ds   1
  1020  000028                     	global	?___flneg
  1021                           ?___flneg:	; 4 bytes @ 0x28
  1022  000029                     	global	___flneg@f1
  1023                           ___flneg@f1:	; 4 bytes @ 0x28
  1024  000029                     	ds   4
  1025  000029                     ??___flneg:	; 1 bytes @ 0x2C
  1026  00002D                     	global	?___fladd
  1027                           ?___fladd:	; 4 bytes @ 0x2C
  1028  00002D                     	global	___fladd@b
  1029                           ___fladd@b:	; 4 bytes @ 0x2C
  1030  00002D                     	ds   4
  1031  00002D                     	global	___fladd@a
  1032                           ___fladd@a:	; 4 bytes @ 0x30
  1033  000031                     	ds   4
  1034  000031                     ??___fladd:	; 1 bytes @ 0x34
  1035  000035                     	ds   8
  1036  000035                     	global	___fladd@signs
  1037                           ___fladd@signs:	; 1 bytes @ 0x3C
  1038  00003D                     	ds   1
  1039  00003D                     	global	___fladd@aexp
  1040                           ___fladd@aexp:	; 1 bytes @ 0x3D
  1041  00003E                     	ds   1
  1042  00003E                     	global	___fladd@bexp
  1043                           ___fladd@bexp:	; 1 bytes @ 0x3E
  1044  00003F                     	ds   1
  1045  00003F                     	global	___fladd@grs
  1046                           ___fladd@grs:	; 1 bytes @ 0x3F
  1047  000040                     	ds   1
  1048  000040                     	global	?___fltol
  1049                           ?___fltol:	; 4 bytes @ 0x40
  1050  000041                     	global	___fltol@f1
  1051                           ___fltol@f1:	; 4 bytes @ 0x40
  1052  000041                     	ds   4
  1053  000041                     ??___fltol:	; 1 bytes @ 0x44
  1054  000045                     	ds   4
  1055  000045                     	global	___fltol@sign1
  1056                           ___fltol@sign1:	; 1 bytes @ 0x48
  1057  000049                     	ds   1
  1058  000049                     	global	___fltol@exp1
  1059                           ___fltol@exp1:	; 1 bytes @ 0x49
  1060  00004A                     	ds   1
  1061  00004A                     ?_Beep:	; 1 bytes @ 0x4A
  1062  00004B                     	global	Beep@frequency
  1063                           Beep@frequency:	; 2 bytes @ 0x4A
  1064  00004B                     	ds   2
  1065  00004B                     	global	Beep@duration
  1066                           Beep@duration:	; 2 bytes @ 0x4C
  1067  00004D                     	ds   2
  1068  00004D                     ??_Beep:	; 1 bytes @ 0x4E
  1069  00004F                     	ds   1
  1070  00004F                     	global	Beep@i
  1071                           Beep@i:	; 2 bytes @ 0x4F
  1072  000050                     	ds   2
  1073  000050                     ??_badineri:	; 1 bytes @ 0x51
  1074  000052                     ??_main:	; 1 bytes @ 0x51
  1075  000052                     	ds   1
  1076  000052                     ;!
  1077                           ;!Data Sizes:
  1078                           ;!    Strings     61
  1079                           ;!    Constant    0
  1080                           ;!    Data        0
  1081                           ;!    BSS         44
  1082                           ;!    Persistent  0
  1083                           ;!    Stack       0
  1084                           ;!
  1085                           ;!Auto Spaces:
  1086                           ;!    Space          Size  Autos    Used
  1087                           ;!    COMRAM           94     82      92
  1088                           ;!    BANK0           160     24      58
  1089                           ;!    BANK1           256      0       0
  1090                           ;!    BANK2           256      0       0
  1091                           ;!    BANK3           256      0       0
  1092                           ;!    BANK4           256      0       0
  1093                           ;!    BANK5           256      0       0
  1094                           ;!    BANK6           256      0       0
  1095                           ;!    BANK7           256      0       0
  1096                           ;!    BANK8           256      0       0
  1097                           ;!    BANK9           256      0       0
  1098                           ;!    BANK10          256      0       0
  1099                           ;!    BANK11          256      0       0
  1100                           ;!    BANK12          256      0       0
  1101                           ;!    BANK13          256      0       0
  1102                           ;!    BANK14          256      0       0
  1103                           ;!    BANK15           56      0       0
  1104                           
  1105                           ;!
  1106                           ;!Pointer List with Targets:
  1107                           ;!
  1108                           ;!    vfpfcnvrt@ap	PTR PTR void  size(2) Largest target is 2
  1109                           ;!		 -> printf@ap(COMRAM[2]), 
  1110                           ;!
  1111                           ;!    printf@fmt	PTR const unsigned char  size(2) Largest target is 32
  1112                           ;!		 -> STR_3(CODE[32]), STR_2(CODE[19]), STR_1(CODE[10]), 
  1113                           ;!
  1114                           ;!    printf@ap	PTR void [1] size(2) Largest target is 2
  1115                           ;!		 -> ?_printf(COMRAM[2]), 
  1116                           ;!
  1117                           ;!    S1291_IO_FILE$buffer	PTR unsigned char  size(2) Largest target is 0
  1118                           ;!
  1119                           ;!    fputc@fp.buffer	PTR unsigned char  size(2) Largest target is 0
  1120                           ;!
  1121                           ;!    fputc@fp	PTR struct _IO_FILE size(2) Largest target is 0
  1122                           ;!		 -> NULL(NULL[0]), 
  1123                           ;!
  1124                           ;!    atoi@s	PTR const unsigned char  size(2) Largest target is 20
  1125                           ;!		 -> main@str(BANK0[20]), 
  1126                           ;!
  1127                           ;!    vfprintf@ap	PTR PTR void  size(2) Largest target is 2
  1128                           ;!		 -> printf@ap(COMRAM[2]), 
  1129                           ;!
  1130                           ;!    vfprintf@fp	PTR struct _IO_FILE size(2) Largest target is 0
  1131                           ;!		 -> NULL(NULL[0]), 
  1132                           ;!
  1133                           ;!    vfprintf@fmt	PTR const unsigned char  size(2) Largest target is 32
  1134                           ;!		 -> STR_3(CODE[32]), STR_2(CODE[19]), STR_1(CODE[10]), 
  1135                           ;!
  1136                           ;!    vfprintf@cfmt	PTR unsigned char  size(2) Largest target is 32
  1137                           ;!		 -> STR_3(CODE[32]), STR_2(CODE[19]), STR_1(CODE[10]), 
  1138                           ;!
  1139                           ;!    vfpfcnvrt@fp	PTR struct _IO_FILE size(2) Largest target is 0
  1140                           ;!		 -> NULL(NULL[0]), 
  1141                           ;!
  1142                           ;!    vfpfcnvrt@fmt	PTR PTR unsigned char  size(2) Largest target is 2
  1143                           ;!		 -> vfprintf@cfmt(COMRAM[2]), 
  1144                           ;!
  1145                           ;!    read_line@s	PTR unsigned char  size(2) Largest target is 20
  1146                           ;!		 -> main@str(BANK0[20]), 
  1147                           ;!
  1148                           
  1149                           
  1150                           ;!
  1151                           ;!Critical Paths under _main in COMRAM
  1152                           ;!
  1153                           ;!    _main->_Beep
  1154                           ;!    _read_line->_putchar
  1155                           ;!    _putchar->_fputc
  1156                           ;!    _printf->_vfprintf
  1157                           ;!    _vfprintf->_vfpfcnvrt
  1158                           ;!    _vfpfcnvrt->_fputc
  1159                           ;!    _fputc->_putch
  1160                           ;!    _badineri->_Beep
  1161                           ;!    _Beep->___fltol
  1162                           ;!    ___fltol->___fladd
  1163                           ;!    ___flneg->___fldiv
  1164                           ;!    ___fldiv->___xxtofl
  1165                           ;!    ___fladd->___flneg
  1166                           ;!    _atoi->_isspace
  1167                           ;!
  1168                           ;!Critical Paths under _ISR in COMRAM
  1169                           ;!
  1170                           ;!    None.
  1171                           ;!
  1172                           ;!Critical Paths under _main in BANK0
  1173                           ;!
  1174                           ;!    None.
  1175                           ;!
  1176                           ;!Critical Paths under _ISR in BANK0
  1177                           ;!
  1178                           ;!    None.
  1179                           ;!
  1180                           ;!Critical Paths under _main in BANK1
  1181                           ;!
  1182                           ;!    None.
  1183                           ;!
  1184                           ;!Critical Paths under _ISR in BANK1
  1185                           ;!
  1186                           ;!    None.
  1187                           ;!
  1188                           ;!Critical Paths under _main in BANK2
  1189                           ;!
  1190                           ;!    None.
  1191                           ;!
  1192                           ;!Critical Paths under _ISR in BANK2
  1193                           ;!
  1194                           ;!    None.
  1195                           ;!
  1196                           ;!Critical Paths under _main in BANK3
  1197                           ;!
  1198                           ;!    None.
  1199                           ;!
  1200                           ;!Critical Paths under _ISR in BANK3
  1201                           ;!
  1202                           ;!    None.
  1203                           ;!
  1204                           ;!Critical Paths under _main in BANK4
  1205                           ;!
  1206                           ;!    None.
  1207                           ;!
  1208                           ;!Critical Paths under _ISR in BANK4
  1209                           ;!
  1210                           ;!    None.
  1211                           ;!
  1212                           ;!Critical Paths under _main in BANK5
  1213                           ;!
  1214                           ;!    None.
  1215                           ;!
  1216                           ;!Critical Paths under _ISR in BANK5
  1217                           ;!
  1218                           ;!    None.
  1219                           ;!
  1220                           ;!Critical Paths under _main in BANK6
  1221                           ;!
  1222                           ;!    None.
  1223                           ;!
  1224                           ;!Critical Paths under _ISR in BANK6
  1225                           ;!
  1226                           ;!    None.
  1227                           ;!
  1228                           ;!Critical Paths under _main in BANK7
  1229                           ;!
  1230                           ;!    None.
  1231                           ;!
  1232                           ;!Critical Paths under _ISR in BANK7
  1233                           ;!
  1234                           ;!    None.
  1235                           ;!
  1236                           ;!Critical Paths under _main in BANK8
  1237                           ;!
  1238                           ;!    None.
  1239                           ;!
  1240                           ;!Critical Paths under _ISR in BANK8
  1241                           ;!
  1242                           ;!    None.
  1243                           ;!
  1244                           ;!Critical Paths under _main in BANK9
  1245                           ;!
  1246                           ;!    None.
  1247                           ;!
  1248                           ;!Critical Paths under _ISR in BANK9
  1249                           ;!
  1250                           ;!    None.
  1251                           ;!
  1252                           ;!Critical Paths under _main in BANK10
  1253                           ;!
  1254                           ;!    None.
  1255                           ;!
  1256                           ;!Critical Paths under _ISR in BANK10
  1257                           ;!
  1258                           ;!    None.
  1259                           ;!
  1260                           ;!Critical Paths under _main in BANK11
  1261                           ;!
  1262                           ;!    None.
  1263                           ;!
  1264                           ;!Critical Paths under _ISR in BANK11
  1265                           ;!
  1266                           ;!    None.
  1267                           ;!
  1268                           ;!Critical Paths under _main in BANK12
  1269                           ;!
  1270                           ;!    None.
  1271                           ;!
  1272                           ;!Critical Paths under _ISR in BANK12
  1273                           ;!
  1274                           ;!    None.
  1275                           ;!
  1276                           ;!Critical Paths under _main in BANK13
  1277                           ;!
  1278                           ;!    None.
  1279                           ;!
  1280                           ;!Critical Paths under _ISR in BANK13
  1281                           ;!
  1282                           ;!    None.
  1283                           ;!
  1284                           ;!Critical Paths under _main in BANK14
  1285                           ;!
  1286                           ;!    None.
  1287                           ;!
  1288                           ;!Critical Paths under _ISR in BANK14
  1289                           ;!
  1290                           ;!    None.
  1291                           ;!
  1292                           ;!Critical Paths under _main in BANK15
  1293                           ;!
  1294                           ;!    None.
  1295                           ;!
  1296                           ;!Critical Paths under _ISR in BANK15
  1297                           ;!
  1298                           ;!    None.
  1299                           
  1300 ;;
  1301 ;;Main: autosize = 0, tempsize = 1, incstack = 0, save=0
  1302 ;;
  1303                           
  1304                           ;!
  1305                           ;!Call Graph Tables:
  1306                           ;!
  1307                           ;! ---------------------------------------------------------------------------------
  1308                           ;! (Depth) Function   	        Calls       Base Space   Used Autos Params    Refs
  1309                           ;! ---------------------------------------------------------------------------------
  1310                           ;! (0) _main                                                25    25      0  216405
  1311                           ;!                                             81 COMRAM     1     1      0
  1312                           ;!                                              0 BANK0     24    24      0
  1313                           ;!                               _Beep
  1314                           ;!              _OSCILLATOR_Initialize
  1315                           ;!                  _TIMER1_Initialize
  1316                           ;!                    _UART_Initialize
  1317                           ;!                               _atoi
  1318                           ;!                           _badineri
  1319                           ;!                             _printf
  1320                           ;!                          _read_line
  1321                           ;!                              _sleep
  1322                           ;! ---------------------------------------------------------------------------------
  1323                           ;! (1) _read_line                                            8     4      4    1892
  1324                           ;!                                             13 COMRAM     8     4      4
  1325                           ;!                            _putchar
  1326                           ;!                          _read_char
  1327                           ;! ---------------------------------------------------------------------------------
  1328                           ;! (2) _read_char                                            0     0      0       0
  1329                           ;! ---------------------------------------------------------------------------------
  1330                           ;! (2) _putchar                                              2     0      2    1384
  1331                           ;!                                             11 COMRAM     2     0      2
  1332                           ;!                              _fputc
  1333                           ;! ---------------------------------------------------------------------------------
  1334                           ;! (1) _printf                                               6     4      2    1962
  1335                           ;!                                             25 COMRAM     6     4      2
  1336                           ;!                           _vfprintf
  1337                           ;! ---------------------------------------------------------------------------------
  1338                           ;! (2) _vfprintf                                             8     2      6    1682
  1339                           ;!                                             17 COMRAM     8     2      6
  1340                           ;!                          _vfpfcnvrt
  1341                           ;! ---------------------------------------------------------------------------------
  1342                           ;! (3) _vfpfcnvrt                                           40    34      6    1332
  1343                           ;!                                             11 COMRAM     6     0      6
  1344                           ;!                              _fputc
  1345                           ;! ---------------------------------------------------------------------------------
  1346                           ;! (3) _fputc                                                9     5      4     906
  1347                           ;!                                              2 COMRAM     9     5      4
  1348                           ;!                              _putch
  1349                           ;! ---------------------------------------------------------------------------------
  1350                           ;! (4) _putch                                                1     1      0      22
  1351                           ;!                                              1 COMRAM     1     1      0
  1352                           ;! ---------------------------------------------------------------------------------
  1353                           ;! (1) _badineri                                             0     0      0  105676
  1354                           ;!                               _Beep
  1355                           ;!                              _sleep
  1356                           ;! ---------------------------------------------------------------------------------
  1357                           ;! (1) _sleep                                                5     3      2   32574
  1358                           ;!                                              1 COMRAM     5     3      2
  1359                           ;! ---------------------------------------------------------------------------------
  1360                           ;! (2) _Beep                                                 7     3      4   73102
  1361                           ;!                                             74 COMRAM     7     3      4
  1362                           ;!                            ___fladd
  1363                           ;!                            ___fldiv
  1364                           ;!                            ___flneg
  1365                           ;!                            ___fltol
  1366                           ;!                           ___xxtofl
  1367                           ;! ---------------------------------------------------------------------------------
  1368                           ;! (3) ___xxtofl                                            14    10      4     474
  1369                           ;!                                              1 COMRAM    14    10      4
  1370                           ;! ---------------------------------------------------------------------------------
  1371                           ;! (3) ___fltol                                             10     6      4     381
  1372                           ;!                                             64 COMRAM    10     6      4
  1373                           ;!                            ___fladd (ARG)
  1374                           ;!                            ___fldiv (ARG)
  1375                           ;!                            ___flneg (ARG)
  1376                           ;!                           ___xxtofl (ARG)
  1377                           ;! ---------------------------------------------------------------------------------
  1378                           ;! (3) ___flneg                                              4     0      4     121
  1379                           ;!                                             40 COMRAM     4     0      4
  1380                           ;!                            ___fldiv (ARG)
  1381                           ;!                           ___xxtofl (ARG)
  1382                           ;! ---------------------------------------------------------------------------------
  1383                           ;! (3) ___fldiv                                             25    17      8    1551
  1384                           ;!                                             15 COMRAM    25    17      8
  1385                           ;!                           ___xxtofl (ARG)
  1386                           ;! ---------------------------------------------------------------------------------
  1387                           ;! (3) ___fladd                                             20    12      8    2388
  1388                           ;!                                             44 COMRAM    20    12      8
  1389                           ;!                            ___fldiv (ARG)
  1390                           ;!                            ___flneg (ARG)
  1391                           ;!                           ___xxtofl (ARG)
  1392                           ;! ---------------------------------------------------------------------------------
  1393                           ;! (1) _atoi                                                15    13      2    1076
  1394                           ;!                                              8 COMRAM    15    13      2
  1395                           ;!                             ___wmul
  1396                           ;!                            _isdigit
  1397                           ;!                            _isspace
  1398                           ;! ---------------------------------------------------------------------------------
  1399                           ;! (2) _isspace                                              7     5      2     207
  1400                           ;!                                              1 COMRAM     7     5      2
  1401                           ;! ---------------------------------------------------------------------------------
  1402                           ;! (2) _isdigit                                              6     4      2     161
  1403                           ;!                                              1 COMRAM     6     4      2
  1404                           ;! ---------------------------------------------------------------------------------
  1405                           ;! (2) ___wmul                                               6     2      4     311
  1406                           ;!                                              1 COMRAM     6     2      4
  1407                           ;! ---------------------------------------------------------------------------------
  1408                           ;! (1) _UART_Initialize                                      0     0      0       0
  1409                           ;! ---------------------------------------------------------------------------------
  1410                           ;! (1) _TIMER1_Initialize                                    0     0      0       0
  1411                           ;! ---------------------------------------------------------------------------------
  1412                           ;! (1) _OSCILLATOR_Initialize                                0     0      0       0
  1413                           ;! ---------------------------------------------------------------------------------
  1414                           ;! Estimated maximum stack depth 4
  1415                           ;! ---------------------------------------------------------------------------------
  1416                           ;! (Depth) Function   	        Calls       Base Space   Used Autos Params    Refs
  1417                           ;! ---------------------------------------------------------------------------------
  1418                           ;! (6) _ISR                                                  1     1      0       0
  1419                           ;!                                              0 COMRAM     1     1      0
  1420                           ;! ---------------------------------------------------------------------------------
  1421                           ;! Estimated maximum stack depth 6
  1422                           ;! ---------------------------------------------------------------------------------
  1423                           ;!
  1424                           ;! Call Graph Graphs:
  1425                           ;!
  1426                           ;! _main (ROOT)
  1427                           ;!   _Beep
  1428                           ;!     ___fladd
  1429                           ;!       ___fldiv (ARG)
  1430                           ;!         ___xxtofl (ARG)
  1431                           ;!       ___flneg (ARG)
  1432                           ;!         ___fldiv (ARG)
  1433                           ;!           ___xxtofl (ARG)
  1434                           ;!         ___xxtofl (ARG)
  1435                           ;!       ___xxtofl (ARG)
  1436                           ;!     ___fldiv
  1437                           ;!       ___xxtofl (ARG)
  1438                           ;!     ___flneg
  1439                           ;!       ___fldiv (ARG)
  1440                           ;!         ___xxtofl (ARG)
  1441                           ;!       ___xxtofl (ARG)
  1442                           ;!     ___fltol
  1443                           ;!       ___fladd (ARG)
  1444                           ;!         ___fldiv (ARG)
  1445                           ;!           ___xxtofl (ARG)
  1446                           ;!         ___flneg (ARG)
  1447                           ;!           ___fldiv (ARG)
  1448                           ;!             ___xxtofl (ARG)
  1449                           ;!           ___xxtofl (ARG)
  1450                           ;!         ___xxtofl (ARG)
  1451                           ;!       ___fldiv (ARG)
  1452                           ;!         ___xxtofl (ARG)
  1453                           ;!       ___flneg (ARG)
  1454                           ;!         ___fldiv (ARG)
  1455                           ;!           ___xxtofl (ARG)
  1456                           ;!         ___xxtofl (ARG)
  1457                           ;!       ___xxtofl (ARG)
  1458                           ;!     ___xxtofl
  1459                           ;!   _OSCILLATOR_Initialize
  1460                           ;!   _TIMER1_Initialize
  1461                           ;!   _UART_Initialize
  1462                           ;!   _atoi
  1463                           ;!     ___wmul
  1464                           ;!     _isdigit
  1465                           ;!     _isspace
  1466                           ;!   _badineri
  1467                           ;!     _Beep
  1468                           ;!       ___fladd
  1469                           ;!         ___fldiv (ARG)
  1470                           ;!           ___xxtofl (ARG)
  1471                           ;!         ___flneg (ARG)
  1472                           ;!           ___fldiv (ARG)
  1473                           ;!             ___xxtofl (ARG)
  1474                           ;!           ___xxtofl (ARG)
  1475                           ;!         ___xxtofl (ARG)
  1476                           ;!       ___fldiv
  1477                           ;!         ___xxtofl (ARG)
  1478                           ;!       ___flneg
  1479                           ;!         ___fldiv (ARG)
  1480                           ;!           ___xxtofl (ARG)
  1481                           ;!         ___xxtofl (ARG)
  1482                           ;!       ___fltol
  1483                           ;!         ___fladd (ARG)
  1484                           ;!           ___fldiv (ARG)
  1485                           ;!             ___xxtofl (ARG)
  1486                           ;!           ___flneg (ARG)
  1487                           ;!             ___fldiv (ARG)
  1488                           ;!               ___xxtofl (ARG)
  1489                           ;!             ___xxtofl (ARG)
  1490                           ;!           ___xxtofl (ARG)
  1491                           ;!         ___fldiv (ARG)
  1492                           ;!           ___xxtofl (ARG)
  1493                           ;!         ___flneg (ARG)
  1494                           ;!           ___fldiv (ARG)
  1495                           ;!             ___xxtofl (ARG)
  1496                           ;!           ___xxtofl (ARG)
  1497                           ;!         ___xxtofl (ARG)
  1498                           ;!       ___xxtofl
  1499                           ;!     _sleep
  1500                           ;!   _printf
  1501                           ;!     _vfprintf
  1502                           ;!       _vfpfcnvrt
  1503                           ;!         _fputc
  1504                           ;!           _putch
  1505                           ;!   _read_line
  1506                           ;!     _putchar
  1507                           ;!       _fputc
  1508                           ;!         _putch
  1509                           ;!     _read_char
  1510                           ;!   _sleep
  1511                           ;!
  1512                           ;! _ISR (ROOT)
  1513                           ;!
  1514                           
  1515                           ;! Address spaces:
  1516                           
  1517                           ;!Name               Size   Autos  Total    Cost      Usage
  1518                           ;!BIGRAM             F37      0       0      37        0.0%
  1519                           ;!EEDATA             400      0       0       0        0.0%
  1520                           ;!BITBANK14          100      0       0      33        0.0%
  1521                           ;!BANK14             100      0       0      34        0.0%
  1522                           ;!BITBANK13          100      0       0      31        0.0%
  1523                           ;!BANK13             100      0       0      32        0.0%
  1524                           ;!BITBANK12          100      0       0      29        0.0%
  1525                           ;!BANK12             100      0       0      30        0.0%
  1526                           ;!BITBANK11          100      0       0      27        0.0%
  1527                           ;!BANK11             100      0       0      28        0.0%
  1528                           ;!BITBANK10          100      0       0      25        0.0%
  1529                           ;!BANK10             100      0       0      26        0.0%
  1530                           ;!BITBANK9           100      0       0      23        0.0%
  1531                           ;!BANK9              100      0       0      24        0.0%
  1532                           ;!BITBANK8           100      0       0      21        0.0%
  1533                           ;!BANK8              100      0       0      22        0.0%
  1534                           ;!BITBANK7           100      0       0      19        0.0%
  1535                           ;!BANK7              100      0       0      20        0.0%
  1536                           ;!BITBANK6           100      0       0      17        0.0%
  1537                           ;!BANK6              100      0       0      18        0.0%
  1538                           ;!BITBANK5           100      0       0      15        0.0%
  1539                           ;!BANK5              100      0       0      16        0.0%
  1540                           ;!BITBANK4           100      0       0      13        0.0%
  1541                           ;!BANK4              100      0       0      14        0.0%
  1542                           ;!BITBANK3           100      0       0      10        0.0%
  1543                           ;!BANK3              100      0       0      11        0.0%
  1544                           ;!BITBANK2           100      0       0       8        0.0%
  1545                           ;!BANK2              100      0       0       9        0.0%
  1546                           ;!BITBANK1           100      0       0       6        0.0%
  1547                           ;!BANK1              100      0       0       7        0.0%
  1548                           ;!BITBANK0            A0      0       0       4        0.0%
  1549                           ;!BANK0               A0     18      3A       5       36.3%
  1550                           ;!BITCOMRAM           5E      0       0       0        0.0%
  1551                           ;!COMRAM              5E     52      5C       1       97.9%
  1552                           ;!BITBANK15           38      0       0      35        0.0%
  1553                           ;!BANK15              38      0       0      36        0.0%
  1554                           ;!BITSFR_1             0      0       0     200        0.0%
  1555                           ;!SFR_1                0      0       0     200        0.0%
  1556                           ;!BITSFR               0      0       0     200        0.0%
  1557                           ;!SFR                  0      0       0     200        0.0%
  1558                           ;!STACK                0      0       0       2        0.0%
  1559                           ;!NULL                 0      0       0       0        0.0%
  1560                           ;!ABS                  0      0      96      12        0.0%
  1561                           ;!DATA                 0      0      96       3        0.0%
  1562                           ;!CODE                 0      0       0       0        0.0%
  1563                           
  1564                           	global	_main
  1565                           
  1566 ;; *************** function _main *****************
  1567 ;; Defined at:
  1568 ;;		line 38 in file "main.c"
  1569 ;; Parameters:    Size  Location     Type
  1570 ;;		None
  1571 ;; Auto vars:     Size  Location     Type
  1572 ;;  str            20    0[BANK0 ] unsigned char [20]
  1573 ;;  ms              2   22[BANK0 ] int 
  1574 ;;  f               2   20[BANK0 ] int 
  1575 ;; Return value:  Size  Location     Type
  1576 ;;                  1    wreg      void 
  1577 ;; Registers used:
  1578 ;;		wreg, fsr1l, fsr1h, fsr2l, fsr2h, status,2, status,0, tblptrl, tblptrh, tblptru, prodl, prodh, cstack
  1579 ;; Tracked objects:
  1580 ;;		On entry : 0/0
  1581 ;;		On exit  : 0/0
  1582 ;;		Unchanged: 0/0
  1583 ;; Data sizes:     COMRAM   BANK0   BANK1   BANK2   BANK3   BANK4   BANK5   BANK6   BANK7   BANK8   BANK9  BANK10  BANK1
       1  BANK12  BANK13  BANK14  BANK15
  1584 ;;      Params:         0       0       0       0       0       0       0       0       0       0       0       0       
       0       0       0       0       0
  1585 ;;      Locals:         0      24       0       0       0       0       0       0       0       0       0       0       
       0       0       0       0       0
  1586 ;;      Temps:          1       0       0       0       0       0       0       0       0       0       0       0       
       0       0       0       0       0
  1587 ;;      Totals:         1      24       0       0       0       0       0       0       0       0       0       0       
       0       0       0       0       0
  1588 ;;Total ram usage:       25 bytes
  1589 ;; Hardware stack levels required when called:    6
  1590 ;; This function calls:
  1591 ;;		_Beep
  1592 ;;		_OSCILLATOR_Initialize
  1593 ;;		_TIMER1_Initialize
  1594 ;;		_UART_Initialize
  1595 ;;		_atoi
  1596 ;;		_badineri
  1597 ;;		_printf
  1598 ;;		_read_line
  1599 ;;		_sleep
  1600 ;; This function is called by:
  1601 ;;		Startup code after reset
  1602 ;; This function uses a non-reentrant model
  1603 ;;
  1604                           psect	text0,class=CODE,space=0,reloc=2,group=0
  1605                           	file	"main.c"
  1606                           	line	38
  1607                           global __ptext0
  1608                           __ptext0:
  1609  00583C                     psect	text0
  1610                           	file	"main.c"
  1611                           	line	38
  1612                           	global	__size_of_main
  1613                           	__size_of_main	equ	__end_of_main-_main
  1614  0000                     	
  1615                           _main:
  1616  00583C                     ;incstack = 0
  1617                           	opt	stack 25
  1618                           	line	39
  1619                           	
  1620                           l2366:
  1621  00583C                     ;main.c: 39:         if (str[0] != 0) f = atoi(str);
  1622                           	movlw	high(064h)
  1623  00583C  0E00               	movlb	0	; () banked
  1624  00583E  0100               	movwf	((main@ms+1))&0ffh
  1625  005840  6F99               	movlw	low(064h)
  1626  005842  0E64               	movwf	((main@ms))&0ffh
  1627  005844  6F98               	line	41
  1628                           	
  1629                           l2368:; BSR set to: 0
  1630  005846                     
  1631                           ;main.c: 40:         Beep(f, ms);;main.c: 41:     }
  1632                           	call	_OSCILLATOR_Initialize	;wreg free
  1633  005846  EC9C  F02E         	line	42
  1634                           	
  1635                           l2370:
  1636  00584A                     ;main.c: 42:     return;
  1637                           	call	_UART_Initialize	;wreg free
  1638  00584A  EC75  F02E         	line	43
  1639                           	
  1640                           l2372:
  1641  00584E                     ;main.c: 43: }
  1642                           		movlw	low(STR_1)
  1643  00584E  0E34               	movwf	((c:printf@fmt)),c
  1644  005850  6E1A               	movlw	high(STR_1)
  1645  005852  0E10               	movwf	((c:printf@fmt+1)),c
  1646  005854  6E1B               
  1647                           	call	_printf	;wreg free
  1648  005856  EC47  F02E         	line	44
  1649                           	
  1650                           l2374:
  1651  00585A                     ;main.c: 44: 
  1652                           	call	_TIMER1_Initialize	;wreg free
  1653  00585A  ECCA  F02E         	line	45
  1654                           	
  1655                           l2376:
  1656  00585E                     ;main.c: 45: void OSCILLATOR_Initialize(void) {
  1657                           	bsf	((c:4082)),c,7	;volatile
  1658  00585E  8EF2               	line	46
  1659                           	
  1660                           l2378:
  1661  005860                     ;main.c: 46: 
  1662                           	bsf	((c:4082)),c,6	;volatile
  1663  005860  8CF2               	line	47
  1664                           	
  1665                           l2380:
  1666  005862                     ;main.c: 47:     OSCCONbits.SCS = 0b00;
  1667                           	movlb	15	; () banked
  1668  005862  010F               	bcf	((3896))&0ffh,0	;volatile
  1669  005864  9138               	line	48
  1670                           	
  1671                           l2382:; BSR set to: 15
  1672  005866                     
  1673                           ;main.c: 48:     OSCCONbits.IRCF = 0b111;
  1674                           	bcf	((3896))&0ffh,1	;volatile
  1675  005866  9338               	line	49
  1676                           	
  1677                           l2384:; BSR set to: 15
  1678  005868                     
  1679                           ;main.c: 49:     OSCTUNEbits.PLLEN = 1;
  1680                           	bcf	((c:3986)),c,0	;volatile
  1681  005868  9092               	line	50
  1682                           	
  1683                           l2386:; BSR set to: 15
  1684  00586A                     
  1685                           ;main.c: 50:     while (OSCCONbits.HFIOFS == 0);
  1686                           	bcf	((c:3986)),c,1	;volatile
  1687  00586A  9292               	line	51
  1688                           	
  1689                           l2388:; BSR set to: 15
  1690  00586C                     
  1691                           ;main.c: 51: 
  1692                           	bcf	((c:3977)),c,1	;volatile
  1693  00586C  9289               	line	52
  1694                           	
  1695                           l2390:; BSR set to: 15
  1696  00586E                     
  1697                           ;main.c: 52: 
  1698                           	bcf	((c:3977)),c,0	;volatile
  1699  00586E  9089               	line	53
  1700                           	
  1701                           l2392:; BSR set to: 15
  1702  005870                     
  1703                           ;main.c: 53: }
  1704                           	movlw	high(02BAh)
  1705  005870  0E02               	movwf	((c:Beep@frequency+1)),c
  1706  005872  6E4C               	movlw	low(02BAh)
  1707  005874  0EBA               	movwf	((c:Beep@frequency)),c
  1708  005876  6E4B               	movlw	high(0A9Ah)
  1709  005878  0E0A               	movwf	((c:Beep@duration+1)),c
  1710  00587A  6E4E               	movlw	low(0A9Ah)
  1711  00587C  0E9A               	movwf	((c:Beep@duration)),c
  1712  00587E  6E4D               	call	_Beep	;wreg free
  1713  005880  EC8E  F02B         	line	54
  1714                           	
  1715                           l2394:
  1716  005884                     ;main.c: 54: 
  1717                           	movlw	low(01h)
  1718  005884  0E01               	movlb	0	; () banked
  1719  005886  0100               	movwf	((_on))&0ffh
  1720  005888  6F80               	line	55
  1721                           	
  1722                           l2396:; BSR set to: 0
  1723  00588A                     
  1724                           ;main.c: 55: void TIMER1_Initialize(void) {
  1725                           	movlw	low(0)
  1726  00588A  0E00               	movwf	((_cnt))&0ffh
  1727  00588C  6F81               	line	56
  1728                           	
  1729                           l2398:; BSR set to: 0
  1730  00588E                     
  1731                           ;main.c: 56:     T1CONbits.TMR1ON = 0;
  1732                           	btfsc	((c:3977)),c,1	;volatile
  1733  00588E  B289               	goto	u2281
  1734  005890  EF4C  F02C         	goto	u2280
  1735  005894  EF4F  F02C         u2281:
  1736  005898                     	movlw	1
  1737  005898  0E01               	goto	u2286
  1738  00589A  EF50  F02C         u2280:
  1739  00589E                     	movlw	0
  1740  00589E  0E00               u2286:
  1741  0058A0                     	xorlw	0ffh
  1742  0058A0  0AFF               	movwf	(??_main+0+0)&0ffh,c
  1743  0058A2  6E52               	rlncf	((??_main+0+0)),c
  1744  0058A4  4652               	movf	((c:3977)),c,w	;volatile
  1745  0058A6  5089               	xorwf	((??_main+0+0)),c,w
  1746  0058A8  1852               	andlw	not (((1<<1)-1)<<1)
  1747  0058AA  0BFD               	xorwf	((??_main+0+0)),c,w
  1748  0058AC  1852               	movwf	((c:3977)),c	;volatile
  1749  0058AE  6E89               	line	57
  1750                           	
  1751                           l2400:; BSR set to: 0
  1752  0058B0                     
  1753                           ;main.c: 57:     T1CONbits.TMR1CS = 0;
  1754                           	movlw	high(06B2h)
  1755  0058B0  0E06               	movwf	((c:sleep@ms+1)),c
  1756  0058B2  6E03               	movlw	low(06B2h)
  1757  0058B4  0EB2               	movwf	((c:sleep@ms)),c
  1758  0058B6  6E02               	call	_sleep	;wreg free
  1759  0058B8  ECF0  F02D         	line	58
  1760                           	
  1761                           l2402:
  1762  0058BC                     ;main.c: 58:     T1CONbits.T1RD16 = 1;
  1763                           		movlw	low(STR_2)
  1764  0058BC  0E21               	movwf	((c:printf@fmt)),c
  1765  0058BE  6E1A               	movlw	high(STR_2)
  1766  0058C0  0E10               	movwf	((c:printf@fmt+1)),c
  1767  0058C2  6E1B               
  1768                           	call	_printf	;wreg free
  1769  0058C4  EC47  F02E         	line	59
  1770                           ;main.c: 59:     T1CONbits.T1CKPS = 3;
  1771                           	call	_badineri	;wreg free
  1772  0058C8  EC20  F008         	goto	l2404
  1773  0058CC  EF68  F02C         	line	60
  1774                           ;main.c: 60:     TMR1 = 0x0000;
  1775                           	
  1776                           l73:
  1777  0058D0                     	line	61
  1778                           	
  1779                           l2404:
  1780  0058D0                     ;main.c: 61:     PIR1bits.TMR1IF = 0;
  1781                           		movlw	low(STR_3)
  1782  0058D0  0E01               	movwf	((c:printf@fmt)),c
  1783  0058D2  6E1A               	movlw	high(STR_3)
  1784  0058D4  0E10               	movwf	((c:printf@fmt+1)),c
  1785  0058D6  6E1B               
  1786                           	call	_printf	;wreg free
  1787  0058D8  EC47  F02E         	line	62
  1788                           	
  1789                           l2406:
  1790  0058DC                     ;main.c: 62:     PIE1bits.TMR1IE = 1;
  1791                           		movlw	low(main@str)
  1792  0058DC  0E82               	movwf	((c:read_line@s)),c
  1793  0058DE  6E0E               	movlw	high(main@str)
  1794  0058E0  0E00               	movwf	((c:read_line@s+1)),c
  1795  0058E2  6E0F               
  1796                           	movlw	high(014h)
  1797  0058E4  0E00               	movwf	((c:read_line@max_len+1)),c
  1798  0058E6  6E11               	movlw	low(014h)
  1799  0058E8  0E14               	movwf	((c:read_line@max_len)),c
  1800  0058EA  6E10               	call	_read_line	;wreg free
  1801  0058EC  ECFA  F02A         	line	63
  1802                           	
  1803                           l2408:
  1804  0058F0                     ;main.c: 63: }
  1805                           	movlb	0	; () banked
  1806  0058F0  0100               	movf	((main@str))&0ffh,w
  1807  0058F2  5182               	btfsc	status,2
  1808  0058F4  B4D8               	goto	u2291
  1809  0058F6  EF7F  F02C         	goto	u2290
  1810  0058FA  EF81  F02C         u2291:
  1811  0058FE                     	goto	l2412
  1812  0058FE  EF8D  F02C         u2290:
  1813  005902                     	
  1814                           l2410:; BSR set to: 0
  1815  005902                     
  1816                           		movlw	low(main@str)
  1817  005902  0E82               	movwf	((c:atoi@s)),c
  1818  005904  6E09               	movlw	high(main@str)
  1819  005906  0E00               	movwf	((c:atoi@s+1)),c
  1820  005908  6E0A               
  1821                           	call	_atoi	;wreg free
  1822  00590A  EC5F  F028         	movff	0+?_atoi,(main@f)
  1823  00590E  C009  F096         	movff	1+?_atoi,(main@f+1)
  1824  005912  C00A  F097         	goto	l2412
  1825  005916  EF8D  F02C         	
  1826                           l74:
  1827  00591A                     	line	64
  1828                           	
  1829                           l2412:
  1830  00591A                     ;main.c: 64: 
  1831                           	movff	(main@f),(c:Beep@frequency)
  1832  00591A  C096  F04B         	movff	(main@f+1),(c:Beep@frequency+1)
  1833  00591E  C097  F04C         	movff	(main@ms),(c:Beep@duration)
  1834  005922  C098  F04D         	movff	(main@ms+1),(c:Beep@duration+1)
  1835  005926  C099  F04E         	call	_Beep	;wreg free
  1836  00592A  EC8E  F02B         	goto	l2404
  1837  00592E  EF68  F02C         	line	65
  1838                           ;main.c: 65: void UART_Initialize(void) {
  1839                           	
  1840                           l75:
  1841  005932                     	goto	l2404
  1842  005932  EF68  F02C         	
  1843                           l76:
  1844  005936                     	line	67
  1845                           ;main.c: 66:     ANSELA = 0;
  1846                           	
  1847                           l77:
  1848  005936                     	global	start
  1849                           	goto	start
  1850  005936  EF4E  F000         	opt stack 0
  1851                           GLOBAL	__end_of_main
  1852                           	__end_of_main:
  1853  00593A                     	signat	_main,89
  1854                           	global	_read_line
  1855                           
  1856 ;; *************** function _read_line *****************
  1857 ;; Defined at:
  1858 ;;		line 129 in file "main.c"
  1859 ;; Parameters:    Size  Location     Type
  1860 ;;  s               2   13[COMRAM] PTR unsigned char 
  1861 ;;		 -> main@str(20), 
  1862 ;;  max_len         2   15[COMRAM] int 
  1863 ;; Auto vars:     Size  Location     Type
  1864 ;;  c               1   20[COMRAM] unsigned char 
  1865 ;;  i               2   18[COMRAM] int 
  1866 ;; Return value:  Size  Location     Type
  1867 ;;                  1    wreg      void 
  1868 ;; Registers used:
  1869 ;;		wreg, fsr1l, fsr1h, fsr2l, fsr2h, status,2, status,0, cstack
  1870 ;; Tracked objects:
  1871 ;;		On entry : 0/0
  1872 ;;		On exit  : 0/0
  1873 ;;		Unchanged: 0/0
  1874 ;; Data sizes:     COMRAM   BANK0   BANK1   BANK2   BANK3   BANK4   BANK5   BANK6   BANK7   BANK8   BANK9  BANK10  BANK1
       1  BANK12  BANK13  BANK14  BANK15
  1875 ;;      Params:         4       0       0       0       0       0       0       0       0       0       0       0       
       0       0       0       0       0
  1876 ;;      Locals:         3       0       0       0       0       0       0       0       0       0       0       0       
       0       0       0       0       0
  1877 ;;      Temps:          1       0       0       0       0       0       0       0       0       0       0       0       
       0       0       0       0       0
  1878 ;;      Totals:         8       0       0       0       0       0       0       0       0       0       0       0       
       0       0       0       0       0
  1879 ;;Total ram usage:        8 bytes
  1880 ;; Hardware stack levels used:    1
  1881 ;; Hardware stack levels required when called:    4
  1882 ;; This function calls:
  1883 ;;		_putchar
  1884 ;;		_read_char
  1885 ;; This function is called by:
  1886 ;;		_main
  1887 ;; This function uses a non-reentrant model
  1888 ;;
  1889                           psect	text1,class=CODE,space=0,reloc=2,group=0
  1890                           	line	129
  1891                           global __ptext1
  1892                           __ptext1:
  1893  0055F4                     psect	text1
  1894                           	file	"main.c"
  1895                           	line	129
  1896                           	global	__size_of_read_line
  1897                           	__size_of_read_line	equ	__end_of_read_line-_read_line
  1898  0000                     	
  1899                           _read_line:
  1900  0055F4                     ;incstack = 0
  1901                           	opt	stack 26
  1902                           	line	130
  1903                           	
  1904                           l2290:
  1905  0055F4                     ;main.c: 130: 
  1906                           	movlw	high(0)
  1907  0055F4  0E00               	movwf	((c:read_line@i+1)),c
  1908  0055F6  6E14               	movlw	low(0)
  1909  0055F8  0E00               	movwf	((c:read_line@i)),c
  1910  0055FA  6E13               	goto	l2292
  1911  0055FC  EF00  F02B         	line	131
  1912                           ;main.c: 131: void Beep(uint16_t frequency, uint16_t duration) {
  1913                           	
  1914                           l105:
  1915  005600                     	line	132
  1916                           	
  1917                           l2292:
  1918  005600                     ;main.c: 132:     int i;
  1919                           	call	_read_char	;wreg free
  1920  005600  EC2C  F02E         	movwf	((c:read_line@c)),c
  1921  005604  6E15               	line	133
  1922                           	
  1923                           l2294:
  1924  005606                     ;main.c: 133:     frequency = (uint16_t)((double)frequency / 4);
  1925                           		movlw	13
  1926  005606  0E0D               	xorwf	((c:read_line@c)),c,w
  1927  005608  1815               	btfss	status,2
  1928  00560A  A4D8               	goto	u2151
  1929  00560C  EF0A  F02B         	goto	u2150
  1930  005610  EF0C  F02B         
  1931                           u2151:
  1932  005614                     	goto	l2304
  1933  005614  EF25  F02B         u2150:
  1934  005618                     	line	134
  1935                           	
  1936                           l2296:
  1937  005618                     ;main.c: 134:     offset = (uint16_t) ((double) 65535 - ((double) 1000000 / (double) fre
                                 quency));
  1938                           	movff	(c:read_line@c),(c:putchar@c)
  1939  005618  C015  F00C         	clrf	((c:putchar@c+1)),c
  1940  00561C  6A0D               	call	_putchar	;wreg free
  1941  00561E  ECBD  F02E         	line	135
  1942                           ;main.c: 135:     TMR1 = offset;
  1943                           	movlw	high(0Ah)
  1944  005622  0E00               	movwf	((c:putchar@c+1)),c
  1945  005624  6E0D               	movlw	low(0Ah)
  1946  005626  0E0A               	movwf	((c:putchar@c)),c
  1947  005628  6E0C               	call	_putchar	;wreg free
  1948  00562A  ECBD  F02E         	line	136
  1949                           	
  1950                           l2298:
  1951  00562E                     ;main.c: 136:     T1CONbits.TMR1ON = 1;
  1952                           	movf	((c:read_line@i)),c,w
  1953  00562E  5013               	addwf	((c:read_line@s)),c,w
  1954  005630  240E               	movwf	c:fsr2l
  1955  005632  6ED9               	movf	((c:read_line@i+1)),c,w
  1956  005634  5014               	addwfc	((c:read_line@s+1)),c,w
  1957  005636  200F               	movwf	1+c:fsr2l
  1958  005638  6EDA               	movlw	low(0)
  1959  00563A  0E00               	movwf	indf2
  1960  00563C  6EDF               	goto	l107
  1961  00563E  EF8D  F02B         	line	137
  1962                           	
  1963                           l2300:
  1964  005642                     ;main.c: 137:     for (i = 0; i < duration; i++) {
  1965                           	goto	l107
  1966  005642  EF8D  F02B         	line	138
  1967                           	
  1968                           l2302:
  1969  005646                     ;main.c: 138:         _delay((unsigned long)((1)*(64000000/4000.0)));
  1970                           	goto	l2292
  1971  005646  EF00  F02B         	
  1972                           l106:
  1973  00564A                     	
  1974                           l2304:
  1975  00564A                     		movlw	127
  1976  00564A  0E7F               	xorwf	((c:read_line@c)),c,w
  1977  00564C  1815               	btfsc	status,2
  1978  00564E  B4D8               	goto	u2161
  1979  005650  EF2C  F02B         	goto	u2160
  1980  005654  EF2E  F02B         
  1981                           u2161:
  1982  005658                     	goto	l2308
  1983  005658  EF39  F02B         u2160:
  1984  00565C                     	
  1985                           l2306:
  1986  00565C                     		movlw	8
  1987  00565C  0E08               	xorwf	((c:read_line@c)),c,w
  1988  00565E  1815               	btfss	status,2
  1989  005660  A4D8               	goto	u2171
  1990  005662  EF35  F02B         	goto	u2170
  1991  005666  EF37  F02B         
  1992                           u2171:
  1993  00566A                     	goto	l2314
  1994  00566A  EF5D  F02B         u2170:
  1995  00566E                     	goto	l2308
  1996  00566E  EF39  F02B         	
  1997                           l111:
  1998  005672                     	line	139
  1999                           	
  2000                           l2308:
  2001  005672                     ;main.c: 139:     }
  2002                           	btfsc	((c:read_line@i+1)),c,7
  2003  005672  BE14               	goto	u2181
  2004  005674  EF44  F02B         	movf	((c:read_line@i+1)),c,w
  2005  005678  5014               	bnz	u2180
  2006  00567A  E108               	decf	((c:read_line@i)),c,w
  2007  00567C  0413               	btfss	status,0
  2008  00567E  A0D8               	goto	u2181
  2009  005680  EF44  F02B         	goto	u2180
  2010  005684  EF46  F02B         
  2011                           u2181:
  2012  005688                     	goto	l2292
  2013  005688  EF00  F02B         u2180:
  2014  00568C                     	line	140
  2015                           	
  2016                           l2310:
  2017  00568C                     ;main.c: 140:     T1CONbits.TMR1ON = 0;
  2018                           	movff	(c:read_line@c),(c:putchar@c)
  2019  00568C  C015  F00C         	clrf	((c:putchar@c+1)),c
  2020  005690  6A0D               	call	_putchar	;wreg free
  2021  005692  ECBD  F02E         	line	141
  2022                           ;main.c: 141: }
  2023                           	movlw	high(020h)
  2024  005696  0E00               	movwf	((c:putchar@c+1)),c
  2025  005698  6E0D               	movlw	low(020h)
  2026  00569A  0E20               	movwf	((c:putchar@c)),c
  2027  00569C  6E0C               	call	_putchar	;wreg free
  2028  00569E  ECBD  F02E         	line	142
  2029                           ;main.c: 142: 
  2030                           	movff	(c:read_line@c),(c:putchar@c)
  2031  0056A2  C015  F00C         	clrf	((c:putchar@c+1)),c
  2032  0056A6  6A0D               	call	_putchar	;wreg free
  2033  0056A8  ECBD  F02E         	line	143
  2034                           	
  2035                           l2312:
  2036  0056AC                     ;main.c: 143: void sleep(uint16_t ms) {
  2037                           	decf	((c:read_line@i)),c
  2038  0056AC  0613               	btfss	status,0
  2039  0056AE  A0D8               	decf	((c:read_line@i+1)),c
  2040  0056B0  0614               	goto	l2292
  2041  0056B2  EF00  F02B         	line	144
  2042                           ;main.c: 144:     int i;
  2043                           	
  2044                           l112:
  2045  0056B6                     	line	145
  2046                           ;main.c: 145:     for (i = 0; i < ms; i++) {
  2047                           	goto	l2292
  2048  0056B6  EF00  F02B         	
  2049                           l109:
  2050  0056BA                     	
  2051                           l2314:
  2052  0056BA                     		movlw	020h-1
  2053  0056BA  0E1F               	cpfsgt	((c:read_line@c)),c
  2054  0056BC  6415               	goto	u2191
  2055  0056BE  EF63  F02B         	goto	u2190
  2056  0056C2  EF65  F02B         
  2057                           u2191:
  2058  0056C6                     	goto	l2292
  2059  0056C6  EF00  F02B         u2190:
  2060  0056CA                     	line	146
  2061                           	
  2062                           l2316:
  2063  0056CA                     ;main.c: 146:         _delay((unsigned long)((1)*(64000000/4000.0)));
  2064                           		movf	((c:read_line@max_len)),c,w
  2065  0056CA  5010               	subwf	((c:read_line@i)),c,w
  2066  0056CC  5C13               	movf	((c:read_line@i+1)),c,w
  2067  0056CE  5014               	xorlw	80h
  2068  0056D0  0A80               	movwf	(??_read_line+0+0)&0ffh,c
  2069  0056D2  6E12               	movf	((c:read_line@max_len+1)),c,w
  2070  0056D4  5011               	xorlw	80h
  2071  0056D6  0A80               	subwfb	(??_read_line+0+0)&0ffh,c,w
  2072  0056D8  5812               	btfsc	status,0
  2073  0056DA  B0D8               	goto	u2201
  2074  0056DC  EF72  F02B         	goto	u2200
  2075  0056E0  EF74  F02B         
  2076                           u2201:
  2077  0056E4                     	goto	l2292
  2078  0056E4  EF00  F02B         u2200:
  2079  0056E8                     	line	147
  2080                           	
  2081                           l2318:
  2082  0056E8                     ;main.c: 147:     }
  2083                           	movff	(c:read_line@c),(c:putchar@c)
  2084  0056E8  C015  F00C         	clrf	((c:putchar@c+1)),c
  2085  0056EC  6A0D               	call	_putchar	;wreg free
  2086  0056EE  ECBD  F02E         	line	148
  2087                           	
  2088                           l2320:
  2089  0056F2                     ;main.c: 148: }
  2090                           	movf	((c:read_line@i)),c,w
  2091  0056F2  5013               	addwf	((c:read_line@s)),c,w
  2092  0056F4  240E               	movwf	c:fsr2l
  2093  0056F6  6ED9               	movf	((c:read_line@i+1)),c,w
  2094  0056F8  5014               	addwfc	((c:read_line@s+1)),c,w
  2095  0056FA  200F               	movwf	1+c:fsr2l
  2096  0056FC  6EDA               	movff	(c:read_line@c),indf2
  2097  0056FE  C015  FFDF         
  2098                           	line	149
  2099                           	
  2100                           l2322:
  2101  005702                     ;main.c: 149: 
  2102                           	infsnz	((c:read_line@i)),c
  2103  005702  4A13               	incf	((c:read_line@i+1)),c
  2104  005704  2A14               	goto	l2292
  2105  005706  EF00  F02B         	line	150
  2106                           ;main.c: 150: void __attribute__((picinterrupt(""))) ISR(void) {
  2107                           	
  2108                           l115:
  2109  00570A                     	goto	l2292
  2110  00570A  EF00  F02B         	line	151
  2111                           ;main.c: 151:     if (PIR1bits.TMR1IF) {
  2112                           	
  2113                           l114:
  2114  00570E                     	goto	l2292
  2115  00570E  EF00  F02B         	
  2116                           l113:
  2117  005712                     	goto	l2292
  2118  005712  EF00  F02B         	
  2119                           l108:
  2120  005716                     	line	152
  2121                           ;main.c: 152:         TMR1 = offset;
  2122                           	goto	l2292
  2123  005716  EF00  F02B         	
  2124                           l116:
  2125  00571A                     	line	153
  2126                           	
  2127                           l107:
  2128  00571A                     	return	;funcret
  2129  00571A  0012               	opt stack 0
  2130                           GLOBAL	__end_of_read_line
  2131                           	__end_of_read_line:
  2132  00571C                     	signat	_read_line,8313
  2133                           	global	_read_char
  2134                           
  2135 ;; *************** function _read_char *****************
  2136 ;; Defined at:
  2137 ;;		line 118 in file "main.c"
  2138 ;; Parameters:    Size  Location     Type
  2139 ;;		None
  2140 ;; Auto vars:     Size  Location     Type
  2141 ;;		None
  2142 ;; Return value:  Size  Location     Type
  2143 ;;                  1    wreg      unsigned char 
  2144 ;; Registers used:
  2145 ;;		wreg, status,2
  2146 ;; Tracked objects:
  2147 ;;		On entry : 0/0
  2148 ;;		On exit  : 0/0
  2149 ;;		Unchanged: 0/0
  2150 ;; Data sizes:     COMRAM   BANK0   BANK1   BANK2   BANK3   BANK4   BANK5   BANK6   BANK7   BANK8   BANK9  BANK10  BANK1
       1  BANK12  BANK13  BANK14  BANK15
  2151 ;;      Params:         0       0       0       0       0       0       0       0       0       0       0       0       
       0       0       0       0       0
  2152 ;;      Locals:         0       0       0       0       0       0       0       0       0       0       0       0       
       0       0       0       0       0
  2153 ;;      Temps:          0       0       0       0       0       0       0       0       0       0       0       0       
       0       0       0       0       0
  2154 ;;      Totals:         0       0       0       0       0       0       0       0       0       0       0       0       
       0       0       0       0       0
  2155 ;;Total ram usage:        0 bytes
  2156 ;; Hardware stack levels used:    1
  2157 ;; Hardware stack levels required when called:    1
  2158 ;; This function calls:
  2159 ;;		Nothing
  2160 ;; This function is called by:
  2161 ;;		_read_line
  2162 ;; This function uses a non-reentrant model
  2163 ;;
  2164                           psect	text2,class=CODE,space=0,reloc=2,group=0
  2165                           	line	118
  2166                           global __ptext2
  2167                           __ptext2:
  2168  005C58                     psect	text2
  2169                           	file	"main.c"
  2170                           	line	118
  2171                           	global	__size_of_read_char
  2172                           	__size_of_read_char	equ	__end_of_read_char-_read_char
  2173  0000                     	
  2174                           _read_char:
  2175  005C58                     ;incstack = 0
  2176                           	opt	stack 28
  2177                           	line	119
  2178                           	
  2179                           l2202:
  2180  005C58                     ;main.c: 119:                 --i;
  2181                           	goto	l98
  2182  005C58  EF3A  F02E         	
  2183                           l99:
  2184  005C5C                     	line	120
  2185                           ;main.c: 120:             }
  2186                           	btfss	((c:4011)),c,1	;volatile
  2187  005C5C  A2AB               	goto	u2071
  2188  005C5E  EF33  F02E         	goto	u2070
  2189  005C62  EF35  F02E         u2071:
  2190  005C66                     	goto	l98
  2191  005C66  EF3A  F02E         u2070:
  2192  005C6A                     	line	121
  2193                           	
  2194                           l2204:
  2195  005C6A                     ;main.c: 121:         } else if (c >= 32) {
  2196                           	bcf	((c:4011)),c,1	;volatile
  2197  005C6A  92AB               	line	122
  2198                           ;main.c: 122:             if (i < max_len) {
  2199                           	bcf	((c:4011)),c,4	;volatile
  2200  005C6C  98AB               	line	123
  2201                           ;main.c: 123:                 putchar(c);
  2202                           	bsf	((c:4011)),c,4	;volatile
  2203  005C6E  88AB               	goto	l98
  2204  005C70  EF3A  F02E         	line	124
  2205                           ;main.c: 124:                 s[i] = c;
  2206                           	
  2207                           l100:
  2208  005C74                     	line	125
  2209                           ;main.c: 125:                 ++i;
  2210                           	
  2211                           l98:
  2212  005C74                     	line	119
  2213                           ;main.c: 119:                 --i;
  2214                           	btfss	((c:3998)),c,5	;volatile
  2215  005C74  AA9E               	goto	u2081
  2216  005C76  EF3F  F02E         	goto	u2080
  2217  005C7A  EF41  F02E         u2081:
  2218  005C7E                     	goto	l99
  2219  005C7E  EF2E  F02E         u2080:
  2220  005C82                     	goto	l2206
  2221  005C82  EF43  F02E         	
  2222                           l101:
  2223  005C86                     	line	126
  2224                           	
  2225                           l2206:
  2226  005C86                     ;main.c: 126:             }
  2227                           	movf	((c:4014)),c,w	;volatile
  2228  005C86  50AE               	goto	l102
  2229  005C88  EF46  F02E         	
  2230                           l2208:
  2231  005C8C                     	line	127
  2232                           	
  2233                           l102:
  2234  005C8C                     	return	;funcret
  2235  005C8C  0012               	opt stack 0
  2236                           GLOBAL	__end_of_read_char
  2237                           	__end_of_read_char:
  2238  005C8E                     	signat	_read_char,89
  2239                           	global	_putchar
  2240                           
  2241 ;; *************** function _putchar *****************
  2242 ;; Defined at:
  2243 ;;		line 4 in file "C:\Program Files (x86)\Microchip\xc8\v2.00\pic\sources\c99\common\putchar.c"
  2244 ;; Parameters:    Size  Location     Type
  2245 ;;  c               2   11[COMRAM] int 
  2246 ;; Auto vars:     Size  Location     Type
  2247 ;;		None
  2248 ;; Return value:  Size  Location     Type
  2249 ;;                  2   11[COMRAM] int 
  2250 ;; Registers used:
  2251 ;;		wreg, fsr1l, fsr1h, fsr2l, fsr2h, status,2, status,0, cstack
  2252 ;; Tracked objects:
  2253 ;;		On entry : 0/0
  2254 ;;		On exit  : 0/0
  2255 ;;		Unchanged: 0/0
  2256 ;; Data sizes:     COMRAM   BANK0   BANK1   BANK2   BANK3   BANK4   BANK5   BANK6   BANK7   BANK8   BANK9  BANK10  BANK1
       1  BANK12  BANK13  BANK14  BANK15
  2257 ;;      Params:         2       0       0       0       0       0       0       0       0       0       0       0       
       0       0       0       0       0
  2258 ;;      Locals:         0       0       0       0       0       0       0       0       0       0       0       0       
       0       0       0       0       0
  2259 ;;      Temps:          0       0       0       0       0       0       0       0       0       0       0       0       
       0       0       0       0       0
  2260 ;;      Totals:         2       0       0       0       0       0       0       0       0       0       0       0       
       0       0       0       0       0
  2261 ;;Total ram usage:        2 bytes
  2262 ;; Hardware stack levels used:    1
  2263 ;; Hardware stack levels required when called:    3
  2264 ;; This function calls:
  2265 ;;		_fputc
  2266 ;; This function is called by:
  2267 ;;		_read_line
  2268 ;; This function uses a non-reentrant model
  2269 ;;
  2270                           psect	text3,class=CODE,space=0,reloc=2,group=2
  2271                           	file	"C:\Program Files (x86)\Microchip\xc8\v2.00\pic\sources\c99\common\putchar.c"
  2272                           	line	4
  2273                           global __ptext3
  2274                           __ptext3:
  2275  005D7A                     psect	text3
  2276                           	file	"C:\Program Files (x86)\Microchip\xc8\v2.00\pic\sources\c99\common\putchar.c"
  2277                           	line	4
  2278                           	global	__size_of_putchar
  2279                           	__size_of_putchar	equ	__end_of_putchar-_putchar
  2280  0000                     	
  2281                           _putchar:
  2282  005D7A                     ;incstack = 0
  2283                           	opt	stack 26
  2284                           	line	6
  2285                           	
  2286                           l2210:
  2287  005D7A                     ;	Return value of _putchar is never used
  2288                           	movff	(c:putchar@c),(c:fputc@c)
  2289  005D7A  C00C  F003         	movff	(c:putchar@c+1),(c:fputc@c+1)
  2290  005D7E  C00D  F004         		movlw	low(0)
  2291  005D82  0E00               	movwf	((c:fputc@fp)),c
  2292  005D84  6E05               	movlw	high(0)
  2293  005D86  0E00               	movwf	((c:fputc@fp+1)),c
  2294  005D88  6E06               
  2295                           	call	_fputc	;wreg free
  2296  005D8A  EC1A  F02D         	goto	l928
  2297  005D8E  EFC9  F02E         	
  2298                           l2212:
  2299  005D92                     	line	7
  2300                           	
  2301                           l928:
  2302  005D92                     	return	;funcret
  2303  005D92  0012               	opt stack 0
  2304                           GLOBAL	__end_of_putchar
  2305                           	__end_of_putchar:
  2306  005D94                     	signat	_putchar,4218
  2307                           	global	_printf
  2308                           
  2309 ;; *************** function _printf *****************
  2310 ;; Defined at:
  2311 ;;		line 5 in file "C:\Program Files (x86)\Microchip\xc8\v2.00\pic\sources\c99\common\printf.c"
  2312 ;; Parameters:    Size  Location     Type
  2313 ;;  fmt             2   25[COMRAM] PTR const unsigned char 
  2314 ;;		 -> STR_3(32), STR_2(19), STR_1(10), 
  2315 ;; Auto vars:     Size  Location     Type
  2316 ;;  ap              2   29[COMRAM] PTR void [1]
  2317 ;;		 -> ?_printf(2), 
  2318 ;;  ret             2   27[COMRAM] int 
  2319 ;; Return value:  Size  Location     Type
  2320 ;;                  2   25[COMRAM] int 
  2321 ;; Registers used:
  2322 ;;		wreg, fsr1l, fsr1h, fsr2l, fsr2h, status,2, status,0, tblptrl, tblptrh, tblptru, cstack
  2323 ;; Tracked objects:
  2324 ;;		On entry : 0/0
  2325 ;;		On exit  : 0/0
  2326 ;;		Unchanged: 0/0
  2327 ;; Data sizes:     COMRAM   BANK0   BANK1   BANK2   BANK3   BANK4   BANK5   BANK6   BANK7   BANK8   BANK9  BANK10  BANK1
       1  BANK12  BANK13  BANK14  BANK15
  2328 ;;      Params:         2       0       0       0       0       0       0       0       0       0       0       0       
       0       0       0       0       0
  2329 ;;      Locals:         4       0       0       0       0       0       0       0       0       0       0       0       
       0       0       0       0       0
  2330 ;;      Temps:          0       0       0       0       0       0       0       0       0       0       0       0       
       0       0       0       0       0
  2331 ;;      Totals:         6       0       0       0       0       0       0       0       0       0       0       0       
       0       0       0       0       0
  2332 ;;Total ram usage:        6 bytes
  2333 ;; Hardware stack levels used:    1
  2334 ;; Hardware stack levels required when called:    5
  2335 ;; This function calls:
  2336 ;;		_vfprintf
  2337 ;; This function is called by:
  2338 ;;		_main
  2339 ;; This function uses a non-reentrant model
  2340 ;;
  2341                           psect	text4,class=CODE,space=0,reloc=2,group=2
  2342                           	file	"C:\Program Files (x86)\Microchip\xc8\v2.00\pic\sources\c99\common\printf.c"
  2343                           	line	5
  2344                           global __ptext4
  2345                           __ptext4:
  2346  005C8E                     psect	text4
  2347                           	file	"C:\Program Files (x86)\Microchip\xc8\v2.00\pic\sources\c99\common\printf.c"
  2348                           	line	5
  2349                           	global	__size_of_printf
  2350                           	__size_of_printf	equ	__end_of_printf-_printf
  2351  0000                     	
  2352                           _printf:
  2353  005C8E                     ;incstack = 0
  2354                           	opt	stack 25
  2355                           	line	9
  2356                           	
  2357                           l2272:
  2358  005C8E                     		movlw	low(?_printf+02h)
  2359  005C8E  0E1C               	movwf	((c:printf@ap)),c
  2360  005C90  6E1E               	movlw	high(?_printf+02h)
  2361  005C92  0E00               	movwf	((c:printf@ap+1)),c
  2362  005C94  6E1F               
  2363                           	line	10
  2364                           	
  2365                           l2274:
  2366  005C96                     		movlw	low(0)
  2367  005C96  0E00               	movwf	((c:vfprintf@fp)),c
  2368  005C98  6E12               	movlw	high(0)
  2369  005C9A  0E00               	movwf	((c:vfprintf@fp+1)),c
  2370  005C9C  6E13               
  2371                           		movff	(c:printf@fmt),(c:vfprintf@fmt)
  2372  005C9E  C01A  F014         	movff	(c:printf@fmt+1),(c:vfprintf@fmt+1)
  2373  005CA2  C01B  F015         
  2374                           		movlw	low(printf@ap)
  2375  005CA6  0E1E               	movwf	((c:vfprintf@ap)),c
  2376  005CA8  6E16               	movlw	high(printf@ap)
  2377  005CAA  0E00               	movwf	((c:vfprintf@ap+1)),c
  2378  005CAC  6E17               
  2379                           	call	_vfprintf	;wreg free
  2380  005CAE  EC72  F02D         	movff	0+?_vfprintf,(c:printf@ret)
  2381  005CB2  C012  F01C         	movff	1+?_vfprintf,(c:printf@ret+1)
  2382  005CB6  C013  F01D         	goto	l923
  2383  005CBA  EF5F  F02E         	line	12
  2384                           	
  2385                           l2276:
  2386  005CBE                     	line	13
  2387                           ;	Return value of _printf is never used
  2388                           	
  2389                           l923:
  2390  005CBE                     	return	;funcret
  2391  005CBE  0012               	opt stack 0
  2392                           GLOBAL	__end_of_printf
  2393                           	__end_of_printf:
  2394  005CC0                     	signat	_printf,602
  2395                           	global	_vfprintf
  2396                           
  2397 ;; *************** function _vfprintf *****************
  2398 ;; Defined at:
  2399 ;;		line 1368 in file "C:\Program Files (x86)\Microchip\xc8\v2.00\pic\sources\c99\common\doprnt.c"
  2400 ;; Parameters:    Size  Location     Type
  2401 ;;  fp              2   17[COMRAM] PTR struct _IO_FILE
  2402 ;;		 -> NULL(0), 
  2403 ;;  fmt             2   19[COMRAM] PTR const unsigned char 
  2404 ;;		 -> STR_3(32), STR_2(19), STR_1(10), 
  2405 ;;  ap              2   21[COMRAM] PTR PTR void 
  2406 ;;		 -> printf@ap(2), 
  2407 ;; Auto vars:     Size  Location     Type
  2408 ;;  cfmt            2   23[COMRAM] PTR unsigned char 
  2409 ;;		 -> STR_3(32), STR_2(19), STR_1(10), 
  2410 ;; Return value:  Size  Location     Type
  2411 ;;                  2   17[COMRAM] int 
  2412 ;; Registers used:
  2413 ;;		wreg, fsr1l, fsr1h, fsr2l, fsr2h, status,2, status,0, tblptrl, tblptrh, tblptru, cstack
  2414 ;; Tracked objects:
  2415 ;;		On entry : 0/0
  2416 ;;		On exit  : 0/0
  2417 ;;		Unchanged: 0/0
  2418 ;; Data sizes:     COMRAM   BANK0   BANK1   BANK2   BANK3   BANK4   BANK5   BANK6   BANK7   BANK8   BANK9  BANK10  BANK1
       1  BANK12  BANK13  BANK14  BANK15
  2419 ;;      Params:         6       0       0       0       0       0       0       0       0       0       0       0       
       0       0       0       0       0
  2420 ;;      Locals:         2       0       0       0       0       0       0       0       0       0       0       0       
       0       0       0       0       0
  2421 ;;      Temps:          0       0       0       0       0       0       0       0       0       0       0       0       
       0       0       0       0       0
  2422 ;;      Totals:         8       0       0       0       0       0       0       0       0       0       0       0       
       0       0       0       0       0
  2423 ;;Total ram usage:        8 bytes
  2424 ;; Hardware stack levels used:    1
  2425 ;; Hardware stack levels required when called:    4
  2426 ;; This function calls:
  2427 ;;		_vfpfcnvrt
  2428 ;; This function is called by:
  2429 ;;		_printf
  2430 ;; This function uses a non-reentrant model
  2431 ;;
  2432                           psect	text5,class=CODE,space=0,reloc=2,group=0
  2433                           	file	"C:\Program Files (x86)\Microchip\xc8\v2.00\pic\sources\c99\common\doprnt.c"
  2434                           	line	1368
  2435                           global __ptext5
  2436                           __ptext5:
  2437  005AE4                     psect	text5
  2438                           	file	"C:\Program Files (x86)\Microchip\xc8\v2.00\pic\sources\c99\common\doprnt.c"
  2439                           	line	1368
  2440                           	global	__size_of_vfprintf
  2441                           	__size_of_vfprintf	equ	__end_of_vfprintf-_vfprintf
  2442  0000                     	
  2443                           _vfprintf:
  2444  005AE4                     ;incstack = 0
  2445                           	opt	stack 25
  2446                           	line	1373
  2447                           	
  2448                           l2214:
  2449  005AE4                     ;C:\Program Files (x86)\Microchip\xc8\v2.00\pic\sources\c99\common\doprnt.c: 1368: int v
                                 fprintf(FILE *fp, const char *fmt, va_list ap);C:\Program Files (x86)\Microchip\xc8\v2.0
                                 0\pic\sources\c99\common\doprnt.c: 1369: {;C:\Program Files (x86)\Microchip\xc8\v2.00\pi
                                 c\sources\c99\common\doprnt.c: 1371:     char *cfmt;;C:\Program Files (x86)\Microchip\xc
                                 8\v2.00\pic\sources\c99\common\doprnt.c: 1373:     cfmt = (char *)fmt;
  2450                           		movff	(c:vfprintf@fmt),(c:vfprintf@cfmt)
  2451  005AE4  C014  F018         	movff	(c:vfprintf@fmt+1),(c:vfprintf@cfmt+1)
  2452  005AE8  C015  F019         
  2453                           	line	1374
  2454                           	
  2455                           l2216:
  2456  005AEC                     ;C:\Program Files (x86)\Microchip\xc8\v2.00\pic\sources\c99\common\doprnt.c: 1374:     n
                                 out = 0;
  2457                           	movlw	high(0)
  2458  005AEC  0E00               	movwf	((c:_nout+1)),c
  2459  005AEE  6E54               	movlw	low(0)
  2460  005AF0  0E00               	movwf	((c:_nout)),c
  2461  005AF2  6E53               	line	1375
  2462                           ;C:\Program Files (x86)\Microchip\xc8\v2.00\pic\sources\c99\common\doprnt.c: 1375:     w
                                 hile (*cfmt) {
  2463                           	goto	l2220
  2464  005AF4  EF90  F02D         	
  2465                           l175:
  2466  005AF8                     	line	1376
  2467                           	
  2468                           l2218:
  2469  005AF8                     ;C:\Program Files (x86)\Microchip\xc8\v2.00\pic\sources\c99\common\doprnt.c: 1376:      
                                    nout += vfpfcnvrt(fp, &cfmt, ap);
  2470                           		movff	(c:vfprintf@fp),(c:vfpfcnvrt@fp)
  2471  005AF8  C012  F00C         	movff	(c:vfprintf@fp+1),(c:vfpfcnvrt@fp+1)
  2472  005AFC  C013  F00D         
  2473                           		movlw	low(vfprintf@cfmt)
  2474  005B00  0E18               	movwf	((c:vfpfcnvrt@fmt)),c
  2475  005B02  6E0E               	movlw	high(vfprintf@cfmt)
  2476  005B04  0E00               	movwf	((c:vfpfcnvrt@fmt+1)),c
  2477  005B06  6E0F               
  2478                           		movff	(c:vfprintf@ap),(c:vfpfcnvrt@ap)
  2479  005B08  C016  F010         	movff	(c:vfprintf@ap+1),(c:vfpfcnvrt@ap+1)
  2480  005B0C  C017  F011         
  2481                           	call	_vfpfcnvrt	;wreg free
  2482  005B10  EC9D  F02C         	movf	(0+?_vfpfcnvrt),c,w
  2483  005B14  500C               	addwf	((c:_nout)),c
  2484  005B16  2653               	movf	(1+?_vfpfcnvrt),c,w
  2485  005B18  500D               	addwfc	((c:_nout+1)),c
  2486  005B1A  2254               
  2487                           	goto	l2220
  2488  005B1C  EF90  F02D         	line	1377
  2489                           ;C:\Program Files (x86)\Microchip\xc8\v2.00\pic\sources\c99\common\doprnt.c: 1377:     }
                                 
  2490                           	
  2491                           l174:
  2492  005B20                     	line	1375
  2493                           	
  2494                           l2220:
  2495  005B20                     ;C:\Program Files (x86)\Microchip\xc8\v2.00\pic\sources\c99\common\doprnt.c: 1375:     w
                                 hile (*cfmt) {
  2496                           	movff	(c:vfprintf@cfmt),tblptrl
  2497  005B20  C018  FFF6         	movff	(c:vfprintf@cfmt+1),tblptrh
  2498  005B24  C019  FFF7         	if	0	;tblptru may be non-zero
  2499  005B28                     	clrf	tblptru
  2501  005B28                     	if	0	;tblptru may be non-zero
  2502  005B28                     	global __mediumconst
  2503                           movlw	low highword(__mediumconst)
  2506  005B28                     	tblrd	*
  2507  005B28  0008               	
  2508                           	movf	tablat,w
  2509  005B2A  50F5               	iorlw	0
  2510  005B2C  0900               	btfss	status,2
  2511  005B2E  A4D8               	goto	u2091
  2512  005B30  EF9C  F02D         	goto	u2090
  2513  005B34  EF9E  F02D         u2091:
  2514  005B38                     	goto	l2218
  2515  005B38  EF7C  F02D         u2090:
  2516  005B3C                     	
  2517                           l176:
  2518  005B3C                     	line	1378
  2519                           ;C:\Program Files (x86)\Microchip\xc8\v2.00\pic\sources\c99\common\doprnt.c: 1378:     r
                                 eturn nout;
  2520                           	movff	(c:_nout),(c:?_vfprintf)
  2521  005B3C  C053  F012         	movff	(c:_nout+1),(c:?_vfprintf+1)
  2522  005B40  C054  F013         	line	1382
  2523                           	
  2524                           l177:
  2525  005B44                     	return	;funcret
  2526  005B44  0012               	opt stack 0
  2527                           GLOBAL	__end_of_vfprintf
  2528                           	__end_of_vfprintf:
  2529  005B46                     	signat	_vfprintf,12410
  2530                           	global	_vfpfcnvrt
  2531                           
  2532 ;; *************** function _vfpfcnvrt *****************
  2533 ;; Defined at:
  2534 ;;		line 670 in file "C:\Program Files (x86)\Microchip\xc8\v2.00\pic\sources\c99\common\doprnt.c"
  2535 ;; Parameters:    Size  Location     Type
  2536 ;;  fp              2   11[COMRAM] PTR struct _IO_FILE
  2537 ;;		 -> NULL(0), 
  2538 ;;  fmt             2   13[COMRAM] PTR PTR unsigned char 
  2539 ;;		 -> vfprintf@cfmt(2), 
  2540 ;;  ap              2   15[COMRAM] PTR PTR void 
  2541 ;;		 -> printf@ap(2), 
  2542 ;; Auto vars:     Size  Location     Type
  2543 ;;  llu             8    0        unsigned long long 
  2544 ;;  ll              8    0        long long 
  2545 ;;  f               4    0        long long 
  2546 ;;  vp              3    0        PTR void 
  2547 ;;  ct              3    0        unsigned char [3]
  2548 ;;  cp              3    0        PTR unsigned char 
  2549 ;;  i               2    0        int 
  2550 ;;  done            2    0        int 
  2551 ;;  c               1    0        unsigned char 
  2552 ;; Return value:  Size  Location     Type
  2553 ;;                  2   11[COMRAM] int 
  2554 ;; Registers used:
  2555 ;;		wreg, fsr1l, fsr1h, fsr2l, fsr2h, status,2, status,0, tblptrl, tblptrh, tblptru, cstack
  2556 ;; Tracked objects:
  2557 ;;		On entry : 0/0
  2558 ;;		On exit  : 0/0
  2559 ;;		Unchanged: 0/0
  2560 ;; Data sizes:     COMRAM   BANK0   BANK1   BANK2   BANK3   BANK4   BANK5   BANK6   BANK7   BANK8   BANK9  BANK10  BANK1
       1  BANK12  BANK13  BANK14  BANK15
  2561 ;;      Params:         6       0       0       0       0       0       0       0       0       0       0       0       
       0       0       0       0       0
  2562 ;;      Locals:         0       0       0       0       0       0       0       0       0       0       0       0       
       0       0       0       0       0
  2563 ;;      Temps:          0       0       0       0       0       0       0       0       0       0       0       0       
       0       0       0       0       0
  2564 ;;      Totals:         6       0       0       0       0       0       0       0       0       0       0       0       
       0       0       0       0       0
  2565 ;;Total ram usage:        6 bytes
  2566 ;; Hardware stack levels used:    1
  2567 ;; Hardware stack levels required when called:    3
  2568 ;; This function calls:
  2569 ;;		_fputc
  2570 ;; This function is called by:
  2571 ;;		_vfprintf
  2572 ;; This function uses a non-reentrant model
  2573 ;;
  2574                           psect	text6,class=CODE,space=0,reloc=2,group=0
  2575                           	line	670
  2576                           global __ptext6
  2577                           __ptext6:
  2578  00593A                     psect	text6
  2579                           	file	"C:\Program Files (x86)\Microchip\xc8\v2.00\pic\sources\c99\common\doprnt.c"
  2580                           	line	670
  2581                           	global	__size_of_vfpfcnvrt
  2582                           	__size_of_vfpfcnvrt	equ	__end_of_vfpfcnvrt-_vfpfcnvrt
  2583  0000                     	
  2584                           _vfpfcnvrt:
  2585  00593A                     ;incstack = 0
  2586                           	opt	stack 25
  2587                           	line	680
  2588                           	
  2589                           l1714:
  2590  00593A                     ;C:\Program Files (x86)\Microchip\xc8\v2.00\pic\sources\c99\common\doprnt.c: 670: static
                                  int vfpfcnvrt(FILE *fp, char *fmt[], va_list ap);C:\Program Files (x86)\Microchip\xc8\v
                                 2.00\pic\sources\c99\common\doprnt.c: 671: {;C:\Program Files (x86)\Microchip\xc8\v2.00\
                                 pic\sources\c99\common\doprnt.c: 672:     char c, *cp, ct[3];;C:\Program Files (x86)\Mic
                                 rochip\xc8\v2.00\pic\sources\c99\common\doprnt.c: 673:     int done, i;;C:\Program Files
                                  (x86)\Microchip\xc8\v2.00\pic\sources\c99\common\doprnt.c: 674:     long long ll;
  2591                           	movff	(c:vfpfcnvrt@fmt),fsr2l
  2592  00593A  C00E  FFD9         	movff	(c:vfpfcnvrt@fmt+1),fsr2h
  2593  00593E  C00F  FFDA         	movff	postinc2,tblptrl
  2594  005942  CFDE FFF6          	movff	postdec2,tblptrh
  2595  005946  CFDD FFF7          	if	0	;tblptru may be non-zero
  2596  00594A                     	clrf	tblptru
  2598  00594A                     	if	0	;tblptru may be non-zero
  2599  00594A                     	global __mediumconst
  2600                           movlw	low highword(__mediumconst)
  2603  00594A                     	tblrd	*
  2604  00594A  0008               	
  2605                           	movf	tablat,w
  2606  00594C  50F5               	xorlw	025h
  2607  00594E  0A25               	btfss	status,2
  2608  005950  A4D8               	goto	u1231
  2609  005952  EFAD  F02C         	goto	u1230
  2610  005956  EFAF  F02C         u1231:
  2611  00595A                     	goto	l1738
  2612  00595A  EFFA  F02C         u1230:
  2613  00595E                     	line	681
  2614                           	
  2615                           l1716:
  2616  00595E                     ;C:\Program Files (x86)\Microchip\xc8\v2.00\pic\sources\c99\common\doprnt.c: 681:       
                                   ++*fmt;
  2617                           	movff	(c:vfpfcnvrt@fmt),fsr2l
  2618  00595E  C00E  FFD9         	movff	(c:vfpfcnvrt@fmt+1),fsr2h
  2619  005962  C00F  FFDA         	incf	postinc2
  2620  005966  2ADE               	movlw	0
  2621  005968  0E00               	addwfc	postdec2
  2622  00596A  22DD               	line	683
  2623                           	
  2624                           l1718:
  2625  00596C                     ;C:\Program Files (x86)\Microchip\xc8\v2.00\pic\sources\c99\common\doprnt.c: 683:       
                                   flags = width = 0;
  2626                           	movlw	high(0)
  2627  00596C  0E00               	movwf	((c:_width+1)),c
  2628  00596E  6E56               	movlw	low(0)
  2629  005970  0E00               	movwf	((c:_width)),c
  2630  005972  6E55               	movff	(c:_width),(c:_flags)
  2631  005974  C055  F059         	movff	(c:_width+1),(c:_flags+1)
  2632  005978  C056  F05A         	line	684
  2633                           	
  2634                           l1720:
  2635  00597C                     ;C:\Program Files (x86)\Microchip\xc8\v2.00\pic\sources\c99\common\doprnt.c: 684:       
                                   prec = -1;
  2636                           	setf	((c:_prec)),c
  2637  00597C  6857               	setf	((c:_prec+1)),c
  2638  00597E  6858               	line	1350
  2639                           	
  2640                           l1722:
  2641  005980                     ;C:\Program Files (x86)\Microchip\xc8\v2.00\pic\sources\c99\common\doprnt.c: 1350:      
                                    if ((*fmt)[0] == '%') {
  2642                           	movff	(c:vfpfcnvrt@fmt),fsr2l
  2643  005980  C00E  FFD9         	movff	(c:vfpfcnvrt@fmt+1),fsr2h
  2644  005984  C00F  FFDA         	movff	postinc2,tblptrl
  2645  005988  CFDE FFF6          	movff	postdec2,tblptrh
  2646  00598C  CFDD FFF7          	if	0	;tblptru may be non-zero
  2647  005990                     	clrf	tblptru
  2649  005990                     	if	0	;tblptru may be non-zero
  2650  005990                     	global __mediumconst
  2651                           movlw	low highword(__mediumconst)
  2654  005990                     	tblrd	*
  2655  005990  0008               	
  2656                           	movf	tablat,w
  2657  005992  50F5               	xorlw	025h
  2658  005994  0A25               	btfss	status,2
  2659  005996  A4D8               	goto	u1241
  2660  005998  EFD0  F02C         	goto	u1240
  2661  00599C  EFD2  F02C         u1241:
  2662  0059A0                     	goto	l1732
  2663  0059A0  EFEB  F02C         u1240:
  2664  0059A4                     	line	1351
  2665                           	
  2666                           l1724:
  2667  0059A4                     ;C:\Program Files (x86)\Microchip\xc8\v2.00\pic\sources\c99\common\doprnt.c: 1351:      
                                        ++*fmt;
  2668                           	movff	(c:vfpfcnvrt@fmt),fsr2l
  2669  0059A4  C00E  FFD9         	movff	(c:vfpfcnvrt@fmt+1),fsr2h
  2670  0059A8  C00F  FFDA         	incf	postinc2
  2671  0059AC  2ADE               	movlw	0
  2672  0059AE  0E00               	addwfc	postdec2
  2673  0059B0  22DD               	line	1352
  2674                           	
  2675                           l1726:
  2676  0059B2                     ;C:\Program Files (x86)\Microchip\xc8\v2.00\pic\sources\c99\common\doprnt.c: 1352:      
                                        fputc((int)'%', fp);
  2677                           	movlw	high(025h)
  2678  0059B2  0E00               	movwf	((c:fputc@c+1)),c
  2679  0059B4  6E04               	movlw	low(025h)
  2680  0059B6  0E25               	movwf	((c:fputc@c)),c
  2681  0059B8  6E03               		movff	(c:vfpfcnvrt@fp),(c:fputc@fp)
  2682  0059BA  C00C  F005         	movff	(c:vfpfcnvrt@fp+1),(c:fputc@fp+1)
  2683  0059BE  C00D  F006         
  2684                           	call	_fputc	;wreg free
  2685  0059C2  EC1A  F02D         	line	1353
  2686                           	
  2687                           l1728:
  2688  0059C6                     ;C:\Program Files (x86)\Microchip\xc8\v2.00\pic\sources\c99\common\doprnt.c: 1353:      
                                        return 1;
  2689                           	movlw	high(01h)
  2690  0059C6  0E00               	movwf	((c:?_vfpfcnvrt+1)),c
  2691  0059C8  6E0D               	movlw	low(01h)
  2692  0059CA  0E01               	movwf	((c:?_vfpfcnvrt)),c
  2693  0059CC  6E0C               	goto	l171
  2694  0059CE  EF19  F02D         	
  2695                           l1730:
  2696  0059D2                     	goto	l171
  2697  0059D2  EF19  F02D         	line	1354
  2698                           ;C:\Program Files (x86)\Microchip\xc8\v2.00\pic\sources\c99\common\doprnt.c: 1354:      
                                    }
  2699                           	
  2700                           l170:
  2701  0059D6                     	line	1357
  2702                           	
  2703                           l1732:
  2704  0059D6                     ;C:\Program Files (x86)\Microchip\xc8\v2.00\pic\sources\c99\common\doprnt.c: 1357:      
                                    ++*fmt;
  2705                           	movff	(c:vfpfcnvrt@fmt),fsr2l
  2706  0059D6  C00E  FFD9         	movff	(c:vfpfcnvrt@fmt+1),fsr2h
  2707  0059DA  C00F  FFDA         	incf	postinc2
  2708  0059DE  2ADE               	movlw	0
  2709  0059E0  0E00               	addwfc	postdec2
  2710  0059E2  22DD               	line	1358
  2711                           	
  2712                           l1734:
  2713  0059E4                     ;C:\Program Files (x86)\Microchip\xc8\v2.00\pic\sources\c99\common\doprnt.c: 1358:      
                                    return 0;
  2714                           	movlw	high(0)
  2715  0059E4  0E00               	movwf	((c:?_vfpfcnvrt+1)),c
  2716  0059E6  6E0D               	movlw	low(0)
  2717  0059E8  0E00               	movwf	((c:?_vfpfcnvrt)),c
  2718  0059EA  6E0C               	goto	l171
  2719  0059EC  EF19  F02D         	
  2720                           l1736:
  2721  0059F0                     	goto	l171
  2722  0059F0  EF19  F02D         	line	1359
  2723                           ;C:\Program Files (x86)\Microchip\xc8\v2.00\pic\sources\c99\common\doprnt.c: 1359:     }
                                 
  2724                           	
  2725                           l169:
  2726  0059F4                     	line	1362
  2727                           	
  2728                           l1738:
  2729  0059F4                     ;C:\Program Files (x86)\Microchip\xc8\v2.00\pic\sources\c99\common\doprnt.c: 1362:     f
                                 putc((int)(*fmt)[0], fp);
  2730                           	movff	(c:vfpfcnvrt@fmt),fsr2l
  2731  0059F4  C00E  FFD9         	movff	(c:vfpfcnvrt@fmt+1),fsr2h
  2732  0059F8  C00F  FFDA         	movff	postinc2,tblptrl
  2733  0059FC  CFDE FFF6          	movff	postdec2,tblptrh
  2734  005A00  CFDD FFF7          	if	0	;tblptru may be non-zero
  2735  005A04                     	clrf	tblptru
  2737  005A04                     	if	0	;tblptru may be non-zero
  2738  005A04                     	global __mediumconst
  2739                           movlw	low highword(__mediumconst)
  2742  005A04                     	tblrd	*
  2743  005A04  0008               	
  2744                           	movf	tablat,w
  2745  005A06  50F5               
  2746                           	movwf	((c:fputc@c)),c
  2747  005A08  6E03               	clrf	((c:fputc@c+1)),c
  2748  005A0A  6A04               		movff	(c:vfpfcnvrt@fp),(c:fputc@fp)
  2749  005A0C  C00C  F005         	movff	(c:vfpfcnvrt@fp+1),(c:fputc@fp+1)
  2750  005A10  C00D  F006         
  2751                           	call	_fputc	;wreg free
  2752  005A14  EC1A  F02D         	line	1363
  2753                           	
  2754                           l1740:
  2755  005A18                     ;C:\Program Files (x86)\Microchip\xc8\v2.00\pic\sources\c99\common\doprnt.c: 1363:     +
                                 +*fmt;
  2756                           	movff	(c:vfpfcnvrt@fmt),fsr2l
  2757  005A18  C00E  FFD9         	movff	(c:vfpfcnvrt@fmt+1),fsr2h
  2758  005A1C  C00F  FFDA         	incf	postinc2
  2759  005A20  2ADE               	movlw	0
  2760  005A22  0E00               	addwfc	postdec2
  2761  005A24  22DD               	line	1364
  2762                           	
  2763                           l1742:
  2764  005A26                     ;C:\Program Files (x86)\Microchip\xc8\v2.00\pic\sources\c99\common\doprnt.c: 1364:     r
                                 eturn 1;
  2765                           	movlw	high(01h)
  2766  005A26  0E00               	movwf	((c:?_vfpfcnvrt+1)),c
  2767  005A28  6E0D               	movlw	low(01h)
  2768  005A2A  0E01               	movwf	((c:?_vfpfcnvrt)),c
  2769  005A2C  6E0C               	goto	l171
  2770  005A2E  EF19  F02D         	
  2771                           l1744:
  2772  005A32                     	line	1365
  2773                           	
  2774                           l171:
  2775  005A32                     	return	;funcret
  2776  005A32  0012               	opt stack 0
  2777                           GLOBAL	__end_of_vfpfcnvrt
  2778                           	__end_of_vfpfcnvrt:
  2779  005A34                     	signat	_vfpfcnvrt,12410
  2780                           	global	_fputc
  2781                           
  2782 ;; *************** function _fputc *****************
  2783 ;; Defined at:
  2784 ;;		line 8 in file "C:\Program Files (x86)\Microchip\xc8\v2.00\pic\sources\c99\common\nf_fputc.c"
  2785 ;; Parameters:    Size  Location     Type
  2786 ;;  c               2    2[COMRAM] int 
  2787 ;;  fp              2    4[COMRAM] PTR struct _IO_FILE
  2788 ;;		 -> NULL(0), 
  2789 ;; Auto vars:     Size  Location     Type
  2790 ;;		None
  2791 ;; Return value:  Size  Location     Type
  2792 ;;                  2    2[COMRAM] int 
  2793 ;; Registers used:
  2794 ;;		wreg, fsr1l, fsr1h, fsr2l, fsr2h, status,2, status,0, cstack
  2795 ;; Tracked objects:
  2796 ;;		On entry : 0/0
  2797 ;;		On exit  : 0/0
  2798 ;;		Unchanged: 0/0
  2799 ;; Data sizes:     COMRAM   BANK0   BANK1   BANK2   BANK3   BANK4   BANK5   BANK6   BANK7   BANK8   BANK9  BANK10  BANK1
       1  BANK12  BANK13  BANK14  BANK15
  2800 ;;      Params:         4       0       0       0       0       0       0       0       0       0       0       0       
       0       0       0       0       0
  2801 ;;      Locals:         0       0       0       0       0       0       0       0       0       0       0       0       
       0       0       0       0       0
  2802 ;;      Temps:          5       0       0       0       0       0       0       0       0       0       0       0       
       0       0       0       0       0
  2803 ;;      Totals:         9       0       0       0       0       0       0       0       0       0       0       0       
       0       0       0       0       0
  2804 ;;Total ram usage:        9 bytes
  2805 ;; Hardware stack levels used:    1
  2806 ;; Hardware stack levels required when called:    2
  2807 ;; This function calls:
  2808 ;;		_putch
  2809 ;; This function is called by:
  2810 ;;		_vfpfcnvrt
  2811 ;;		_putchar
  2812 ;; This function uses a non-reentrant model
  2813 ;;
  2814                           psect	text7,class=CODE,space=0,reloc=2,group=2
  2815                           	file	"C:\Program Files (x86)\Microchip\xc8\v2.00\pic\sources\c99\common\nf_fputc.c"
  2816                           	line	8
  2817                           global __ptext7
  2818                           __ptext7:
  2819  005A34                     psect	text7
  2820                           	file	"C:\Program Files (x86)\Microchip\xc8\v2.00\pic\sources\c99\common\nf_fputc.c"
  2821                           	line	8
  2822                           	global	__size_of_fputc
  2823                           	__size_of_fputc	equ	__end_of_fputc-_fputc
  2824  0000                     	
  2825                           _fputc:
  2826  005A34                     ;incstack = 0
  2827                           	opt	stack 26
  2828                           	line	12
  2829                           	
  2830                           l1698:
  2831  005A34                     	movf	((c:fputc@fp)),c,w
  2832  005A34  5005               iorwf	((c:fputc@fp+1)),c,w
  2833  005A36  1006               	btfsc	status,2
  2834  005A38  B4D8               	goto	u1191
  2835  005A3A  EF21  F02D         	goto	u1190
  2836  005A3E  EF23  F02D         
  2837                           u1191:
  2838  005A42                     	goto	l1702
  2839  005A42  EF2E  F02D         u1190:
  2840  005A46                     	
  2841                           l1700:
  2842  005A46                     	movf	((c:fputc@fp)),c,w
  2843  005A46  5005               iorwf	((c:fputc@fp+1)),c,w
  2844  005A48  1006               	btfss	status,2
  2845  005A4A  A4D8               	goto	u1201
  2846  005A4C  EF2A  F02D         	goto	u1200
  2847  005A50  EF2C  F02D         
  2848                           u1201:
  2849  005A54                     	goto	l1704
  2850  005A54  EF33  F02D         u1200:
  2851  005A58                     	goto	l1702
  2852  005A58  EF2E  F02D         	
  2853                           l903:
  2854  005A5C                     	line	13
  2855                           	
  2856                           l1702:
  2857  005A5C                     	movf	((c:fputc@c)),c,w
  2858  005A5C  5003               	
  2859                           	call	_putch
  2860  005A5E  ECAE  F02E         	line	14
  2861                           	goto	l1710
  2862  005A62  EF6C  F02D         	
  2863                           l901:
  2864  005A66                     	line	15
  2865                           	
  2866                           l1704:
  2867  005A66                     	lfsr	2,04h
  2868  005A66  EE20 F004          	movf	((c:fputc@fp)),c,w
  2869  005A6A  5005               	addwf	fsr2l
  2870  005A6C  26D9               	movf	((c:fputc@fp+1)),c,w
  2871  005A6E  5006               	addwfc	fsr2h
  2872  005A70  22DA               	movf	postinc2,w
  2873  005A72  50DE               iorwf	postinc2,w
  2874  005A74  10DE               	btfsc	status,2
  2875  005A76  B4D8               	goto	u1211
  2876  005A78  EF40  F02D         	goto	u1210
  2877  005A7C  EF42  F02D         
  2878                           u1211:
  2879  005A80                     	goto	l1708
  2880  005A80  EF5F  F02D         u1210:
  2881  005A84                     	
  2882                           l1706:
  2883  005A84                     	lfsr	2,04h
  2884  005A84  EE20 F004          	movf	((c:fputc@fp)),c,w
  2885  005A88  5005               	addwf	fsr2l
  2886  005A8A  26D9               	movf	((c:fputc@fp+1)),c,w
  2887  005A8C  5006               	addwfc	fsr2h
  2888  005A8E  22DA               	lfsr	1,02h
  2889  005A90  EE10 F002          	movf	((c:fputc@fp)),c,w
  2890  005A94  5005               	addwf	fsr1l
  2891  005A96  26E1               	movf	((c:fputc@fp+1)),c,w
  2892  005A98  5006               	addwfc	fsr1h
  2893  005A9A  22E2               		movf	postinc2,w
  2894  005A9C  50DE               	subwf	postinc1,w
  2895  005A9E  5CE6               	movf	postinc1,w
  2896  005AA0  50E6               	xorlw	80h
  2897  005AA2  0A80               	movwf	(??_fputc+4+0)&0ffh,c
  2898  005AA4  6E0B               	movf	postinc2,w
  2899  005AA6  50DE               	xorlw	80h
  2900  005AA8  0A80               	subwfb	(??_fputc+4+0)&0ffh,c,w
  2901  005AAA  580B               	btfsc	status,0
  2902  005AAC  B0D8               	goto	u1221
  2903  005AAE  EF5B  F02D         	goto	u1220
  2904  005AB2  EF5D  F02D         
  2905                           u1221:
  2906  005AB6                     	goto	l1710
  2907  005AB6  EF6C  F02D         u1220:
  2908  005ABA                     	goto	l1708
  2909  005ABA  EF5F  F02D         	
  2910                           l907:
  2911  005ABE                     	line	17
  2912                           	
  2913                           l1708:
  2914  005ABE                     	lfsr	2,02h
  2915  005ABE  EE20 F002          	movf	((c:fputc@fp)),c,w
  2916  005AC2  5005               	addwf	fsr2l
  2917  005AC4  26D9               	movf	((c:fputc@fp+1)),c,w
  2918  005AC6  5006               	addwfc	fsr2h
  2919  005AC8  22DA               	incf	postinc2
  2920  005ACA  2ADE               	movlw	0
  2921  005ACC  0E00               	addwfc	postdec2
  2922  005ACE  22DD               	goto	l1710
  2923  005AD0  EF6C  F02D         	line	18
  2924                           	
  2925                           l905:
  2926  005AD4                     	goto	l1710
  2927  005AD4  EF6C  F02D         	line	19
  2928                           	
  2929                           l904:
  2930  005AD8                     	line	20
  2931                           	
  2932                           l1710:
  2933  005AD8                     	movff	(c:fputc@c),(c:?_fputc)
  2934  005AD8  C003  F003         	clrf	((c:?_fputc+1)),c
  2935  005ADC  6A04               	goto	l908
  2936  005ADE  EF71  F02D         	
  2937                           l1712:
  2938  005AE2                     	line	21
  2939                           	
  2940                           l908:
  2941  005AE2                     	return	;funcret
  2942  005AE2  0012               	opt stack 0
  2943                           GLOBAL	__end_of_fputc
  2944                           	__end_of_fputc:
  2945  005AE4                     	signat	_fputc,8314
  2946                           	global	_putch
  2947                           
  2948 ;; *************** function _putch *****************
  2949 ;; Defined at:
  2950 ;;		line 111 in file "main.c"
  2951 ;; Parameters:    Size  Location     Type
  2952 ;;  c               1    wreg     unsigned char 
  2953 ;; Auto vars:     Size  Location     Type
  2954 ;;  c               1    1[COMRAM] unsigned char 
  2955 ;; Return value:  Size  Location     Type
  2956 ;;                  1    wreg      void 
  2957 ;; Registers used:
  2958 ;;		wreg
  2959 ;; Tracked objects:
  2960 ;;		On entry : 0/0
  2961 ;;		On exit  : 0/0
  2962 ;;		Unchanged: 0/0
  2963 ;; Data sizes:     COMRAM   BANK0   BANK1   BANK2   BANK3   BANK4   BANK5   BANK6   BANK7   BANK8   BANK9  BANK10  BANK1
       1  BANK12  BANK13  BANK14  BANK15
  2964 ;;      Params:         0       0       0       0       0       0       0       0       0       0       0       0       
       0       0       0       0       0
  2965 ;;      Locals:         1       0       0       0       0       0       0       0       0       0       0       0       
       0       0       0       0       0
  2966 ;;      Temps:          0       0       0       0       0       0       0       0       0       0       0       0       
       0       0       0       0       0
  2967 ;;      Totals:         1       0       0       0       0       0       0       0       0       0       0       0       
       0       0       0       0       0
  2968 ;;Total ram usage:        1 bytes
  2969 ;; Hardware stack levels used:    1
  2970 ;; Hardware stack levels required when called:    1
  2971 ;; This function calls:
  2972 ;;		Nothing
  2973 ;; This function is called by:
  2974 ;;		_fputc
  2975 ;; This function uses a non-reentrant model
  2976 ;;
  2977                           psect	text8,class=CODE,space=0,reloc=2,group=0
  2978                           	file	"main.c"
  2979                           	line	111
  2980                           global __ptext8
  2981                           __ptext8:
  2982  005D5C                     psect	text8
  2983                           	file	"main.c"
  2984                           	line	111
  2985                           	global	__size_of_putch
  2986                           	__size_of_putch	equ	__end_of_putch-_putch
  2987  0000                     	
  2988                           _putch:
  2989  005D5C                     ;incstack = 0
  2990                           	opt	stack 26
  2991                           ;putch@c stored from wreg
  2992                           	movwf	((c:putch@c)),c
  2993  005D5C  6E02               	line	113
  2994                           	
  2995                           l1694:
  2996  005D5E                     ;main.c: 113:             return;
  2997                           	goto	l92
  2998  005D5E  EFB1  F02E         	
  2999                           l93:
  3000  005D62                     	line	114
  3001                           ;main.c: 114:         } else if (c == 127 || c == 8) {
  3002                           	
  3003                           l92:
  3004  005D62                     	line	113
  3005                           ;main.c: 113:             return;
  3006                           	btfss	((c:4012)),c,1	;volatile
  3007  005D62  A2AC               	goto	u1181
  3008  005D64  EFB6  F02E         	goto	u1180
  3009  005D68  EFB8  F02E         u1181:
  3010  005D6C                     	goto	l92
  3011  005D6C  EFB1  F02E         u1180:
  3012  005D70                     	goto	l1696
  3013  005D70  EFBA  F02E         	
  3014                           l94:
  3015  005D74                     	line	115
  3016                           	
  3017                           l1696:
  3018  005D74                     ;main.c: 115:             if (i > 0) {
  3019                           	movff	(c:putch@c),(c:4013)	;volatile
  3020  005D74  C002  FFAD         	line	116
  3021                           	
  3022                           l95:
  3023  005D78                     	return	;funcret
  3024  005D78  0012               	opt stack 0
  3025                           GLOBAL	__end_of_putch
  3026                           	__end_of_putch:
  3027  005D7A                     	signat	_putch,4217
  3028                           	global	_badineri
  3029                           
  3030 ;; *************** function _badineri *****************
  3031 ;; Defined at:
  3032 ;;		line 186 in file "main.c"
  3033 ;; Parameters:    Size  Location     Type
  3034 ;;		None
  3035 ;; Auto vars:     Size  Location     Type
  3036 ;;		None
  3037 ;; Return value:  Size  Location     Type
  3038 ;;                  1    wreg      void 
  3039 ;; Registers used:
  3040 ;;		wreg, status,2, status,0, cstack
  3041 ;; Tracked objects:
  3042 ;;		On entry : 0/0
  3043 ;;		On exit  : 0/0
  3044 ;;		Unchanged: 0/0
  3045 ;; Data sizes:     COMRAM   BANK0   BANK1   BANK2   BANK3   BANK4   BANK5   BANK6   BANK7   BANK8   BANK9  BANK10  BANK1
       1  BANK12  BANK13  BANK14  BANK15
  3046 ;;      Params:         0       0       0       0       0       0       0       0       0       0       0       0       
       0       0       0       0       0
  3047 ;;      Locals:         0       0       0       0       0       0       0       0       0       0       0       0       
       0       0       0       0       0
  3048 ;;      Temps:          0       0       0       0       0       0       0       0       0       0       0       0       
       0       0       0       0       0
  3049 ;;      Totals:         0       0       0       0       0       0       0       0       0       0       0       0       
       0       0       0       0       0
  3050 ;;Total ram usage:        0 bytes
  3051 ;; Hardware stack levels used:    1
  3052 ;; Hardware stack levels required when called:    3
  3053 ;; This function calls:
  3054 ;;		_Beep
  3055 ;;		_sleep
  3056 ;; This function is called by:
  3057 ;;		_main
  3058 ;; This function uses a non-reentrant model
  3059 ;;
  3060                           psect	text9,class=CODE,space=0,reloc=2,group=0
  3061                           	line	186
  3062                           global __ptext9
  3063                           __ptext9:
  3064  001040                     psect	text9
  3065                           	file	"main.c"
  3066                           	line	186
  3067                           	global	__size_of_badineri
  3068                           	__size_of_badineri	equ	__end_of_badineri-_badineri
  3069  0000                     	
  3070                           _badineri:
  3071  001040                     ;incstack = 0
  3072                           	opt	stack 27
  3073                           	line	187
  3074                           	
  3075                           l2288:
  3076  001040                     ;main.c: 187:  Beep(493, 74);
  3077                           	movlw	high(07Bh)
  3078  001040  0E00               	movwf	((c:Beep@frequency+1)),c
  3079  001042  6E4C               	movlw	low(07Bh)
  3080  001044  0E7B               	movwf	((c:Beep@frequency)),c
  3081  001046  6E4B               	movlw	high(07Ah)
  3082  001048  0E00               	movwf	((c:Beep@duration+1)),c
  3083  00104A  6E4E               	movlw	low(07Ah)
  3084  00104C  0E7A               	movwf	((c:Beep@duration)),c
  3085  00104E  6E4D               	call	_Beep	;wreg free
  3086  001050  EC8E  F02B         	line	188
  3087                           ;main.c: 188:  sleep(31);
  3088                           	movlw	high(078h)
  3089  001054  0E00               	movwf	((c:sleep@ms+1)),c
  3090  001056  6E03               	movlw	low(078h)
  3091  001058  0E78               	movwf	((c:sleep@ms)),c
  3092  00105A  6E02               	call	_sleep	;wreg free
  3093  00105C  ECF0  F02D         	line	189
  3094                           ;main.c: 189:  Beep(391, 138);
  3095                           	movlw	high(0496h)
  3096  001060  0E04               	movwf	((c:Beep@frequency+1)),c
  3097  001062  6E4C               	movlw	low(0496h)
  3098  001064  0E96               	movwf	((c:Beep@frequency)),c
  3099  001066  6E4B               	movlw	high(056h)
  3100  001068  0E00               	movwf	((c:Beep@duration+1)),c
  3101  00106A  6E4E               	movlw	low(056h)
  3102  00106C  0E56               	movwf	((c:Beep@duration)),c
  3103  00106E  6E4D               	call	_Beep	;wreg free
  3104  001070  EC8E  F02B         	line	190
  3105                           ;main.c: 190:  Beep(493, 78);
  3106                           	movlw	high(01Fh)
  3107  001074  0E00               	movwf	((c:sleep@ms+1)),c
  3108  001076  6E03               	movlw	low(01Fh)
  3109  001078  0E1F               	movwf	((c:sleep@ms)),c
  3110  00107A  6E02               	call	_sleep	;wreg free
  3111  00107C  ECF0  F02D         	line	191
  3112                           ;main.c: 191:  sleep(45);
  3113                           	movlw	high(03DBh)
  3114  001080  0E03               	movwf	((c:Beep@frequency+1)),c
  3115  001082  6E4C               	movlw	low(03DBh)
  3116  001084  0EDB               	movwf	((c:Beep@frequency)),c
  3117  001086  6E4B               	movlw	high(039h)
  3118  001088  0E00               	movwf	((c:Beep@duration+1)),c
  3119  00108A  6E4E               	movlw	low(039h)
  3120  00108C  0E39               	movwf	((c:Beep@duration)),c
  3121  00108E  6E4D               	call	_Beep	;wreg free
  3122  001090  EC8E  F02B         	line	192
  3123                           ;main.c: 192:  Beep(493, 146);
  3124                           	movlw	high(046h)
  3125  001094  0E00               	movwf	((c:sleep@ms+1)),c
  3126  001096  6E03               	movlw	low(046h)
  3127  001098  0E46               	movwf	((c:sleep@ms)),c
  3128  00109A  6E02               	call	_sleep	;wreg free
  3129  00109C  ECF0  F02D         	line	193
  3130                           ;main.c: 193:  sleep(97);
  3131                           	movlw	high(092h)
  3132  0010A0  0E00               	movwf	((c:Beep@frequency+1)),c
  3133  0010A2  6E4C               	movlw	low(092h)
  3134  0010A4  0E92               	movwf	((c:Beep@frequency)),c
  3135  0010A6  6E4B               	movlw	high(06Dh)
  3136  0010A8  0E00               	movwf	((c:Beep@duration+1)),c
  3137  0010AA  6E4E               	movlw	low(06Dh)
  3138  0010AC  0E6D               	movwf	((c:Beep@duration)),c
  3139  0010AE  6E4D               	call	_Beep	;wreg free
  3140  0010B0  EC8E  F02B         	line	194
  3141                           ;main.c: 194:  Beep(554, 125);
  3142                           	movlw	high(086h)
  3143  0010B4  0E00               	movwf	((c:sleep@ms+1)),c
  3144  0010B6  6E03               	movlw	low(086h)
  3145  0010B8  0E86               	movwf	((c:sleep@ms)),c
  3146  0010BA  6E02               	call	_sleep	;wreg free
  3147  0010BC  ECF0  F02D         	line	195
  3148                           ;main.c: 195:  sleep(6);
  3149                           	movlw	high(07Bh)
  3150  0010C0  0E00               	movwf	((c:Beep@frequency+1)),c
  3151  0010C2  6E4C               	movlw	low(07Bh)
  3152  0010C4  0E7B               	movwf	((c:Beep@frequency)),c
  3153  0010C6  6E4B               	movlw	high(07Dh)
  3154  0010C8  0E00               	movwf	((c:Beep@duration+1)),c
  3155  0010CA  6E4E               	movlw	low(07Dh)
  3156  0010CC  0E7D               	movwf	((c:Beep@duration)),c
  3157  0010CE  6E4D               	call	_Beep	;wreg free
  3158  0010D0  EC8E  F02B         	line	196
  3159                           ;main.c: 196:  Beep(554, 102);
  3160                           	movlw	high(067h)
  3161  0010D4  0E00               	movwf	((c:sleep@ms+1)),c
  3162  0010D6  6E03               	movlw	low(067h)
  3163  0010D8  0E67               	movwf	((c:sleep@ms)),c
  3164  0010DA  6E02               	call	_sleep	;wreg free
  3165  0010DC  ECF0  F02D         	line	197
  3166                           ;main.c: 197:  sleep(20);
  3167                           	movlw	high(024Bh)
  3168  0010E0  0E02               	movwf	((c:Beep@frequency+1)),c
  3169  0010E2  6E4C               	movlw	low(024Bh)
  3170  0010E4  0E4B               	movwf	((c:Beep@frequency)),c
  3171  0010E6  6E4B               	movlw	high(09Ch)
  3172  0010E8  0E00               	movwf	((c:Beep@duration+1)),c
  3173  0010EA  6E4E               	movlw	low(09Ch)
  3174  0010EC  0E9C               	movwf	((c:Beep@duration)),c
  3175  0010EE  6E4D               	call	_Beep	;wreg free
  3176  0010F0  EC8E  F02B         	line	198
  3177                           ;main.c: 198:  Beep(659, 101);
  3178                           	movlw	high(05Ah)
  3179  0010F4  0E00               	movwf	((c:sleep@ms+1)),c
  3180  0010F6  6E03               	movlw	low(05Ah)
  3181  0010F8  0E5A               	movwf	((c:sleep@ms)),c
  3182  0010FA  6E02               	call	_sleep	;wreg free
  3183  0010FC  ECF0  F02D         	line	199
  3184                           ;main.c: 199:  sleep(16);
  3185                           	movlw	high(092h)
  3186  001100  0E00               	movwf	((c:Beep@frequency+1)),c
  3187  001102  6E4C               	movlw	low(092h)
  3188  001104  0E92               	movwf	((c:Beep@frequency)),c
  3189  001106  6E4B               	movlw	high(090h)
  3190  001108  0E00               	movwf	((c:Beep@duration+1)),c
  3191  00110A  6E4E               	movlw	low(090h)
  3192  00110C  0E90               	movwf	((c:Beep@duration)),c
  3193  00110E  6E4D               	call	_Beep	;wreg free
  3194  001110  EC8E  F02B         	line	200
  3195                           ;main.c: 200:  Beep(554, 78);
  3196                           	movlw	high(076h)
  3197  001114  0E00               	movwf	((c:sleep@ms+1)),c
  3198  001116  6E03               	movlw	low(076h)
  3199  001118  0E76               	movwf	((c:sleep@ms)),c
  3200  00111A  6E02               	call	_sleep	;wreg free
  3201  00111C  ECF0  F02D         	line	201
  3202                           ;main.c: 201:  sleep(54);
  3203                           	movlw	high(01EDh)
  3204  001120  0E01               	movwf	((c:Beep@frequency+1)),c
  3205  001122  6E4C               	movlw	low(01EDh)
  3206  001124  0EED               	movwf	((c:Beep@frequency)),c
  3207  001126  6E4B               	movlw	high(0B3h)
  3208  001128  0E00               	movwf	((c:Beep@duration+1)),c
  3209  00112A  6E4E               	movlw	low(0B3h)
  3210  00112C  0EB3               	movwf	((c:Beep@duration)),c
  3211  00112E  6E4D               	call	_Beep	;wreg free
  3212  001130  EC8E  F02B         	line	202
  3213                           ;main.c: 202:  Beep(493, 131);
  3214                           	movlw	high(046h)
  3215  001134  0E00               	movwf	((c:sleep@ms+1)),c
  3216  001136  6E03               	movlw	low(046h)
  3217  001138  0E46               	movwf	((c:sleep@ms)),c
  3218  00113A  6E02               	call	_sleep	;wreg free
  3219  00113C  ECF0  F02D         	line	203
  3220                           ;main.c: 203:  sleep(101);
  3221                           	movlw	high(0B8h)
  3222  001140  0E00               	movwf	((c:Beep@frequency+1)),c
  3223  001142  6E4C               	movlw	low(0B8h)
  3224  001144  0EB8               	movwf	((c:Beep@frequency)),c
  3225  001146  6E4B               	movlw	high(07Ah)
  3226  001148  0E00               	movwf	((c:Beep@duration+1)),c
  3227  00114A  6E4E               	movlw	low(07Ah)
  3228  00114C  0E7A               	movwf	((c:Beep@duration)),c
  3229  00114E  6E4D               	call	_Beep	;wreg free
  3230  001150  EC8E  F02B         	line	204
  3231                           ;main.c: 204:  Beep(146, 90);
  3232                           	movlw	high(081h)
  3233  001154  0E00               	movwf	((c:sleep@ms+1)),c
  3234  001156  6E03               	movlw	low(081h)
  3235  001158  0E81               	movwf	((c:sleep@ms)),c
  3236  00115A  6E02               	call	_sleep	;wreg free
  3237  00115C  ECF0  F02D         	line	205
  3238                           ;main.c: 205:  sleep(32);
  3239                           	movlw	high(0171h)
  3240  001160  0E01               	movwf	((c:Beep@frequency+1)),c
  3241  001162  6E4C               	movlw	low(0171h)
  3242  001164  0E71               	movwf	((c:Beep@frequency)),c
  3243  001166  6E4B               	movlw	high(072h)
  3244  001168  0E00               	movwf	((c:Beep@duration+1)),c
  3245  00116A  6E4E               	movlw	low(072h)
  3246  00116C  0E72               	movwf	((c:Beep@duration)),c
  3247  00116E  6E4D               	call	_Beep	;wreg free
  3248  001170  EC8E  F02B         	line	206
  3249                           ;main.c: 206:  Beep(138, 87);
  3250                           	movlw	high(0Eh)
  3251  001174  0E00               	movwf	((c:sleep@ms+1)),c
  3252  001176  6E03               	movlw	low(0Eh)
  3253  001178  0E0E               	movwf	((c:sleep@ms)),c
  3254  00117A  6E02               	call	_sleep	;wreg free
  3255  00117C  ECF0  F02D         	line	207
  3256                           ;main.c: 207:  sleep(50);
  3257                           	movlw	high(01EDh)
  3258  001180  0E01               	movwf	((c:Beep@frequency+1)),c
  3259  001182  6E4C               	movlw	low(01EDh)
  3260  001184  0EED               	movwf	((c:Beep@frequency)),c
  3261  001186  6E4B               	movlw	high(058h)
  3262  001188  0E00               	movwf	((c:Beep@duration+1)),c
  3263  00118A  6E4E               	movlw	low(058h)
  3264  00118C  0E58               	movwf	((c:Beep@duration)),c
  3265  00118E  6E4D               	call	_Beep	;wreg free
  3266  001190  EC8E  F02B         	line	208
  3267                           ;main.c: 208:  Beep(123, 118);
  3268                           	movlw	high(016h)
  3269  001194  0E00               	movwf	((c:sleep@ms+1)),c
  3270  001196  6E03               	movlw	low(016h)
  3271  001198  0E16               	movwf	((c:sleep@ms)),c
  3272  00119A  6E02               	call	_sleep	;wreg free
  3273  00119C  ECF0  F02D         	line	209
  3274                           ;main.c: 209:  sleep(124);
  3275                           	movlw	high(07Bh)
  3276  0011A0  0E00               	movwf	((c:Beep@frequency+1)),c
  3277  0011A2  6E4C               	movlw	low(07Bh)
  3278  0011A4  0E7B               	movwf	((c:Beep@frequency)),c
  3279  0011A6  6E4B               	movlw	high(079h)
  3280  0011A8  0E00               	movwf	((c:Beep@duration+1)),c
  3281  0011AA  6E4E               	movlw	low(079h)
  3282  0011AC  0E79               	movwf	((c:Beep@duration)),c
  3283  0011AE  6E4D               	call	_Beep	;wreg free
  3284  0011B0  EC8E  F02B         	line	210
  3285                           ;main.c: 210:  Beep(1174, 89);
  3286                           	movlw	high(0Ch)
  3287  0011B4  0E00               	movwf	((c:sleep@ms+1)),c
  3288  0011B6  6E03               	movlw	low(0Ch)
  3289  0011B8  0E0C               	movwf	((c:sleep@ms)),c
  3290  0011BA  6E02               	call	_sleep	;wreg free
  3291  0011BC  ECF0  F02D         	line	211
  3292                           ;main.c: 211:  sleep(22);
  3293                           	movlw	high(01EDh)
  3294  0011C0  0E01               	movwf	((c:Beep@frequency+1)),c
  3295  0011C2  6E4C               	movlw	low(01EDh)
  3296  0011C4  0EED               	movwf	((c:Beep@frequency)),c
  3297  0011C6  6E4B               	movlw	high(04Ah)
  3298  0011C8  0E00               	movwf	((c:Beep@duration+1)),c
  3299  0011CA  6E4E               	movlw	low(04Ah)
  3300  0011CC  0E4A               	movwf	((c:Beep@duration)),c
  3301  0011CE  6E4D               	call	_Beep	;wreg free
  3302  0011D0  EC8E  F02B         	line	212
  3303                           ;main.c: 212:  Beep(987, 62);
  3304                           	movlw	high(01Fh)
  3305  0011D4  0E00               	movwf	((c:sleep@ms+1)),c
  3306  0011D6  6E03               	movlw	low(01Fh)
  3307  0011D8  0E1F               	movwf	((c:sleep@ms)),c
  3308  0011DA  6E02               	call	_sleep	;wreg free
  3309  0011DC  ECF0  F02D         	line	213
  3310                           ;main.c: 213:  sleep(85);
  3311                           	movlw	high(0187h)
  3312  0011E0  0E01               	movwf	((c:Beep@frequency+1)),c
  3313  0011E2  6E4C               	movlw	low(0187h)
  3314  0011E4  0E87               	movwf	((c:Beep@frequency)),c
  3315  0011E6  6E4B               	movlw	high(08Ah)
  3316  0011E8  0E00               	movwf	((c:Beep@duration+1)),c
  3317  0011EA  6E4E               	movlw	low(08Ah)
  3318  0011EC  0E8A               	movwf	((c:Beep@duration)),c
  3319  0011EE  6E4D               	call	_Beep	;wreg free
  3320  0011F0  EC8E  F02B         	line	214
  3321                           ;main.c: 214:  Beep(739, 207);
  3322                           	movlw	high(01EDh)
  3323  0011F4  0E01               	movwf	((c:Beep@frequency+1)),c
  3324  0011F6  6E4C               	movlw	low(01EDh)
  3325  0011F8  0EED               	movwf	((c:Beep@frequency)),c
  3326  0011FA  6E4B               	movlw	high(04Eh)
  3327  0011FC  0E00               	movwf	((c:Beep@duration+1)),c
  3328  0011FE  6E4E               	movlw	low(04Eh)
  3329  001200  0E4E               	movwf	((c:Beep@duration)),c
  3330  001202  6E4D               	call	_Beep	;wreg free
  3331  001204  EC8E  F02B         	line	215
  3332                           ;main.c: 215:  sleep(27);
  3333                           	movlw	high(02Dh)
  3334  001208  0E00               	movwf	((c:sleep@ms+1)),c
  3335  00120A  6E03               	movlw	low(02Dh)
  3336  00120C  0E2D               	movwf	((c:sleep@ms)),c
  3337  00120E  6E02               	call	_sleep	;wreg free
  3338  001210  ECF0  F02D         	line	216
  3339                           ;main.c: 216:  Beep(123, 123);
  3340                           	movlw	high(01EDh)
  3341  001214  0E01               	movwf	((c:Beep@frequency+1)),c
  3342  001216  6E4C               	movlw	low(01EDh)
  3343  001218  0EED               	movwf	((c:Beep@frequency)),c
  3344  00121A  6E4B               	movlw	high(092h)
  3345  00121C  0E00               	movwf	((c:Beep@duration+1)),c
  3346  00121E  6E4E               	movlw	low(092h)
  3347  001220  0E92               	movwf	((c:Beep@duration)),c
  3348  001222  6E4D               	call	_Beep	;wreg free
  3349  001224  EC8E  F02B         	line	217
  3350                           ;main.c: 217:  sleep(126);
  3351                           	movlw	high(061h)
  3352  001228  0E00               	movwf	((c:sleep@ms+1)),c
  3353  00122A  6E03               	movlw	low(061h)
  3354  00122C  0E61               	movwf	((c:sleep@ms)),c
  3355  00122E  6E02               	call	_sleep	;wreg free
  3356  001230  ECF0  F02D         	line	218
  3357                           ;main.c: 218:  Beep(587, 139);
  3358                           	movlw	high(022Ah)
  3359  001234  0E02               	movwf	((c:Beep@frequency+1)),c
  3360  001236  6E4C               	movlw	low(022Ah)
  3361  001238  0E2A               	movwf	((c:Beep@frequency)),c
  3362  00123A  6E4B               	movlw	high(07Dh)
  3363  00123C  0E00               	movwf	((c:Beep@duration+1)),c
  3364  00123E  6E4E               	movlw	low(07Dh)
  3365  001240  0E7D               	movwf	((c:Beep@duration)),c
  3366  001242  6E4D               	call	_Beep	;wreg free
  3367  001244  EC8E  F02B         	line	219
  3368                           ;main.c: 219:  sleep(102);
  3369                           	movlw	high(06h)
  3370  001248  0E00               	movwf	((c:sleep@ms+1)),c
  3371  00124A  6E03               	movlw	low(06h)
  3372  00124C  0E06               	movwf	((c:sleep@ms)),c
  3373  00124E  6E02               	call	_sleep	;wreg free
  3374  001250  ECF0  F02D         	line	220
  3375                           ;main.c: 220:  Beep(146, 132);
  3376                           	movlw	high(022Ah)
  3377  001254  0E02               	movwf	((c:Beep@frequency+1)),c
  3378  001256  6E4C               	movlw	low(022Ah)
  3379  001258  0E2A               	movwf	((c:Beep@frequency)),c
  3380  00125A  6E4B               	movlw	high(066h)
  3381  00125C  0E00               	movwf	((c:Beep@duration+1)),c
  3382  00125E  6E4E               	movlw	low(066h)
  3383  001260  0E66               	movwf	((c:Beep@duration)),c
  3384  001262  6E4D               	call	_Beep	;wreg free
  3385  001264  EC8E  F02B         	line	221
  3386                           ;main.c: 221:  sleep(2);
  3387                           	movlw	high(014h)
  3388  001268  0E00               	movwf	((c:sleep@ms+1)),c
  3389  00126A  6E03               	movlw	low(014h)
  3390  00126C  0E14               	movwf	((c:sleep@ms)),c
  3391  00126E  6E02               	call	_sleep	;wreg free
  3392  001270  ECF0  F02D         	line	222
  3393                           ;main.c: 222:  Beep(587, 77);
  3394                           	movlw	high(0293h)
  3395  001274  0E02               	movwf	((c:Beep@frequency+1)),c
  3396  001276  6E4C               	movlw	low(0293h)
  3397  001278  0E93               	movwf	((c:Beep@frequency)),c
  3398  00127A  6E4B               	movlw	high(065h)
  3399  00127C  0E00               	movwf	((c:Beep@duration+1)),c
  3400  00127E  6E4E               	movlw	low(065h)
  3401  001280  0E65               	movwf	((c:Beep@duration)),c
  3402  001282  6E4D               	call	_Beep	;wreg free
  3403  001284  EC8E  F02B         	line	223
  3404                           ;main.c: 223:  sleep(29);
  3405                           	movlw	high(010h)
  3406  001288  0E00               	movwf	((c:sleep@ms+1)),c
  3407  00128A  6E03               	movlw	low(010h)
  3408  00128C  0E10               	movwf	((c:sleep@ms)),c
  3409  00128E  6E02               	call	_sleep	;wreg free
  3410  001290  ECF0  F02D         	line	224
  3411                           ;main.c: 224:  Beep(293, 185);
  3412                           	movlw	high(022Ah)
  3413  001294  0E02               	movwf	((c:Beep@frequency+1)),c
  3414  001296  6E4C               	movlw	low(022Ah)
  3415  001298  0E2A               	movwf	((c:Beep@frequency)),c
  3416  00129A  6E4B               	movlw	high(04Eh)
  3417  00129C  0E00               	movwf	((c:Beep@duration+1)),c
  3418  00129E  6E4E               	movlw	low(04Eh)
  3419  0012A0  0E4E               	movwf	((c:Beep@duration)),c
  3420  0012A2  6E4D               	call	_Beep	;wreg free
  3421  0012A4  EC8E  F02B         	line	225
  3422                           ;main.c: 225:  sleep(87);
  3423                           	movlw	high(036h)
  3424  0012A8  0E00               	movwf	((c:sleep@ms+1)),c
  3425  0012AA  6E03               	movlw	low(036h)
  3426  0012AC  0E36               	movwf	((c:sleep@ms)),c
  3427  0012AE  6E02               	call	_sleep	;wreg free
  3428  0012B0  ECF0  F02D         	line	226
  3429                           ;main.c: 226:  Beep(184, 118);
  3430                           	movlw	high(01EDh)
  3431  0012B4  0E01               	movwf	((c:Beep@frequency+1)),c
  3432  0012B6  6E4C               	movlw	low(01EDh)
  3433  0012B8  0EED               	movwf	((c:Beep@frequency)),c
  3434  0012BA  6E4B               	movlw	high(083h)
  3435  0012BC  0E00               	movwf	((c:Beep@duration+1)),c
  3436  0012BE  6E4E               	movlw	low(083h)
  3437  0012C0  0E83               	movwf	((c:Beep@duration)),c
  3438  0012C2  6E4D               	call	_Beep	;wreg free
  3439  0012C4  EC8E  F02B         	line	227
  3440                           ;main.c: 227:  sleep(120);
  3441                           	movlw	high(065h)
  3442  0012C8  0E00               	movwf	((c:sleep@ms+1)),c
  3443  0012CA  6E03               	movlw	low(065h)
  3444  0012CC  0E65               	movwf	((c:sleep@ms)),c
  3445  0012CE  6E02               	call	_sleep	;wreg free
  3446  0012D0  ECF0  F02D         	line	228
  3447                           ;main.c: 228:  Beep(369, 126);
  3448                           	movlw	high(092h)
  3449  0012D4  0E00               	movwf	((c:Beep@frequency+1)),c
  3450  0012D6  6E4C               	movlw	low(092h)
  3451  0012D8  0E92               	movwf	((c:Beep@frequency)),c
  3452  0012DA  6E4B               	movlw	high(05Ah)
  3453  0012DC  0E00               	movwf	((c:Beep@duration+1)),c
  3454  0012DE  6E4E               	movlw	low(05Ah)
  3455  0012E0  0E5A               	movwf	((c:Beep@duration)),c
  3456  0012E2  6E4D               	call	_Beep	;wreg free
  3457  0012E4  EC8E  F02B         	line	229
  3458                           ;main.c: 229:  sleep(117);
  3459                           	movlw	high(020h)
  3460  0012E8  0E00               	movwf	((c:sleep@ms+1)),c
  3461  0012EA  6E03               	movlw	low(020h)
  3462  0012EC  0E20               	movwf	((c:sleep@ms)),c
  3463  0012EE  6E02               	call	_sleep	;wreg free
  3464  0012F0  ECF0  F02D         	line	230
  3465                           ;main.c: 230:  Beep(587, 309);
  3466                           	movlw	high(08Ah)
  3467  0012F4  0E00               	movwf	((c:Beep@frequency+1)),c
  3468  0012F6  6E4C               	movlw	low(08Ah)
  3469  0012F8  0E8A               	movwf	((c:Beep@frequency)),c
  3470  0012FA  6E4B               	movlw	high(057h)
  3471  0012FC  0E00               	movwf	((c:Beep@duration+1)),c
  3472  0012FE  6E4E               	movlw	low(057h)
  3473  001300  0E57               	movwf	((c:Beep@duration)),c
  3474  001302  6E4D               	call	_Beep	;wreg free
  3475  001304  EC8E  F02B         	line	231
  3476                           ;main.c: 231:  sleep(60);
  3477                           	movlw	high(032h)
  3478  001308  0E00               	movwf	((c:sleep@ms+1)),c
  3479  00130A  6E03               	movlw	low(032h)
  3480  00130C  0E32               	movwf	((c:sleep@ms)),c
  3481  00130E  6E02               	call	_sleep	;wreg free
  3482  001310  ECF0  F02D         	line	232
  3483                           ;main.c: 232:  Beep(554, 100);
  3484                           	movlw	high(07Bh)
  3485  001314  0E00               	movwf	((c:Beep@frequency+1)),c
  3486  001316  6E4C               	movlw	low(07Bh)
  3487  001318  0E7B               	movwf	((c:Beep@frequency)),c
  3488  00131A  6E4B               	movlw	high(076h)
  3489  00131C  0E00               	movwf	((c:Beep@duration+1)),c
  3490  00131E  6E4E               	movlw	low(076h)
  3491  001320  0E76               	movwf	((c:Beep@duration)),c
  3492  001322  6E4D               	call	_Beep	;wreg free
  3493  001324  EC8E  F02B         	line	233
  3494                           ;main.c: 233:  sleep(22);
  3495                           	movlw	high(07Ch)
  3496  001328  0E00               	movwf	((c:sleep@ms+1)),c
  3497  00132A  6E03               	movlw	low(07Ch)
  3498  00132C  0E7C               	movwf	((c:sleep@ms)),c
  3499  00132E  6E02               	call	_sleep	;wreg free
  3500  001330  ECF0  F02D         	line	234
  3501                           ;main.c: 234:  Beep(587, 305);
  3502                           	movlw	high(0496h)
  3503  001334  0E04               	movwf	((c:Beep@frequency+1)),c
  3504  001336  6E4C               	movlw	low(0496h)
  3505  001338  0E96               	movwf	((c:Beep@frequency)),c
  3506  00133A  6E4B               	movlw	high(059h)
  3507  00133C  0E00               	movwf	((c:Beep@duration+1)),c
  3508  00133E  6E4E               	movlw	low(059h)
  3509  001340  0E59               	movwf	((c:Beep@duration)),c
  3510  001342  6E4D               	call	_Beep	;wreg free
  3511  001344  EC8E  F02B         	line	235
  3512                           ;main.c: 235:  sleep(68);
  3513                           	movlw	high(016h)
  3514  001348  0E00               	movwf	((c:sleep@ms+1)),c
  3515  00134A  6E03               	movlw	low(016h)
  3516  00134C  0E16               	movwf	((c:sleep@ms)),c
  3517  00134E  6E02               	call	_sleep	;wreg free
  3518  001350  ECF0  F02D         	line	236
  3519                           ;main.c: 236:  Beep(987, 78);
  3520                           	movlw	high(03DBh)
  3521  001354  0E03               	movwf	((c:Beep@frequency+1)),c
  3522  001356  6E4C               	movlw	low(03DBh)
  3523  001358  0EDB               	movwf	((c:Beep@frequency)),c
  3524  00135A  6E4B               	movlw	high(03Eh)
  3525  00135C  0E00               	movwf	((c:Beep@duration+1)),c
  3526  00135E  6E4E               	movlw	low(03Eh)
  3527  001360  0E3E               	movwf	((c:Beep@duration)),c
  3528  001362  6E4D               	call	_Beep	;wreg free
  3529  001364  EC8E  F02B         	line	237
  3530                           ;main.c: 237:  sleep(43);
  3531                           	movlw	high(055h)
  3532  001368  0E00               	movwf	((c:sleep@ms+1)),c
  3533  00136A  6E03               	movlw	low(055h)
  3534  00136C  0E55               	movwf	((c:sleep@ms)),c
  3535  00136E  6E02               	call	_sleep	;wreg free
  3536  001370  ECF0  F02D         	line	238
  3537                           ;main.c: 238:  Beep(587, 193);
  3538                           	movlw	high(02E3h)
  3539  001374  0E02               	movwf	((c:Beep@frequency+1)),c
  3540  001376  6E4C               	movlw	low(02E3h)
  3541  001378  0EE3               	movwf	((c:Beep@frequency)),c
  3542  00137A  6E4B               	movlw	high(0CFh)
  3543  00137C  0E00               	movwf	((c:Beep@duration+1)),c
  3544  00137E  6E4E               	movlw	low(0CFh)
  3545  001380  0ECF               	movwf	((c:Beep@duration)),c
  3546  001382  6E4D               	call	_Beep	;wreg free
  3547  001384  EC8E  F02B         	line	239
  3548                           ;main.c: 239:  sleep(50);
  3549                           	movlw	high(01Bh)
  3550  001388  0E00               	movwf	((c:sleep@ms+1)),c
  3551  00138A  6E03               	movlw	low(01Bh)
  3552  00138C  0E1B               	movwf	((c:sleep@ms)),c
  3553  00138E  6E02               	call	_sleep	;wreg free
  3554  001390  ECF0  F02D         	line	240
  3555                           ;main.c: 240:  Beep(440, 133);
  3556                           	movlw	high(07Bh)
  3557  001394  0E00               	movwf	((c:Beep@frequency+1)),c
  3558  001396  6E4C               	movlw	low(07Bh)
  3559  001398  0E7B               	movwf	((c:Beep@frequency)),c
  3560  00139A  6E4B               	movlw	high(07Bh)
  3561  00139C  0E00               	movwf	((c:Beep@duration+1)),c
  3562  00139E  6E4E               	movlw	low(07Bh)
  3563  0013A0  0E7B               	movwf	((c:Beep@duration)),c
  3564  0013A2  6E4D               	call	_Beep	;wreg free
  3565  0013A4  EC8E  F02B         	line	241
  3566                           ;main.c: 241:  sleep(2);
  3567                           	movlw	high(07Eh)
  3568  0013A8  0E00               	movwf	((c:sleep@ms+1)),c
  3569  0013AA  6E03               	movlw	low(07Eh)
  3570  0013AC  0E7E               	movwf	((c:sleep@ms)),c
  3571  0013AE  6E02               	call	_sleep	;wreg free
  3572  0013B0  ECF0  F02D         	line	242
  3573                           ;main.c: 242:  Beep(659, 56);
  3574                           	movlw	high(024Bh)
  3575  0013B4  0E02               	movwf	((c:Beep@frequency+1)),c
  3576  0013B6  6E4C               	movlw	low(024Bh)
  3577  0013B8  0E4B               	movwf	((c:Beep@frequency)),c
  3578  0013BA  6E4B               	movlw	high(08Bh)
  3579  0013BC  0E00               	movwf	((c:Beep@duration+1)),c
  3580  0013BE  6E4E               	movlw	low(08Bh)
  3581  0013C0  0E8B               	movwf	((c:Beep@duration)),c
  3582  0013C2  6E4D               	call	_Beep	;wreg free
  3583  0013C4  EC8E  F02B         	line	243
  3584                           ;main.c: 243:  sleep(60);
  3585                           	movlw	high(066h)
  3586  0013C8  0E00               	movwf	((c:sleep@ms+1)),c
  3587  0013CA  6E03               	movlw	low(066h)
  3588  0013CC  0E66               	movwf	((c:sleep@ms)),c
  3589  0013CE  6E02               	call	_sleep	;wreg free
  3590  0013D0  ECF0  F02D         	line	244
  3591                           ;main.c: 244:  Beep(329, 118);
  3592                           	movlw	high(092h)
  3593  0013D4  0E00               	movwf	((c:Beep@frequency+1)),c
  3594  0013D6  6E4C               	movlw	low(092h)
  3595  0013D8  0E92               	movwf	((c:Beep@frequency)),c
  3596  0013DA  6E4B               	movlw	high(084h)
  3597  0013DC  0E00               	movwf	((c:Beep@duration+1)),c
  3598  0013DE  6E4E               	movlw	low(084h)
  3599  0013E0  0E84               	movwf	((c:Beep@duration)),c
  3600  0013E2  6E4D               	call	_Beep	;wreg free
  3601  0013E4  EC8E  F02B         	line	245
  3602                           ;main.c: 245:  sleep(121);
  3603                           	movlw	high(02h)
  3604  0013E8  0E00               	movwf	((c:sleep@ms+1)),c
  3605  0013EA  6E03               	movlw	low(02h)
  3606  0013EC  0E02               	movwf	((c:sleep@ms)),c
  3607  0013EE  6E02               	call	_sleep	;wreg free
  3608  0013F0  ECF0  F02D         	line	246
  3609                           ;main.c: 246:  Beep(440, 131);
  3610                           	movlw	high(024Bh)
  3611  0013F4  0E02               	movwf	((c:Beep@frequency+1)),c
  3612  0013F6  6E4C               	movlw	low(024Bh)
  3613  0013F8  0E4B               	movwf	((c:Beep@frequency)),c
  3614  0013FA  6E4B               	movlw	high(04Dh)
  3615  0013FC  0E00               	movwf	((c:Beep@duration+1)),c
  3616  0013FE  6E4E               	movlw	low(04Dh)
  3617  001400  0E4D               	movwf	((c:Beep@duration)),c
  3618  001402  6E4D               	call	_Beep	;wreg free
  3619  001404  EC8E  F02B         	line	247
  3620                           ;main.c: 247:  sleep(123);
  3621                           	movlw	high(01Dh)
  3622  001408  0E00               	movwf	((c:sleep@ms+1)),c
  3623  00140A  6E03               	movlw	low(01Dh)
  3624  00140C  0E1D               	movwf	((c:sleep@ms)),c
  3625  00140E  6E02               	call	_sleep	;wreg free
  3626  001410  ECF0  F02D         	line	248
  3627                           ;main.c: 248:  Beep(587, 123);
  3628                           	movlw	high(0125h)
  3629  001414  0E01               	movwf	((c:Beep@frequency+1)),c
  3630  001416  6E4C               	movlw	low(0125h)
  3631  001418  0E25               	movwf	((c:Beep@frequency)),c
  3632  00141A  6E4B               	movlw	high(0B9h)
  3633  00141C  0E00               	movwf	((c:Beep@duration+1)),c
  3634  00141E  6E4E               	movlw	low(0B9h)
  3635  001420  0EB9               	movwf	((c:Beep@duration)),c
  3636  001422  6E4D               	call	_Beep	;wreg free
  3637  001424  EC8E  F02B         	line	249
  3638                           ;main.c: 249:  sleep(8);
  3639                           	movlw	high(057h)
  3640  001428  0E00               	movwf	((c:sleep@ms+1)),c
  3641  00142A  6E03               	movlw	low(057h)
  3642  00142C  0E57               	movwf	((c:sleep@ms)),c
  3643  00142E  6E02               	call	_sleep	;wreg free
  3644  001430  ECF0  F02D         	line	250
  3645                           ;main.c: 250:  Beep(293, 87);
  3646                           	movlw	high(0B8h)
  3647  001434  0E00               	movwf	((c:Beep@frequency+1)),c
  3648  001436  6E4C               	movlw	low(0B8h)
  3649  001438  0EB8               	movwf	((c:Beep@frequency)),c
  3650  00143A  6E4B               	movlw	high(076h)
  3651  00143C  0E00               	movwf	((c:Beep@duration+1)),c
  3652  00143E  6E4E               	movlw	low(076h)
  3653  001440  0E76               	movwf	((c:Beep@duration)),c
  3654  001442  6E4D               	call	_Beep	;wreg free
  3655  001444  EC8E  F02B         	line	251
  3656                           ;main.c: 251:  sleep(25);
  3657                           	movlw	high(078h)
  3658  001448  0E00               	movwf	((c:sleep@ms+1)),c
  3659  00144A  6E03               	movlw	low(078h)
  3660  00144C  0E78               	movwf	((c:sleep@ms)),c
  3661  00144E  6E02               	call	_sleep	;wreg free
  3662  001450  ECF0  F02D         	line	252
  3663                           ;main.c: 252:  Beep(415, 148);
  3664                           	movlw	high(0171h)
  3665  001454  0E01               	movwf	((c:Beep@frequency+1)),c
  3666  001456  6E4C               	movlw	low(0171h)
  3667  001458  0E71               	movwf	((c:Beep@frequency)),c
  3668  00145A  6E4B               	movlw	high(07Eh)
  3669  00145C  0E00               	movwf	((c:Beep@duration+1)),c
  3670  00145E  6E4E               	movlw	low(07Eh)
  3671  001460  0E7E               	movwf	((c:Beep@duration)),c
  3672  001462  6E4D               	call	_Beep	;wreg free
  3673  001464  EC8E  F02B         	line	253
  3674                           ;main.c: 253:  sleep(94);
  3675                           	movlw	high(075h)
  3676  001468  0E00               	movwf	((c:sleep@ms+1)),c
  3677  00146A  6E03               	movlw	low(075h)
  3678  00146C  0E75               	movwf	((c:sleep@ms)),c
  3679  00146E  6E02               	call	_sleep	;wreg free
  3680  001470  ECF0  F02D         	line	254
  3681                           ;main.c: 254:  Beep(587, 116);
  3682                           	movlw	high(024Bh)
  3683  001474  0E02               	movwf	((c:Beep@frequency+1)),c
  3684  001476  6E4C               	movlw	low(024Bh)
  3685  001478  0E4B               	movwf	((c:Beep@frequency)),c
  3686  00147A  6E4B               	movlw	high(0135h)
  3687  00147C  0E01               	movwf	((c:Beep@duration+1)),c
  3688  00147E  6E4E               	movlw	low(0135h)
  3689  001480  0E35               	movwf	((c:Beep@duration)),c
  3690  001482  6E4D               	call	_Beep	;wreg free
  3691  001484  EC8E  F02B         	line	255
  3692                           ;main.c: 255:  sleep(2);
  3693                           	movlw	high(03Ch)
  3694  001488  0E00               	movwf	((c:sleep@ms+1)),c
  3695  00148A  6E03               	movlw	low(03Ch)
  3696  00148C  0E3C               	movwf	((c:sleep@ms)),c
  3697  00148E  6E02               	call	_sleep	;wreg free
  3698  001490  ECF0  F02D         	line	256
  3699                           ;main.c: 256:  Beep(246, 86);
  3700                           	movlw	high(022Ah)
  3701  001494  0E02               	movwf	((c:Beep@frequency+1)),c
  3702  001496  6E4C               	movlw	low(022Ah)
  3703  001498  0E2A               	movwf	((c:Beep@frequency)),c
  3704  00149A  6E4B               	movlw	high(064h)
  3705  00149C  0E00               	movwf	((c:Beep@duration+1)),c
  3706  00149E  6E4E               	movlw	low(064h)
  3707  0014A0  0E64               	movwf	((c:Beep@duration)),c
  3708  0014A2  6E4D               	call	_Beep	;wreg free
  3709  0014A4  EC8E  F02B         	line	257
  3710                           ;main.c: 257:  sleep(37);
  3711                           	movlw	high(016h)
  3712  0014A8  0E00               	movwf	((c:sleep@ms+1)),c
  3713  0014AA  6E03               	movlw	low(016h)
  3714  0014AC  0E16               	movwf	((c:sleep@ms)),c
  3715  0014AE  6E02               	call	_sleep	;wreg free
  3716  0014B0  ECF0  F02D         	line	258
  3717                           ;main.c: 258:  Beep(587, 115);
  3718                           	movlw	high(024Bh)
  3719  0014B4  0E02               	movwf	((c:Beep@frequency+1)),c
  3720  0014B6  6E4C               	movlw	low(024Bh)
  3721  0014B8  0E4B               	movwf	((c:Beep@frequency)),c
  3722  0014BA  6E4B               	movlw	high(0131h)
  3723  0014BC  0E01               	movwf	((c:Beep@duration+1)),c
  3724  0014BE  6E4E               	movlw	low(0131h)
  3725  0014C0  0E31               	movwf	((c:Beep@duration)),c
  3726  0014C2  6E4D               	call	_Beep	;wreg free
  3727  0014C4  EC8E  F02B         	line	259
  3728                           ;main.c: 259:  Beep(1174, 90);
  3729                           	movlw	high(044h)
  3730  0014C8  0E00               	movwf	((c:sleep@ms+1)),c
  3731  0014CA  6E03               	movlw	low(044h)
  3732  0014CC  0E44               	movwf	((c:sleep@ms)),c
  3733  0014CE  6E02               	call	_sleep	;wreg free
  3734  0014D0  ECF0  F02D         	line	260
  3735                           ;main.c: 260:  sleep(35);
  3736                           	movlw	high(03DBh)
  3737  0014D4  0E03               	movwf	((c:Beep@frequency+1)),c
  3738  0014D6  6E4C               	movlw	low(03DBh)
  3739  0014D8  0EDB               	movwf	((c:Beep@frequency)),c
  3740  0014DA  6E4B               	movlw	high(04Eh)
  3741  0014DC  0E00               	movwf	((c:Beep@duration+1)),c
  3742  0014DE  6E4E               	movlw	low(04Eh)
  3743  0014E0  0E4E               	movwf	((c:Beep@duration)),c
  3744  0014E2  6E4D               	call	_Beep	;wreg free
  3745  0014E4  EC8E  F02B         	line	261
  3746                           ;main.c: 261:  Beep(739, 173);
  3747                           	movlw	high(02Bh)
  3748  0014E8  0E00               	movwf	((c:sleep@ms+1)),c
  3749  0014EA  6E03               	movlw	low(02Bh)
  3750  0014EC  0E2B               	movwf	((c:sleep@ms)),c
  3751  0014EE  6E02               	call	_sleep	;wreg free
  3752  0014F0  ECF0  F02D         	line	262
  3753                           ;main.c: 262:  sleep(80);
  3754                           	movlw	high(024Bh)
  3755  0014F4  0E02               	movwf	((c:Beep@frequency+1)),c
  3756  0014F6  6E4C               	movlw	low(024Bh)
  3757  0014F8  0E4B               	movwf	((c:Beep@frequency)),c
  3758  0014FA  6E4B               	movlw	high(0C1h)
  3759  0014FC  0E00               	movwf	((c:Beep@duration+1)),c
  3760  0014FE  6E4E               	movlw	low(0C1h)
  3761  001500  0EC1               	movwf	((c:Beep@duration)),c
  3762  001502  6E4D               	call	_Beep	;wreg free
  3763  001504  EC8E  F02B         	line	263
  3764                           ;main.c: 263:  Beep(830, 54);
  3765                           	movlw	high(032h)
  3766  001508  0E00               	movwf	((c:sleep@ms+1)),c
  3767  00150A  6E03               	movlw	low(032h)
  3768  00150C  0E32               	movwf	((c:sleep@ms)),c
  3769  00150E  6E02               	call	_sleep	;wreg free
  3770  001510  ECF0  F02D         	line	264
  3771                           ;main.c: 264:  sleep(18);
  3772                           	movlw	high(01B8h)
  3773  001514  0E01               	movwf	((c:Beep@frequency+1)),c
  3774  001516  6E4C               	movlw	low(01B8h)
  3775  001518  0EB8               	movwf	((c:Beep@frequency)),c
  3776  00151A  6E4B               	movlw	high(085h)
  3777  00151C  0E00               	movwf	((c:Beep@duration+1)),c
  3778  00151E  6E4E               	movlw	low(085h)
  3779  001520  0E85               	movwf	((c:Beep@duration)),c
  3780  001522  6E4D               	call	_Beep	;wreg free
  3781  001524  EC8E  F02B         	line	265
  3782                           ;main.c: 265:  Beep(739, 72);
  3783                           	movlw	high(02h)
  3784  001528  0E00               	movwf	((c:sleep@ms+1)),c
  3785  00152A  6E03               	movlw	low(02h)
  3786  00152C  0E02               	movwf	((c:sleep@ms)),c
  3787  00152E  6E02               	call	_sleep	;wreg free
  3788  001530  ECF0  F02D         	line	266
  3789                           ;main.c: 266:  sleep(6);
  3790                           	movlw	high(0293h)
  3791  001534  0E02               	movwf	((c:Beep@frequency+1)),c
  3792  001536  6E4C               	movlw	low(0293h)
  3793  001538  0E93               	movwf	((c:Beep@frequency)),c
  3794  00153A  6E4B               	movlw	high(038h)
  3795  00153C  0E00               	movwf	((c:Beep@duration+1)),c
  3796  00153E  6E4E               	movlw	low(038h)
  3797  001540  0E38               	movwf	((c:Beep@duration)),c
  3798  001542  6E4D               	call	_Beep	;wreg free
  3799  001544  EC8E  F02B         	line	267
  3800                           ;main.c: 267:  Beep(830, 85);
  3801                           	movlw	high(03Ch)
  3802  001548  0E00               	movwf	((c:sleep@ms+1)),c
  3803  00154A  6E03               	movlw	low(03Ch)
  3804  00154C  0E3C               	movwf	((c:sleep@ms)),c
  3805  00154E  6E02               	call	_sleep	;wreg free
  3806  001550  ECF0  F02D         	line	268
  3807                           ;main.c: 268:  sleep(6);
  3808                           	movlw	high(0149h)
  3809  001554  0E01               	movwf	((c:Beep@frequency+1)),c
  3810  001556  6E4C               	movlw	low(0149h)
  3811  001558  0E49               	movwf	((c:Beep@frequency)),c
  3812  00155A  6E4B               	movlw	high(076h)
  3813  00155C  0E00               	movwf	((c:Beep@duration+1)),c
  3814  00155E  6E4E               	movlw	low(076h)
  3815  001560  0E76               	movwf	((c:Beep@duration)),c
  3816  001562  6E4D               	call	_Beep	;wreg free
  3817  001564  EC8E  F02B         	line	269
  3818                           ;main.c: 269:  Beep(415, 127);
  3819                           	movlw	high(079h)
  3820  001568  0E00               	movwf	((c:sleep@ms+1)),c
  3821  00156A  6E03               	movlw	low(079h)
  3822  00156C  0E79               	movwf	((c:sleep@ms)),c
  3823  00156E  6E02               	call	_sleep	;wreg free
  3824  001570  ECF0  F02D         	line	270
  3825                           ;main.c: 270:  sleep(124);
  3826                           	movlw	high(01B8h)
  3827  001574  0E01               	movwf	((c:Beep@frequency+1)),c
  3828  001576  6E4C               	movlw	low(01B8h)
  3829  001578  0EB8               	movwf	((c:Beep@frequency)),c
  3830  00157A  6E4B               	movlw	high(083h)
  3831  00157C  0E00               	movwf	((c:Beep@duration+1)),c
  3832  00157E  6E4E               	movlw	low(083h)
  3833  001580  0E83               	movwf	((c:Beep@duration)),c
  3834  001582  6E4D               	call	_Beep	;wreg free
  3835  001584  EC8E  F02B         	line	271
  3836                           ;main.c: 271:  Beep(739, 122);
  3837                           	movlw	high(07Bh)
  3838  001588  0E00               	movwf	((c:sleep@ms+1)),c
  3839  00158A  6E03               	movlw	low(07Bh)
  3840  00158C  0E7B               	movwf	((c:sleep@ms)),c
  3841  00158E  6E02               	call	_sleep	;wreg free
  3842  001590  ECF0  F02D         	line	272
  3843                           ;main.c: 272:  sleep(18);
  3844                           	movlw	high(024Bh)
  3845  001594  0E02               	movwf	((c:Beep@frequency+1)),c
  3846  001596  6E4C               	movlw	low(024Bh)
  3847  001598  0E4B               	movwf	((c:Beep@frequency)),c
  3848  00159A  6E4B               	movlw	high(07Bh)
  3849  00159C  0E00               	movwf	((c:Beep@duration+1)),c
  3850  00159E  6E4E               	movlw	low(07Bh)
  3851  0015A0  0E7B               	movwf	((c:Beep@duration)),c
  3852  0015A2  6E4D               	call	_Beep	;wreg free
  3853  0015A4  EC8E  F02B         	line	273
  3854                           ;main.c: 273:  Beep(739, 89);
  3855                           	movlw	high(08h)
  3856  0015A8  0E00               	movwf	((c:sleep@ms+1)),c
  3857  0015AA  6E03               	movlw	low(08h)
  3858  0015AC  0E08               	movwf	((c:sleep@ms)),c
  3859  0015AE  6E02               	call	_sleep	;wreg free
  3860  0015B0  ECF0  F02D         	line	274
  3861                           ;main.c: 274:  sleep(18);
  3862                           	movlw	high(0125h)
  3863  0015B4  0E01               	movwf	((c:Beep@frequency+1)),c
  3864  0015B6  6E4C               	movlw	low(0125h)
  3865  0015B8  0E25               	movwf	((c:Beep@frequency)),c
  3866  0015BA  6E4B               	movlw	high(057h)
  3867  0015BC  0E00               	movwf	((c:Beep@duration+1)),c
  3868  0015BE  6E4E               	movlw	low(057h)
  3869  0015C0  0E57               	movwf	((c:Beep@duration)),c
  3870  0015C2  6E4D               	call	_Beep	;wreg free
  3871  0015C4  EC8E  F02B         	line	275
  3872                           ;main.c: 275:  Beep(739, 119);
  3873                           	movlw	high(019h)
  3874  0015C8  0E00               	movwf	((c:sleep@ms+1)),c
  3875  0015CA  6E03               	movlw	low(019h)
  3876  0015CC  0E19               	movwf	((c:sleep@ms)),c
  3877  0015CE  6E02               	call	_sleep	;wreg free
  3878  0015D0  ECF0  F02D         	line	276
  3879                           ;main.c: 276:  sleep(22);
  3880                           	movlw	high(019Fh)
  3881  0015D4  0E01               	movwf	((c:Beep@frequency+1)),c
  3882  0015D6  6E4C               	movlw	low(019Fh)
  3883  0015D8  0E9F               	movwf	((c:Beep@frequency)),c
  3884  0015DA  6E4B               	movlw	high(094h)
  3885  0015DC  0E00               	movwf	((c:Beep@duration+1)),c
  3886  0015DE  6E4E               	movlw	low(094h)
  3887  0015E0  0E94               	movwf	((c:Beep@duration)),c
  3888  0015E2  6E4D               	call	_Beep	;wreg free
  3889  0015E4  EC8E  F02B         	line	277
  3890                           ;main.c: 277:  Beep(739, 85);
  3891                           	movlw	high(05Eh)
  3892  0015E8  0E00               	movwf	((c:sleep@ms+1)),c
  3893  0015EA  6E03               	movlw	low(05Eh)
  3894  0015EC  0E5E               	movwf	((c:sleep@ms)),c
  3895  0015EE  6E02               	call	_sleep	;wreg free
  3896  0015F0  ECF0  F02D         	line	278
  3897                           ;main.c: 278:  sleep(16);
  3898                           	movlw	high(024Bh)
  3899  0015F4  0E02               	movwf	((c:Beep@frequency+1)),c
  3900  0015F6  6E4C               	movlw	low(024Bh)
  3901  0015F8  0E4B               	movwf	((c:Beep@frequency)),c
  3902  0015FA  6E4B               	movlw	high(074h)
  3903  0015FC  0E00               	movwf	((c:Beep@duration+1)),c
  3904  0015FE  6E4E               	movlw	low(074h)
  3905  001600  0E74               	movwf	((c:Beep@duration)),c
  3906  001602  6E4D               	call	_Beep	;wreg free
  3907  001604  EC8E  F02B         	line	279
  3908                           ;main.c: 279:  Beep(246, 121);
  3909                           	movlw	high(02h)
  3910  001608  0E00               	movwf	((c:sleep@ms+1)),c
  3911  00160A  6E03               	movlw	low(02h)
  3912  00160C  0E02               	movwf	((c:sleep@ms)),c
  3913  00160E  6E02               	call	_sleep	;wreg free
  3914  001610  ECF0  F02D         	line	280
  3915                           ;main.c: 280:  sleep(18);
  3916                           	movlw	high(0F6h)
  3917  001614  0E00               	movwf	((c:Beep@frequency+1)),c
  3918  001616  6E4C               	movlw	low(0F6h)
  3919  001618  0EF6               	movwf	((c:Beep@frequency)),c
  3920  00161A  6E4B               	movlw	high(056h)
  3921  00161C  0E00               	movwf	((c:Beep@duration+1)),c
  3922  00161E  6E4E               	movlw	low(056h)
  3923  001620  0E56               	movwf	((c:Beep@duration)),c
  3924  001622  6E4D               	call	_Beep	;wreg free
  3925  001624  EC8E  F02B         	line	281
  3926                           ;main.c: 281:  Beep(739, 67);
  3927                           	movlw	high(025h)
  3928  001628  0E00               	movwf	((c:sleep@ms+1)),c
  3929  00162A  6E03               	movlw	low(025h)
  3930  00162C  0E25               	movwf	((c:sleep@ms)),c
  3931  00162E  6E02               	call	_sleep	;wreg free
  3932  001630  ECF0  F02D         	line	282
  3933                           ;main.c: 282:  sleep(47);
  3934                           	movlw	high(024Bh)
  3935  001634  0E02               	movwf	((c:Beep@frequency+1)),c
  3936  001636  6E4C               	movlw	low(024Bh)
  3937  001638  0E4B               	movwf	((c:Beep@frequency)),c
  3938  00163A  6E4B               	movlw	high(073h)
  3939  00163C  0E00               	movwf	((c:Beep@duration+1)),c
  3940  00163E  6E4E               	movlw	low(073h)
  3941  001640  0E73               	movwf	((c:Beep@duration)),c
  3942  001642  6E4D               	call	_Beep	;wreg free
  3943  001644  EC8E  F02B         	line	283
  3944                           ;main.c: 283:  Beep(207, 117);
  3945                           	movlw	high(0496h)
  3946  001648  0E04               	movwf	((c:Beep@frequency+1)),c
  3947  00164A  6E4C               	movlw	low(0496h)
  3948  00164C  0E96               	movwf	((c:Beep@frequency)),c
  3949  00164E  6E4B               	movlw	high(05Ah)
  3950  001650  0E00               	movwf	((c:Beep@duration+1)),c
  3951  001652  6E4E               	movlw	low(05Ah)
  3952  001654  0E5A               	movwf	((c:Beep@duration)),c
  3953  001656  6E4D               	call	_Beep	;wreg free
  3954  001658  EC8E  F02B         	line	284
  3955                           ;main.c: 284:  sleep(8);
  3956                           	movlw	high(023h)
  3957  00165C  0E00               	movwf	((c:sleep@ms+1)),c
  3958  00165E  6E03               	movlw	low(023h)
  3959  001660  0E23               	movwf	((c:sleep@ms)),c
  3960  001662  6E02               	call	_sleep	;wreg free
  3961  001664  ECF0  F02D         	line	285
  3962                           ;main.c: 285:  Beep(739, 85);
  3963                           	movlw	high(02E3h)
  3964  001668  0E02               	movwf	((c:Beep@frequency+1)),c
  3965  00166A  6E4C               	movlw	low(02E3h)
  3966  00166C  0EE3               	movwf	((c:Beep@frequency)),c
  3967  00166E  6E4B               	movlw	high(0ADh)
  3968  001670  0E00               	movwf	((c:Beep@duration+1)),c
  3969  001672  6E4E               	movlw	low(0ADh)
  3970  001674  0EAD               	movwf	((c:Beep@duration)),c
  3971  001676  6E4D               	call	_Beep	;wreg free
  3972  001678  EC8E  F02B         	line	286
  3973                           ;main.c: 286:  sleep(35);
  3974                           	movlw	high(050h)
  3975  00167C  0E00               	movwf	((c:sleep@ms+1)),c
  3976  00167E  6E03               	movlw	low(050h)
  3977  001680  0E50               	movwf	((c:sleep@ms)),c
  3978  001682  6E02               	call	_sleep	;wreg free
  3979  001684  ECF0  F02D         	line	287
  3980                           ;main.c: 287:  Beep(698, 101);
  3981                           	movlw	high(033Eh)
  3982  001688  0E03               	movwf	((c:Beep@frequency+1)),c
  3983  00168A  6E4C               	movlw	low(033Eh)
  3984  00168C  0E3E               	movwf	((c:Beep@frequency)),c
  3985  00168E  6E4B               	movlw	high(036h)
  3986  001690  0E00               	movwf	((c:Beep@duration+1)),c
  3987  001692  6E4E               	movlw	low(036h)
  3988  001694  0E36               	movwf	((c:Beep@duration)),c
  3989  001696  6E4D               	call	_Beep	;wreg free
  3990  001698  EC8E  F02B         	line	288
  3991                           ;main.c: 288:  sleep(26);
  3992                           	movlw	high(012h)
  3993  00169C  0E00               	movwf	((c:sleep@ms+1)),c
  3994  00169E  6E03               	movlw	low(012h)
  3995  0016A0  0E12               	movwf	((c:sleep@ms)),c
  3996  0016A2  6E02               	call	_sleep	;wreg free
  3997  0016A4  ECF0  F02D         	line	289
  3998                           ;main.c: 289:  Beep(830, 74);
  3999                           	movlw	high(02E3h)
  4000  0016A8  0E02               	movwf	((c:Beep@frequency+1)),c
  4001  0016AA  6E4C               	movlw	low(02E3h)
  4002  0016AC  0EE3               	movwf	((c:Beep@frequency)),c
  4003  0016AE  6E4B               	movlw	high(048h)
  4004  0016B0  0E00               	movwf	((c:Beep@duration+1)),c
  4005  0016B2  6E4E               	movlw	low(048h)
  4006  0016B4  0E48               	movwf	((c:Beep@duration)),c
  4007  0016B6  6E4D               	call	_Beep	;wreg free
  4008  0016B8  EC8E  F02B         	line	290
  4009                           ;main.c: 290:  sleep(43);
  4010                           	movlw	high(06h)
  4011  0016BC  0E00               	movwf	((c:sleep@ms+1)),c
  4012  0016BE  6E03               	movlw	low(06h)
  4013  0016C0  0E06               	movwf	((c:sleep@ms)),c
  4014  0016C2  6E02               	call	_sleep	;wreg free
  4015  0016C4  ECF0  F02D         	line	291
  4016                           ;main.c: 291:  Beep(987, 109);
  4017                           	movlw	high(033Eh)
  4018  0016C8  0E03               	movwf	((c:Beep@frequency+1)),c
  4019  0016CA  6E4C               	movlw	low(033Eh)
  4020  0016CC  0E3E               	movwf	((c:Beep@frequency)),c
  4021  0016CE  6E4B               	movlw	high(055h)
  4022  0016D0  0E00               	movwf	((c:Beep@duration+1)),c
  4023  0016D2  6E4E               	movlw	low(055h)
  4024  0016D4  0E55               	movwf	((c:Beep@duration)),c
  4025  0016D6  6E4D               	call	_Beep	;wreg free
  4026  0016D8  EC8E  F02B         	line	292
  4027                           ;main.c: 292:  sleep(16);
  4028                           	movlw	high(06h)
  4029  0016DC  0E00               	movwf	((c:sleep@ms+1)),c
  4030  0016DE  6E03               	movlw	low(06h)
  4031  0016E0  0E06               	movwf	((c:sleep@ms)),c
  4032  0016E2  6E02               	call	_sleep	;wreg free
  4033  0016E4  ECF0  F02D         	line	293
  4034                           ;main.c: 293:  Beep(830, 64);
  4035                           	movlw	high(019Fh)
  4036  0016E8  0E01               	movwf	((c:Beep@frequency+1)),c
  4037  0016EA  6E4C               	movlw	low(019Fh)
  4038  0016EC  0E9F               	movwf	((c:Beep@frequency)),c
  4039  0016EE  6E4B               	movlw	high(07Fh)
  4040  0016F0  0E00               	movwf	((c:Beep@duration+1)),c
  4041  0016F2  6E4E               	movlw	low(07Fh)
  4042  0016F4  0E7F               	movwf	((c:Beep@duration)),c
  4043  0016F6  6E4D               	call	_Beep	;wreg free
  4044  0016F8  EC8E  F02B         	line	294
  4045                           ;main.c: 294:  sleep(58);
  4046                           	movlw	high(07Ch)
  4047  0016FC  0E00               	movwf	((c:sleep@ms+1)),c
  4048  0016FE  6E03               	movlw	low(07Ch)
  4049  001700  0E7C               	movwf	((c:sleep@ms)),c
  4050  001702  6E02               	call	_sleep	;wreg free
  4051  001704  ECF0  F02D         	line	295
  4052                           ;main.c: 295:  Beep(184, 113);
  4053                           	movlw	high(02E3h)
  4054  001708  0E02               	movwf	((c:Beep@frequency+1)),c
  4055  00170A  6E4C               	movlw	low(02E3h)
  4056  00170C  0EE3               	movwf	((c:Beep@frequency)),c
  4057  00170E  6E4B               	movlw	high(07Ah)
  4058  001710  0E00               	movwf	((c:Beep@duration+1)),c
  4059  001712  6E4E               	movlw	low(07Ah)
  4060  001714  0E7A               	movwf	((c:Beep@duration)),c
  4061  001716  6E4D               	call	_Beep	;wreg free
  4062  001718  EC8E  F02B         	line	296
  4063                           ;main.c: 296:  sleep(18);
  4064                           	movlw	high(012h)
  4065  00171C  0E00               	movwf	((c:sleep@ms+1)),c
  4066  00171E  6E03               	movlw	low(012h)
  4067  001720  0E12               	movwf	((c:sleep@ms)),c
  4068  001722  6E02               	call	_sleep	;wreg free
  4069  001724  ECF0  F02D         	line	297
  4070                           ;main.c: 297:  Beep(830, 68);
  4071                           	movlw	high(02E3h)
  4072  001728  0E02               	movwf	((c:Beep@frequency+1)),c
  4073  00172A  6E4C               	movlw	low(02E3h)
  4074  00172C  0EE3               	movwf	((c:Beep@frequency)),c
  4075  00172E  6E4B               	movlw	high(059h)
  4076  001730  0E00               	movwf	((c:Beep@duration+1)),c
  4077  001732  6E4E               	movlw	low(059h)
  4078  001734  0E59               	movwf	((c:Beep@duration)),c
  4079  001736  6E4D               	call	_Beep	;wreg free
  4080  001738  EC8E  F02B         	line	298
  4081                           ;main.c: 298:  sleep(45);
  4082                           	movlw	high(012h)
  4083  00173C  0E00               	movwf	((c:sleep@ms+1)),c
  4084  00173E  6E03               	movlw	low(012h)
  4085  001740  0E12               	movwf	((c:sleep@ms)),c
  4086  001742  6E02               	call	_sleep	;wreg free
  4087  001744  ECF0  F02D         	line	299
  4088                           ;main.c: 299:  Beep(739, 128);
  4089                           	movlw	high(02E3h)
  4090  001748  0E02               	movwf	((c:Beep@frequency+1)),c
  4091  00174A  6E4C               	movlw	low(02E3h)
  4092  00174C  0EE3               	movwf	((c:Beep@frequency)),c
  4093  00174E  6E4B               	movlw	high(077h)
  4094  001750  0E00               	movwf	((c:Beep@duration+1)),c
  4095  001752  6E4E               	movlw	low(077h)
  4096  001754  0E77               	movwf	((c:Beep@duration)),c
  4097  001756  6E4D               	call	_Beep	;wreg free
  4098  001758  EC8E  F02B         	line	300
  4099                           ;main.c: 300:  sleep(10);
  4100                           	movlw	high(016h)
  4101  00175C  0E00               	movwf	((c:sleep@ms+1)),c
  4102  00175E  6E03               	movlw	low(016h)
  4103  001760  0E16               	movwf	((c:sleep@ms)),c
  4104  001762  6E02               	call	_sleep	;wreg free
  4105  001764  ECF0  F02D         	line	301
  4106                           ;main.c: 301:  Beep(830, 74);
  4107                           	movlw	high(02E3h)
  4108  001768  0E02               	movwf	((c:Beep@frequency+1)),c
  4109  00176A  6E4C               	movlw	low(02E3h)
  4110  00176C  0EE3               	movwf	((c:Beep@frequency)),c
  4111  00176E  6E4B               	movlw	high(055h)
  4112  001770  0E00               	movwf	((c:Beep@duration+1)),c
  4113  001772  6E4E               	movlw	low(055h)
  4114  001774  0E55               	movwf	((c:Beep@duration)),c
  4115  001776  6E4D               	call	_Beep	;wreg free
  4116  001778  EC8E  F02B         	line	302
  4117                           ;main.c: 302:  sleep(27);
  4118                           	movlw	high(010h)
  4119  00177C  0E00               	movwf	((c:sleep@ms+1)),c
  4120  00177E  6E03               	movlw	low(010h)
  4121  001780  0E10               	movwf	((c:sleep@ms)),c
  4122  001782  6E02               	call	_sleep	;wreg free
  4123  001784  ECF0  F02D         	line	303
  4124                           ;main.c: 303:  Beep(739, 118);
  4125                           	movlw	high(0F6h)
  4126  001788  0E00               	movwf	((c:Beep@frequency+1)),c
  4127  00178A  6E4C               	movlw	low(0F6h)
  4128  00178C  0EF6               	movwf	((c:Beep@frequency)),c
  4129  00178E  6E4B               	movlw	high(079h)
  4130  001790  0E00               	movwf	((c:Beep@duration+1)),c
  4131  001792  6E4E               	movlw	low(079h)
  4132  001794  0E79               	movwf	((c:Beep@duration)),c
  4133  001796  6E4D               	call	_Beep	;wreg free
  4134  001798  EC8E  F02B         	line	304
  4135                           ;main.c: 304:  sleep(30);
  4136                           	movlw	high(012h)
  4137  00179C  0E00               	movwf	((c:sleep@ms+1)),c
  4138  00179E  6E03               	movlw	low(012h)
  4139  0017A0  0E12               	movwf	((c:sleep@ms)),c
  4140  0017A2  6E02               	call	_sleep	;wreg free
  4141  0017A4  ECF0  F02D         	line	305
  4142                           ;main.c: 305:  Beep(880, 61);
  4143                           	movlw	high(02E3h)
  4144  0017A8  0E02               	movwf	((c:Beep@frequency+1)),c
  4145  0017AA  6E4C               	movlw	low(02E3h)
  4146  0017AC  0EE3               	movwf	((c:Beep@frequency)),c
  4147  0017AE  6E4B               	movlw	high(043h)
  4148  0017B0  0E00               	movwf	((c:Beep@duration+1)),c
  4149  0017B2  6E4E               	movlw	low(043h)
  4150  0017B4  0E43               	movwf	((c:Beep@duration)),c
  4151  0017B6  6E4D               	call	_Beep	;wreg free
  4152  0017B8  EC8E  F02B         	line	306
  4153                           ;main.c: 306:  sleep(43);
  4154                           	movlw	high(02Fh)
  4155  0017BC  0E00               	movwf	((c:sleep@ms+1)),c
  4156  0017BE  6E03               	movlw	low(02Fh)
  4157  0017C0  0E2F               	movwf	((c:sleep@ms)),c
  4158  0017C2  6E02               	call	_sleep	;wreg free
  4159  0017C4  ECF0  F02D         	line	307
  4160                           ;main.c: 307:  Beep(554, 119);
  4161                           	movlw	high(0CFh)
  4162  0017C8  0E00               	movwf	((c:Beep@frequency+1)),c
  4163  0017CA  6E4C               	movlw	low(0CFh)
  4164  0017CC  0ECF               	movwf	((c:Beep@frequency)),c
  4165  0017CE  6E4B               	movlw	high(075h)
  4166  0017D0  0E00               	movwf	((c:Beep@duration+1)),c
  4167  0017D2  6E4E               	movlw	low(075h)
  4168  0017D4  0E75               	movwf	((c:Beep@duration)),c
  4169  0017D6  6E4D               	call	_Beep	;wreg free
  4170  0017D8  EC8E  F02B         	line	308
  4171                           ;main.c: 308:  sleep(10);
  4172                           	movlw	high(08h)
  4173  0017DC  0E00               	movwf	((c:sleep@ms+1)),c
  4174  0017DE  6E03               	movlw	low(08h)
  4175  0017E0  0E08               	movwf	((c:sleep@ms)),c
  4176  0017E2  6E02               	call	_sleep	;wreg free
  4177  0017E4  ECF0  F02D         	line	309
  4178                           ;main.c: 309:  Beep(698, 118);
  4179                           	movlw	high(02E3h)
  4180  0017E8  0E02               	movwf	((c:Beep@frequency+1)),c
  4181  0017EA  6E4C               	movlw	low(02E3h)
  4182  0017EC  0EE3               	movwf	((c:Beep@frequency)),c
  4183  0017EE  6E4B               	movlw	high(055h)
  4184  0017F0  0E00               	movwf	((c:Beep@duration+1)),c
  4185  0017F2  6E4E               	movlw	low(055h)
  4186  0017F4  0E55               	movwf	((c:Beep@duration)),c
  4187  0017F6  6E4D               	call	_Beep	;wreg free
  4188  0017F8  EC8E  F02B         	line	310
  4189                           ;main.c: 310:  sleep(10);
  4190                           	movlw	high(023h)
  4191  0017FC  0E00               	movwf	((c:sleep@ms+1)),c
  4192  0017FE  6E03               	movlw	low(023h)
  4193  001800  0E23               	movwf	((c:sleep@ms)),c
  4194  001802  6E02               	call	_sleep	;wreg free
  4195  001804  ECF0  F02D         	line	311
  4196                           ;main.c: 311:  Beep(739, 107);
  4197                           	movlw	high(02BAh)
  4198  001808  0E02               	movwf	((c:Beep@frequency+1)),c
  4199  00180A  6E4C               	movlw	low(02BAh)
  4200  00180C  0EBA               	movwf	((c:Beep@frequency)),c
  4201  00180E  6E4B               	movlw	high(065h)
  4202  001810  0E00               	movwf	((c:Beep@duration+1)),c
  4203  001812  6E4E               	movlw	low(065h)
  4204  001814  0E65               	movwf	((c:Beep@duration)),c
  4205  001816  6E4D               	call	_Beep	;wreg free
  4206  001818  EC8E  F02B         	line	312
  4207                           ;main.c: 312:  sleep(20);
  4208                           	movlw	high(01Ah)
  4209  00181C  0E00               	movwf	((c:sleep@ms+1)),c
  4210  00181E  6E03               	movlw	low(01Ah)
  4211  001820  0E1A               	movwf	((c:sleep@ms)),c
  4212  001822  6E02               	call	_sleep	;wreg free
  4213  001824  ECF0  F02D         	line	313
  4214                           ;main.c: 313:  Beep(987, 67);
  4215                           	movlw	high(033Eh)
  4216  001828  0E03               	movwf	((c:Beep@frequency+1)),c
  4217  00182A  6E4C               	movlw	low(033Eh)
  4218  00182C  0E3E               	movwf	((c:Beep@frequency)),c
  4219  00182E  6E4B               	movlw	high(04Ah)
  4220  001830  0E00               	movwf	((c:Beep@duration+1)),c
  4221  001832  6E4E               	movlw	low(04Ah)
  4222  001834  0E4A               	movwf	((c:Beep@duration)),c
  4223  001836  6E4D               	call	_Beep	;wreg free
  4224  001838  EC8E  F02B         	line	314
  4225                           ;main.c: 314:  sleep(56);
  4226                           	movlw	high(02Bh)
  4227  00183C  0E00               	movwf	((c:sleep@ms+1)),c
  4228  00183E  6E03               	movlw	low(02Bh)
  4229  001840  0E2B               	movwf	((c:sleep@ms)),c
  4230  001842  6E02               	call	_sleep	;wreg free
  4231  001844  ECF0  F02D         	line	315
  4232                           ;main.c: 315:  Beep(493, 122);
  4233                           	movlw	high(03DBh)
  4234  001848  0E03               	movwf	((c:Beep@frequency+1)),c
  4235  00184A  6E4C               	movlw	low(03DBh)
  4236  00184C  0EDB               	movwf	((c:Beep@frequency)),c
  4237  00184E  6E4B               	movlw	high(06Dh)
  4238  001850  0E00               	movwf	((c:Beep@duration+1)),c
  4239  001852  6E4E               	movlw	low(06Dh)
  4240  001854  0E6D               	movwf	((c:Beep@duration)),c
  4241  001856  6E4D               	call	_Beep	;wreg free
  4242  001858  EC8E  F02B         	line	316
  4243                           ;main.c: 316:  sleep(123);
  4244                           	movlw	high(010h)
  4245  00185C  0E00               	movwf	((c:sleep@ms+1)),c
  4246  00185E  6E03               	movlw	low(010h)
  4247  001860  0E10               	movwf	((c:sleep@ms)),c
  4248  001862  6E02               	call	_sleep	;wreg free
  4249  001864  ECF0  F02D         	line	317
  4250                           ;main.c: 317:  Beep(739, 107);
  4251                           	movlw	high(033Eh)
  4252  001868  0E03               	movwf	((c:Beep@frequency+1)),c
  4253  00186A  6E4C               	movlw	low(033Eh)
  4254  00186C  0E3E               	movwf	((c:Beep@frequency)),c
  4255  00186E  6E4B               	movlw	high(040h)
  4256  001870  0E00               	movwf	((c:Beep@duration+1)),c
  4257  001872  6E4E               	movlw	low(040h)
  4258  001874  0E40               	movwf	((c:Beep@duration)),c
  4259  001876  6E4D               	call	_Beep	;wreg free
  4260  001878  EC8E  F02B         	line	318
  4261                           ;main.c: 318:  sleep(25);
  4262                           	movlw	high(03Ah)
  4263  00187C  0E00               	movwf	((c:sleep@ms+1)),c
  4264  00187E  6E03               	movlw	low(03Ah)
  4265  001880  0E3A               	movwf	((c:sleep@ms)),c
  4266  001882  6E02               	call	_sleep	;wreg free
  4267  001884  ECF0  F02D         	line	319
  4268                           ;main.c: 319:  Beep(1108, 90);
  4269                           	movlw	high(0B8h)
  4270  001888  0E00               	movwf	((c:Beep@frequency+1)),c
  4271  00188A  6E4C               	movlw	low(0B8h)
  4272  00188C  0EB8               	movwf	((c:Beep@frequency)),c
  4273  00188E  6E4B               	movlw	high(071h)
  4274  001890  0E00               	movwf	((c:Beep@duration+1)),c
  4275  001892  6E4E               	movlw	low(071h)
  4276  001894  0E71               	movwf	((c:Beep@duration)),c
  4277  001896  6E4D               	call	_Beep	;wreg free
  4278  001898  EC8E  F02B         	line	320
  4279                           ;main.c: 320:  sleep(27);
  4280                           	movlw	high(012h)
  4281  00189C  0E00               	movwf	((c:sleep@ms+1)),c
  4282  00189E  6E03               	movlw	low(012h)
  4283  0018A0  0E12               	movwf	((c:sleep@ms)),c
  4284  0018A2  6E02               	call	_sleep	;wreg free
  4285  0018A4  ECF0  F02D         	line	321
  4286                           ;main.c: 321:  Beep(739, 124);
  4287                           	movlw	high(033Eh)
  4288  0018A8  0E03               	movwf	((c:Beep@frequency+1)),c
  4289  0018AA  6E4C               	movlw	low(033Eh)
  4290  0018AC  0E3E               	movwf	((c:Beep@frequency)),c
  4291  0018AE  6E4B               	movlw	high(044h)
  4292  0018B0  0E00               	movwf	((c:Beep@duration+1)),c
  4293  0018B2  6E4E               	movlw	low(044h)
  4294  0018B4  0E44               	movwf	((c:Beep@duration)),c
  4295  0018B6  6E4D               	call	_Beep	;wreg free
  4296  0018B8  EC8E  F02B         	line	322
  4297                           ;main.c: 322:  Beep(698, 144);
  4298                           	movlw	high(02Dh)
  4299  0018BC  0E00               	movwf	((c:sleep@ms+1)),c
  4300  0018BE  6E03               	movlw	low(02Dh)
  4301  0018C0  0E2D               	movwf	((c:sleep@ms)),c
  4302  0018C2  6E02               	call	_sleep	;wreg free
  4303  0018C4  ECF0  F02D         	line	323
  4304                           ;main.c: 323:  sleep(99);
  4305                           	movlw	high(02E3h)
  4306  0018C8  0E02               	movwf	((c:Beep@frequency+1)),c
  4307  0018CA  6E4C               	movlw	low(02E3h)
  4308  0018CC  0EE3               	movwf	((c:Beep@frequency)),c
  4309  0018CE  6E4B               	movlw	high(080h)
  4310  0018D0  0E00               	movwf	((c:Beep@duration+1)),c
  4311  0018D2  6E4E               	movlw	low(080h)
  4312  0018D4  0E80               	movwf	((c:Beep@duration)),c
  4313  0018D6  6E4D               	call	_Beep	;wreg free
  4314  0018D8  EC8E  F02B         	line	324
  4315                           ;main.c: 324:  Beep(1174, 75);
  4316                           	movlw	high(0Ah)
  4317  0018DC  0E00               	movwf	((c:sleep@ms+1)),c
  4318  0018DE  6E03               	movlw	low(0Ah)
  4319  0018E0  0E0A               	movwf	((c:sleep@ms)),c
  4320  0018E2  6E02               	call	_sleep	;wreg free
  4321  0018E4  ECF0  F02D         	line	325
  4322                           ;main.c: 325:  sleep(41);
  4323                           	movlw	high(033Eh)
  4324  0018E8  0E03               	movwf	((c:Beep@frequency+1)),c
  4325  0018EA  6E4C               	movlw	low(033Eh)
  4326  0018EC  0E3E               	movwf	((c:Beep@frequency)),c
  4327  0018EE  6E4B               	movlw	high(04Ah)
  4328  0018F0  0E00               	movwf	((c:Beep@duration+1)),c
  4329  0018F2  6E4E               	movlw	low(04Ah)
  4330  0018F4  0E4A               	movwf	((c:Beep@duration)),c
  4331  0018F6  6E4D               	call	_Beep	;wreg free
  4332  0018F8  EC8E  F02B         	line	326
  4333                           ;main.c: 326:  Beep(293, 123);
  4334                           	movlw	high(01Bh)
  4335  0018FC  0E00               	movwf	((c:sleep@ms+1)),c
  4336  0018FE  6E03               	movlw	low(01Bh)
  4337  001900  0E1B               	movwf	((c:sleep@ms)),c
  4338  001902  6E02               	call	_sleep	;wreg free
  4339  001904  ECF0  F02D         	line	327
  4340                           ;main.c: 327:  sleep(120);
  4341                           	movlw	high(02E3h)
  4342  001908  0E02               	movwf	((c:Beep@frequency+1)),c
  4343  00190A  6E4C               	movlw	low(02E3h)
  4344  00190C  0EE3               	movwf	((c:Beep@frequency)),c
  4345  00190E  6E4B               	movlw	high(076h)
  4346  001910  0E00               	movwf	((c:Beep@duration+1)),c
  4347  001912  6E4E               	movlw	low(076h)
  4348  001914  0E76               	movwf	((c:Beep@duration)),c
  4349  001916  6E4D               	call	_Beep	;wreg free
  4350  001918  EC8E  F02B         	line	328
  4351                           ;main.c: 328:  Beep(246, 124);
  4352                           	movlw	high(01Eh)
  4353  00191C  0E00               	movwf	((c:sleep@ms+1)),c
  4354  00191E  6E03               	movlw	low(01Eh)
  4355  001920  0E1E               	movwf	((c:sleep@ms)),c
  4356  001922  6E02               	call	_sleep	;wreg free
  4357  001924  ECF0  F02D         	line	329
  4358                           ;main.c: 329:  sleep(115);
  4359                           	movlw	high(0370h)
  4360  001928  0E03               	movwf	((c:Beep@frequency+1)),c
  4361  00192A  6E4C               	movlw	low(0370h)
  4362  00192C  0E70               	movwf	((c:Beep@frequency)),c
  4363  00192E  6E4B               	movlw	high(03Dh)
  4364  001930  0E00               	movwf	((c:Beep@duration+1)),c
  4365  001932  6E4E               	movlw	low(03Dh)
  4366  001934  0E3D               	movwf	((c:Beep@duration)),c
  4367  001936  6E4D               	call	_Beep	;wreg free
  4368  001938  EC8E  F02B         	line	330
  4369                           ;main.c: 330:  Beep(1108, 76);
  4370                           	movlw	high(02Bh)
  4371  00193C  0E00               	movwf	((c:sleep@ms+1)),c
  4372  00193E  6E03               	movlw	low(02Bh)
  4373  001940  0E2B               	movwf	((c:sleep@ms)),c
  4374  001942  6E02               	call	_sleep	;wreg free
  4375  001944  ECF0  F02D         	line	331
  4376                           ;main.c: 331:  sleep(52);
  4377                           	movlw	high(022Ah)
  4378  001948  0E02               	movwf	((c:Beep@frequency+1)),c
  4379  00194A  6E4C               	movlw	low(022Ah)
  4380  00194C  0E2A               	movwf	((c:Beep@frequency)),c
  4381  00194E  6E4B               	movlw	high(077h)
  4382  001950  0E00               	movwf	((c:Beep@duration+1)),c
  4383  001952  6E4E               	movlw	low(077h)
  4384  001954  0E77               	movwf	((c:Beep@duration)),c
  4385  001956  6E4D               	call	_Beep	;wreg free
  4386  001958  EC8E  F02B         	line	332
  4387                           ;main.c: 332:  Beep(987, 96);
  4388                           	movlw	high(0Ah)
  4389  00195C  0E00               	movwf	((c:sleep@ms+1)),c
  4390  00195E  6E03               	movlw	low(0Ah)
  4391  001960  0E0A               	movwf	((c:sleep@ms)),c
  4392  001962  6E02               	call	_sleep	;wreg free
  4393  001964  ECF0  F02D         	line	333
  4394                           ;main.c: 333:  sleep(20);
  4395                           	movlw	high(02BAh)
  4396  001968  0E02               	movwf	((c:Beep@frequency+1)),c
  4397  00196A  6E4C               	movlw	low(02BAh)
  4398  00196C  0EBA               	movwf	((c:Beep@frequency)),c
  4399  00196E  6E4B               	movlw	high(076h)
  4400  001970  0E00               	movwf	((c:Beep@duration+1)),c
  4401  001972  6E4E               	movlw	low(076h)
  4402  001974  0E76               	movwf	((c:Beep@duration)),c
  4403  001976  6E4D               	call	_Beep	;wreg free
  4404  001978  EC8E  F02B         	line	334
  4405                           ;main.c: 334:  Beep(739, 115);
  4406                           	movlw	high(0Ah)
  4407  00197C  0E00               	movwf	((c:sleep@ms+1)),c
  4408  00197E  6E03               	movlw	low(0Ah)
  4409  001980  0E0A               	movwf	((c:sleep@ms)),c
  4410  001982  6E02               	call	_sleep	;wreg free
  4411  001984  ECF0  F02D         	line	335
  4412                           ;main.c: 335:  sleep(33);
  4413                           	movlw	high(02E3h)
  4414  001988  0E02               	movwf	((c:Beep@frequency+1)),c
  4415  00198A  6E4C               	movlw	low(02E3h)
  4416  00198C  0EE3               	movwf	((c:Beep@frequency)),c
  4417  00198E  6E4B               	movlw	high(06Bh)
  4418  001990  0E00               	movwf	((c:Beep@duration+1)),c
  4419  001992  6E4E               	movlw	low(06Bh)
  4420  001994  0E6B               	movwf	((c:Beep@duration)),c
  4421  001996  6E4D               	call	_Beep	;wreg free
  4422  001998  EC8E  F02B         	line	336
  4423                           ;main.c: 336:  Beep(880, 82);
  4424                           	movlw	high(014h)
  4425  00199C  0E00               	movwf	((c:sleep@ms+1)),c
  4426  00199E  6E03               	movlw	low(014h)
  4427  0019A0  0E14               	movwf	((c:sleep@ms)),c
  4428  0019A2  6E02               	call	_sleep	;wreg free
  4429  0019A4  ECF0  F02D         	line	337
  4430                           ;main.c: 337:  sleep(27);
  4431                           	movlw	high(03DBh)
  4432  0019A8  0E03               	movwf	((c:Beep@frequency+1)),c
  4433  0019AA  6E4C               	movlw	low(03DBh)
  4434  0019AC  0EDB               	movwf	((c:Beep@frequency)),c
  4435  0019AE  6E4B               	movlw	high(043h)
  4436  0019B0  0E00               	movwf	((c:Beep@duration+1)),c
  4437  0019B2  6E4E               	movlw	low(043h)
  4438  0019B4  0E43               	movwf	((c:Beep@duration)),c
  4439  0019B6  6E4D               	call	_Beep	;wreg free
  4440  0019B8  EC8E  F02B         	line	338
  4441                           ;main.c: 338:  Beep(830, 119);
  4442                           	movlw	high(038h)
  4443  0019BC  0E00               	movwf	((c:sleep@ms+1)),c
  4444  0019BE  6E03               	movlw	low(038h)
  4445  0019C0  0E38               	movwf	((c:sleep@ms)),c
  4446  0019C2  6E02               	call	_sleep	;wreg free
  4447  0019C4  ECF0  F02D         	line	339
  4448                           ;main.c: 339:  sleep(129);
  4449                           	movlw	high(01EDh)
  4450  0019C8  0E01               	movwf	((c:Beep@frequency+1)),c
  4451  0019CA  6E4C               	movlw	low(01EDh)
  4452  0019CC  0EED               	movwf	((c:Beep@frequency)),c
  4453  0019CE  6E4B               	movlw	high(07Ah)
  4454  0019D0  0E00               	movwf	((c:Beep@duration+1)),c
  4455  0019D2  6E4E               	movlw	low(07Ah)
  4456  0019D4  0E7A               	movwf	((c:Beep@duration)),c
  4457  0019D6  6E4D               	call	_Beep	;wreg free
  4458  0019D8  EC8E  F02B         	line	340
  4459                           ;main.c: 340:  Beep(440, 121);
  4460                           	movlw	high(07Bh)
  4461  0019DC  0E00               	movwf	((c:sleep@ms+1)),c
  4462  0019DE  6E03               	movlw	low(07Bh)
  4463  0019E0  0E7B               	movwf	((c:sleep@ms)),c
  4464  0019E2  6E02               	call	_sleep	;wreg free
  4465  0019E4  ECF0  F02D         	line	341
  4466                           ;main.c: 341:  sleep(130);
  4467                           	movlw	high(02E3h)
  4468  0019E8  0E02               	movwf	((c:Beep@frequency+1)),c
  4469  0019EA  6E4C               	movlw	low(02E3h)
  4470  0019EC  0EE3               	movwf	((c:Beep@frequency)),c
  4471  0019EE  6E4B               	movlw	high(06Bh)
  4472  0019F0  0E00               	movwf	((c:Beep@duration+1)),c
  4473  0019F2  6E4E               	movlw	low(06Bh)
  4474  0019F4  0E6B               	movwf	((c:Beep@duration)),c
  4475  0019F6  6E4D               	call	_Beep	;wreg free
  4476  0019F8  EC8E  F02B         	line	342
  4477                           ;main.c: 342:  Beep(554, 108);
  4478                           	movlw	high(019h)
  4479  0019FC  0E00               	movwf	((c:sleep@ms+1)),c
  4480  0019FE  6E03               	movlw	low(019h)
  4481  001A00  0E19               	movwf	((c:sleep@ms)),c
  4482  001A02  6E02               	call	_sleep	;wreg free
  4483  001A04  ECF0  F02D         	line	343
  4484                           ;main.c: 343:  sleep(2);
  4485                           	movlw	high(0454h)
  4486  001A08  0E04               	movwf	((c:Beep@frequency+1)),c
  4487  001A0A  6E4C               	movlw	low(0454h)
  4488  001A0C  0E54               	movwf	((c:Beep@frequency)),c
  4489  001A0E  6E4B               	movlw	high(05Ah)
  4490  001A10  0E00               	movwf	((c:Beep@duration+1)),c
  4491  001A12  6E4E               	movlw	low(05Ah)
  4492  001A14  0E5A               	movwf	((c:Beep@duration)),c
  4493  001A16  6E4D               	call	_Beep	;wreg free
  4494  001A18  EC8E  F02B         	line	344
  4495                           ;main.c: 344:  Beep(880, 67);
  4496                           	movlw	high(01Bh)
  4497  001A1C  0E00               	movwf	((c:sleep@ms+1)),c
  4498  001A1E  6E03               	movlw	low(01Bh)
  4499  001A20  0E1B               	movwf	((c:sleep@ms)),c
  4500  001A22  6E02               	call	_sleep	;wreg free
  4501  001A24  ECF0  F02D         	line	345
  4502                           ;main.c: 345:  sleep(70);
  4503                           	movlw	high(02E3h)
  4504  001A28  0E02               	movwf	((c:Beep@frequency+1)),c
  4505  001A2A  6E4C               	movlw	low(02E3h)
  4506  001A2C  0EE3               	movwf	((c:Beep@frequency)),c
  4507  001A2E  6E4B               	movlw	high(07Ch)
  4508  001A30  0E00               	movwf	((c:Beep@duration+1)),c
  4509  001A32  6E4E               	movlw	low(07Ch)
  4510  001A34  0E7C               	movwf	((c:Beep@duration)),c
  4511  001A36  6E4D               	call	_Beep	;wreg free
  4512  001A38  EC8E  F02B         	line	346
  4513                           ;main.c: 346:  Beep(739, 220);
  4514                           	movlw	high(02BAh)
  4515  001A3C  0E02               	movwf	((c:Beep@frequency+1)),c
  4516  001A3E  6E4C               	movlw	low(02BAh)
  4517  001A40  0EBA               	movwf	((c:Beep@frequency)),c
  4518  001A42  6E4B               	movlw	high(090h)
  4519  001A44  0E00               	movwf	((c:Beep@duration+1)),c
  4520  001A46  6E4E               	movlw	low(090h)
  4521  001A48  0E90               	movwf	((c:Beep@duration)),c
  4522  001A4A  6E4D               	call	_Beep	;wreg free
  4523  001A4C  EC8E  F02B         	line	347
  4524                           ;main.c: 347:  sleep(287);
  4525                           	movlw	high(063h)
  4526  001A50  0E00               	movwf	((c:sleep@ms+1)),c
  4527  001A52  6E03               	movlw	low(063h)
  4528  001A54  0E63               	movwf	((c:sleep@ms)),c
  4529  001A56  6E02               	call	_sleep	;wreg free
  4530  001A58  ECF0  F02D         	line	348
  4531                           ;main.c: 348:  Beep(123, 122);
  4532                           	movlw	high(0496h)
  4533  001A5C  0E04               	movwf	((c:Beep@frequency+1)),c
  4534  001A5E  6E4C               	movlw	low(0496h)
  4535  001A60  0E96               	movwf	((c:Beep@frequency)),c
  4536  001A62  6E4B               	movlw	high(04Bh)
  4537  001A64  0E00               	movwf	((c:Beep@duration+1)),c
  4538  001A66  6E4E               	movlw	low(04Bh)
  4539  001A68  0E4B               	movwf	((c:Beep@duration)),c
  4540  001A6A  6E4D               	call	_Beep	;wreg free
  4541  001A6C  EC8E  F02B         	line	349
  4542                           ;main.c: 349:  sleep(120);
  4543                           	movlw	high(029h)
  4544  001A70  0E00               	movwf	((c:sleep@ms+1)),c
  4545  001A72  6E03               	movlw	low(029h)
  4546  001A74  0E29               	movwf	((c:sleep@ms)),c
  4547  001A76  6E02               	call	_sleep	;wreg free
  4548  001A78  ECF0  F02D         	line	350
  4549                           ;main.c: 350:  Beep(1174, 86);
  4550                           	movlw	high(0125h)
  4551  001A7C  0E01               	movwf	((c:Beep@frequency+1)),c
  4552  001A7E  6E4C               	movlw	low(0125h)
  4553  001A80  0E25               	movwf	((c:Beep@frequency)),c
  4554  001A82  6E4B               	movlw	high(07Bh)
  4555  001A84  0E00               	movwf	((c:Beep@duration+1)),c
  4556  001A86  6E4E               	movlw	low(07Bh)
  4557  001A88  0E7B               	movwf	((c:Beep@duration)),c
  4558  001A8A  6E4D               	call	_Beep	;wreg free
  4559  001A8C  EC8E  F02B         	line	351
  4560                           ;main.c: 351:  sleep(31);
  4561                           	movlw	high(078h)
  4562  001A90  0E00               	movwf	((c:sleep@ms+1)),c
  4563  001A92  6E03               	movlw	low(078h)
  4564  001A94  0E78               	movwf	((c:sleep@ms)),c
  4565  001A96  6E02               	call	_sleep	;wreg free
  4566  001A98  ECF0  F02D         	line	352
  4567                           ;main.c: 352:  Beep(987, 57);
  4568                           	movlw	high(0F6h)
  4569  001A9C  0E00               	movwf	((c:Beep@frequency+1)),c
  4570  001A9E  6E4C               	movlw	low(0F6h)
  4571  001AA0  0EF6               	movwf	((c:Beep@frequency)),c
  4572  001AA2  6E4B               	movlw	high(07Ch)
  4573  001AA4  0E00               	movwf	((c:Beep@duration+1)),c
  4574  001AA6  6E4E               	movlw	low(07Ch)
  4575  001AA8  0E7C               	movwf	((c:Beep@duration)),c
  4576  001AAA  6E4D               	call	_Beep	;wreg free
  4577  001AAC  EC8E  F02B         	line	353
  4578                           ;main.c: 353:  sleep(70);
  4579                           	movlw	high(073h)
  4580  001AB0  0E00               	movwf	((c:sleep@ms+1)),c
  4581  001AB2  6E03               	movlw	low(073h)
  4582  001AB4  0E73               	movwf	((c:sleep@ms)),c
  4583  001AB6  6E02               	call	_sleep	;wreg free
  4584  001AB8  ECF0  F02D         	line	354
  4585                           ;main.c: 354:  Beep(146, 109);
  4586                           	movlw	high(0454h)
  4587  001ABC  0E04               	movwf	((c:Beep@frequency+1)),c
  4588  001ABE  6E4C               	movlw	low(0454h)
  4589  001AC0  0E54               	movwf	((c:Beep@frequency)),c
  4590  001AC2  6E4B               	movlw	high(04Ch)
  4591  001AC4  0E00               	movwf	((c:Beep@duration+1)),c
  4592  001AC6  6E4E               	movlw	low(04Ch)
  4593  001AC8  0E4C               	movwf	((c:Beep@duration)),c
  4594  001ACA  6E4D               	call	_Beep	;wreg free
  4595  001ACC  EC8E  F02B         	line	355
  4596                           ;main.c: 355:  sleep(134);
  4597                           	movlw	high(034h)
  4598  001AD0  0E00               	movwf	((c:sleep@ms+1)),c
  4599  001AD2  6E03               	movlw	low(034h)
  4600  001AD4  0E34               	movwf	((c:sleep@ms)),c
  4601  001AD6  6E02               	call	_sleep	;wreg free
  4602  001AD8  ECF0  F02D         	line	356
  4603                           ;main.c: 356:  Beep(123, 125);
  4604                           	movlw	high(03DBh)
  4605  001ADC  0E03               	movwf	((c:Beep@frequency+1)),c
  4606  001ADE  6E4C               	movlw	low(03DBh)
  4607  001AE0  0EDB               	movwf	((c:Beep@frequency)),c
  4608  001AE2  6E4B               	movlw	high(060h)
  4609  001AE4  0E00               	movwf	((c:Beep@duration+1)),c
  4610  001AE6  6E4E               	movlw	low(060h)
  4611  001AE8  0E60               	movwf	((c:Beep@duration)),c
  4612  001AEA  6E4D               	call	_Beep	;wreg free
  4613  001AEC  EC8E  F02B         	line	357
  4614                           ;main.c: 357:  sleep(103);
  4615                           	movlw	high(014h)
  4616  001AF0  0E00               	movwf	((c:sleep@ms+1)),c
  4617  001AF2  6E03               	movlw	low(014h)
  4618  001AF4  0E14               	movwf	((c:sleep@ms)),c
  4619  001AF6  6E02               	call	_sleep	;wreg free
  4620  001AF8  ECF0  F02D         	line	358
  4621                           ;main.c: 358:  Beep(587, 156);
  4622                           	movlw	high(02E3h)
  4623  001AFC  0E02               	movwf	((c:Beep@frequency+1)),c
  4624  001AFE  6E4C               	movlw	low(02E3h)
  4625  001B00  0EE3               	movwf	((c:Beep@frequency)),c
  4626  001B02  6E4B               	movlw	high(073h)
  4627  001B04  0E00               	movwf	((c:Beep@duration+1)),c
  4628  001B06  6E4E               	movlw	low(073h)
  4629  001B08  0E73               	movwf	((c:Beep@duration)),c
  4630  001B0A  6E4D               	call	_Beep	;wreg free
  4631  001B0C  EC8E  F02B         	line	359
  4632                           ;main.c: 359:  sleep(90);
  4633                           	movlw	high(021h)
  4634  001B10  0E00               	movwf	((c:sleep@ms+1)),c
  4635  001B12  6E03               	movlw	low(021h)
  4636  001B14  0E21               	movwf	((c:sleep@ms)),c
  4637  001B16  6E02               	call	_sleep	;wreg free
  4638  001B18  ECF0  F02D         	line	360
  4639                           ;main.c: 360:  Beep(146, 144);
  4640                           	movlw	high(0370h)
  4641  001B1C  0E03               	movwf	((c:Beep@frequency+1)),c
  4642  001B1E  6E4C               	movlw	low(0370h)
  4643  001B20  0E70               	movwf	((c:Beep@frequency)),c
  4644  001B22  6E4B               	movlw	high(052h)
  4645  001B24  0E00               	movwf	((c:Beep@duration+1)),c
  4646  001B26  6E4E               	movlw	low(052h)
  4647  001B28  0E52               	movwf	((c:Beep@duration)),c
  4648  001B2A  6E4D               	call	_Beep	;wreg free
  4649  001B2C  EC8E  F02B         	line	361
  4650                           ;main.c: 361:  sleep(118);
  4651                           	movlw	high(01Bh)
  4652  001B30  0E00               	movwf	((c:sleep@ms+1)),c
  4653  001B32  6E03               	movlw	low(01Bh)
  4654  001B34  0E1B               	movwf	((c:sleep@ms)),c
  4655  001B36  6E02               	call	_sleep	;wreg free
  4656  001B38  ECF0  F02D         	line	362
  4657                           ;main.c: 362:  Beep(493, 179);
  4658                           	movlw	high(033Eh)
  4659  001B3C  0E03               	movwf	((c:Beep@frequency+1)),c
  4660  001B3E  6E4C               	movlw	low(033Eh)
  4661  001B40  0E3E               	movwf	((c:Beep@frequency)),c
  4662  001B42  6E4B               	movlw	high(077h)
  4663  001B44  0E00               	movwf	((c:Beep@duration+1)),c
  4664  001B46  6E4E               	movlw	low(077h)
  4665  001B48  0E77               	movwf	((c:Beep@duration)),c
  4666  001B4A  6E4D               	call	_Beep	;wreg free
  4667  001B4C  EC8E  F02B         	line	363
  4668                           ;main.c: 363:  sleep(70);
  4669                           	movlw	high(081h)
  4670  001B50  0E00               	movwf	((c:sleep@ms+1)),c
  4671  001B52  6E03               	movlw	low(081h)
  4672  001B54  0E81               	movwf	((c:sleep@ms)),c
  4673  001B56  6E02               	call	_sleep	;wreg free
  4674  001B58  ECF0  F02D         	line	364
  4675                           ;main.c: 364:  Beep(184, 122);
  4676                           	movlw	high(01B8h)
  4677  001B5C  0E01               	movwf	((c:Beep@frequency+1)),c
  4678  001B5E  6E4C               	movlw	low(01B8h)
  4679  001B60  0EB8               	movwf	((c:Beep@frequency)),c
  4680  001B62  6E4B               	movlw	high(079h)
  4681  001B64  0E00               	movwf	((c:Beep@duration+1)),c
  4682  001B66  6E4E               	movlw	low(079h)
  4683  001B68  0E79               	movwf	((c:Beep@duration)),c
  4684  001B6A  6E4D               	call	_Beep	;wreg free
  4685  001B6C  EC8E  F02B         	line	365
  4686                           ;main.c: 365:  sleep(129);
  4687                           	movlw	high(082h)
  4688  001B70  0E00               	movwf	((c:sleep@ms+1)),c
  4689  001B72  6E03               	movlw	low(082h)
  4690  001B74  0E82               	movwf	((c:sleep@ms)),c
  4691  001B76  6E02               	call	_sleep	;wreg free
  4692  001B78  ECF0  F02D         	line	366
  4693                           ;main.c: 366:  Beep(369, 114);
  4694                           	movlw	high(022Ah)
  4695  001B7C  0E02               	movwf	((c:Beep@frequency+1)),c
  4696  001B7E  6E4C               	movlw	low(022Ah)
  4697  001B80  0E2A               	movwf	((c:Beep@frequency)),c
  4698  001B82  6E4B               	movlw	high(06Ch)
  4699  001B84  0E00               	movwf	((c:Beep@duration+1)),c
  4700  001B86  6E4E               	movlw	low(06Ch)
  4701  001B88  0E6C               	movwf	((c:Beep@duration)),c
  4702  001B8A  6E4D               	call	_Beep	;wreg free
  4703  001B8C  EC8E  F02B         	line	367
  4704                           ;main.c: 367:  sleep(14);
  4705                           	movlw	high(02h)
  4706  001B90  0E00               	movwf	((c:sleep@ms+1)),c
  4707  001B92  6E03               	movlw	low(02h)
  4708  001B94  0E02               	movwf	((c:sleep@ms)),c
  4709  001B96  6E02               	call	_sleep	;wreg free
  4710  001B98  ECF0  F02D         	line	368
  4711                           ;main.c: 368:  Beep(493, 88);
  4712                           	movlw	high(0370h)
  4713  001B9C  0E03               	movwf	((c:Beep@frequency+1)),c
  4714  001B9E  6E4C               	movlw	low(0370h)
  4715  001BA0  0E70               	movwf	((c:Beep@frequency)),c
  4716  001BA2  6E4B               	movlw	high(043h)
  4717  001BA4  0E00               	movwf	((c:Beep@duration+1)),c
  4718  001BA6  6E4E               	movlw	low(043h)
  4719  001BA8  0E43               	movwf	((c:Beep@duration)),c
  4720  001BAA  6E4D               	call	_Beep	;wreg free
  4721  001BAC  EC8E  F02B         	line	369
  4722                           ;main.c: 369:  sleep(22);
  4723                           	movlw	high(046h)
  4724  001BB0  0E00               	movwf	((c:sleep@ms+1)),c
  4725  001BB2  6E03               	movlw	low(046h)
  4726  001BB4  0E46               	movwf	((c:sleep@ms)),c
  4727  001BB6  6E02               	call	_sleep	;wreg free
  4728  001BB8  ECF0  F02D         	line	370
  4729                           ;main.c: 370:  Beep(123, 121);
  4730                           	movlw	high(02E3h)
  4731  001BBC  0E02               	movwf	((c:Beep@frequency+1)),c
  4732  001BBE  6E4C               	movlw	low(02E3h)
  4733  001BC0  0EE3               	movwf	((c:Beep@frequency)),c
  4734  001BC2  6E4B               	movlw	high(0DCh)
  4735  001BC4  0E00               	movwf	((c:Beep@duration+1)),c
  4736  001BC6  6E4E               	movlw	low(0DCh)
  4737  001BC8  0EDC               	movwf	((c:Beep@duration)),c
  4738  001BCA  6E4D               	call	_Beep	;wreg free
  4739  001BCC  EC8E  F02B         	line	371
  4740                           ;main.c: 371:  sleep(12);
  4741                           	movlw	high(011Fh)
  4742  001BD0  0E01               	movwf	((c:sleep@ms+1)),c
  4743  001BD2  6E03               	movlw	low(011Fh)
  4744  001BD4  0E1F               	movwf	((c:sleep@ms)),c
  4745  001BD6  6E02               	call	_sleep	;wreg free
  4746  001BD8  ECF0  F02D         	line	372
  4747                           ;main.c: 372:  Beep(493, 74);
  4748                           	movlw	high(07Bh)
  4749  001BDC  0E00               	movwf	((c:Beep@frequency+1)),c
  4750  001BDE  6E4C               	movlw	low(07Bh)
  4751  001BE0  0E7B               	movwf	((c:Beep@frequency)),c
  4752  001BE2  6E4B               	movlw	high(07Ah)
  4753  001BE4  0E00               	movwf	((c:Beep@duration+1)),c
  4754  001BE6  6E4E               	movlw	low(07Ah)
  4755  001BE8  0E7A               	movwf	((c:Beep@duration)),c
  4756  001BEA  6E4D               	call	_Beep	;wreg free
  4757  001BEC  EC8E  F02B         	line	373
  4758                           ;main.c: 373:  sleep(31);
  4759                           	movlw	high(078h)
  4760  001BF0  0E00               	movwf	((c:sleep@ms+1)),c
  4761  001BF2  6E03               	movlw	low(078h)
  4762  001BF4  0E78               	movwf	((c:sleep@ms)),c
  4763  001BF6  6E02               	call	_sleep	;wreg free
  4764  001BF8  ECF0  F02D         	line	374
  4765                           ;main.c: 374:  Beep(391, 138);
  4766                           	movlw	high(0496h)
  4767  001BFC  0E04               	movwf	((c:Beep@frequency+1)),c
  4768  001BFE  6E4C               	movlw	low(0496h)
  4769  001C00  0E96               	movwf	((c:Beep@frequency)),c
  4770  001C02  6E4B               	movlw	high(056h)
  4771  001C04  0E00               	movwf	((c:Beep@duration+1)),c
  4772  001C06  6E4E               	movlw	low(056h)
  4773  001C08  0E56               	movwf	((c:Beep@duration)),c
  4774  001C0A  6E4D               	call	_Beep	;wreg free
  4775  001C0C  EC8E  F02B         	line	375
  4776                           ;main.c: 375:  Beep(493, 78);
  4777                           	movlw	high(01Fh)
  4778  001C10  0E00               	movwf	((c:sleep@ms+1)),c
  4779  001C12  6E03               	movlw	low(01Fh)
  4780  001C14  0E1F               	movwf	((c:sleep@ms)),c
  4781  001C16  6E02               	call	_sleep	;wreg free
  4782  001C18  ECF0  F02D         	line	376
  4783                           ;main.c: 376:  sleep(45);
  4784                           	movlw	high(03DBh)
  4785  001C1C  0E03               	movwf	((c:Beep@frequency+1)),c
  4786  001C1E  6E4C               	movlw	low(03DBh)
  4787  001C20  0EDB               	movwf	((c:Beep@frequency)),c
  4788  001C22  6E4B               	movlw	high(039h)
  4789  001C24  0E00               	movwf	((c:Beep@duration+1)),c
  4790  001C26  6E4E               	movlw	low(039h)
  4791  001C28  0E39               	movwf	((c:Beep@duration)),c
  4792  001C2A  6E4D               	call	_Beep	;wreg free
  4793  001C2C  EC8E  F02B         	line	377
  4794                           ;main.c: 377:  Beep(493, 146);
  4795                           	movlw	high(046h)
  4796  001C30  0E00               	movwf	((c:sleep@ms+1)),c
  4797  001C32  6E03               	movlw	low(046h)
  4798  001C34  0E46               	movwf	((c:sleep@ms)),c
  4799  001C36  6E02               	call	_sleep	;wreg free
  4800  001C38  ECF0  F02D         	line	378
  4801                           ;main.c: 378:  sleep(97);
  4802                           	movlw	high(092h)
  4803  001C3C  0E00               	movwf	((c:Beep@frequency+1)),c
  4804  001C3E  6E4C               	movlw	low(092h)
  4805  001C40  0E92               	movwf	((c:Beep@frequency)),c
  4806  001C42  6E4B               	movlw	high(06Dh)
  4807  001C44  0E00               	movwf	((c:Beep@duration+1)),c
  4808  001C46  6E4E               	movlw	low(06Dh)
  4809  001C48  0E6D               	movwf	((c:Beep@duration)),c
  4810  001C4A  6E4D               	call	_Beep	;wreg free
  4811  001C4C  EC8E  F02B         	line	379
  4812                           ;main.c: 379:  Beep(554, 125);
  4813                           	movlw	high(086h)
  4814  001C50  0E00               	movwf	((c:sleep@ms+1)),c
  4815  001C52  6E03               	movlw	low(086h)
  4816  001C54  0E86               	movwf	((c:sleep@ms)),c
  4817  001C56  6E02               	call	_sleep	;wreg free
  4818  001C58  ECF0  F02D         	line	380
  4819                           ;main.c: 380:  sleep(6);
  4820                           	movlw	high(07Bh)
  4821  001C5C  0E00               	movwf	((c:Beep@frequency+1)),c
  4822  001C5E  6E4C               	movlw	low(07Bh)
  4823  001C60  0E7B               	movwf	((c:Beep@frequency)),c
  4824  001C62  6E4B               	movlw	high(07Dh)
  4825  001C64  0E00               	movwf	((c:Beep@duration+1)),c
  4826  001C66  6E4E               	movlw	low(07Dh)
  4827  001C68  0E7D               	movwf	((c:Beep@duration)),c
  4828  001C6A  6E4D               	call	_Beep	;wreg free
  4829  001C6C  EC8E  F02B         	line	381
  4830                           ;main.c: 381:  Beep(554, 102);
  4831                           	movlw	high(067h)
  4832  001C70  0E00               	movwf	((c:sleep@ms+1)),c
  4833  001C72  6E03               	movlw	low(067h)
  4834  001C74  0E67               	movwf	((c:sleep@ms)),c
  4835  001C76  6E02               	call	_sleep	;wreg free
  4836  001C78  ECF0  F02D         	line	382
  4837                           ;main.c: 382:  sleep(20);
  4838                           	movlw	high(024Bh)
  4839  001C7C  0E02               	movwf	((c:Beep@frequency+1)),c
  4840  001C7E  6E4C               	movlw	low(024Bh)
  4841  001C80  0E4B               	movwf	((c:Beep@frequency)),c
  4842  001C82  6E4B               	movlw	high(09Ch)
  4843  001C84  0E00               	movwf	((c:Beep@duration+1)),c
  4844  001C86  6E4E               	movlw	low(09Ch)
  4845  001C88  0E9C               	movwf	((c:Beep@duration)),c
  4846  001C8A  6E4D               	call	_Beep	;wreg free
  4847  001C8C  EC8E  F02B         	line	383
  4848                           ;main.c: 383:  Beep(659, 101);
  4849                           	movlw	high(05Ah)
  4850  001C90  0E00               	movwf	((c:sleep@ms+1)),c
  4851  001C92  6E03               	movlw	low(05Ah)
  4852  001C94  0E5A               	movwf	((c:sleep@ms)),c
  4853  001C96  6E02               	call	_sleep	;wreg free
  4854  001C98  ECF0  F02D         	line	384
  4855                           ;main.c: 384:  sleep(16);
  4856                           	movlw	high(092h)
  4857  001C9C  0E00               	movwf	((c:Beep@frequency+1)),c
  4858  001C9E  6E4C               	movlw	low(092h)
  4859  001CA0  0E92               	movwf	((c:Beep@frequency)),c
  4860  001CA2  6E4B               	movlw	high(090h)
  4861  001CA4  0E00               	movwf	((c:Beep@duration+1)),c
  4862  001CA6  6E4E               	movlw	low(090h)
  4863  001CA8  0E90               	movwf	((c:Beep@duration)),c
  4864  001CAA  6E4D               	call	_Beep	;wreg free
  4865  001CAC  EC8E  F02B         	line	385
  4866                           ;main.c: 385:  Beep(554, 78);
  4867                           	movlw	high(076h)
  4868  001CB0  0E00               	movwf	((c:sleep@ms+1)),c
  4869  001CB2  6E03               	movlw	low(076h)
  4870  001CB4  0E76               	movwf	((c:sleep@ms)),c
  4871  001CB6  6E02               	call	_sleep	;wreg free
  4872  001CB8  ECF0  F02D         	line	386
  4873                           ;main.c: 386:  sleep(54);
  4874                           	movlw	high(01EDh)
  4875  001CBC  0E01               	movwf	((c:Beep@frequency+1)),c
  4876  001CBE  6E4C               	movlw	low(01EDh)
  4877  001CC0  0EED               	movwf	((c:Beep@frequency)),c
  4878  001CC2  6E4B               	movlw	high(0B3h)
  4879  001CC4  0E00               	movwf	((c:Beep@duration+1)),c
  4880  001CC6  6E4E               	movlw	low(0B3h)
  4881  001CC8  0EB3               	movwf	((c:Beep@duration)),c
  4882  001CCA  6E4D               	call	_Beep	;wreg free
  4883  001CCC  EC8E  F02B         	line	387
  4884                           ;main.c: 387:  Beep(493, 131);
  4885                           	movlw	high(046h)
  4886  001CD0  0E00               	movwf	((c:sleep@ms+1)),c
  4887  001CD2  6E03               	movlw	low(046h)
  4888  001CD4  0E46               	movwf	((c:sleep@ms)),c
  4889  001CD6  6E02               	call	_sleep	;wreg free
  4890  001CD8  ECF0  F02D         	line	388
  4891                           ;main.c: 388:  sleep(101);
  4892                           	movlw	high(0B8h)
  4893  001CDC  0E00               	movwf	((c:Beep@frequency+1)),c
  4894  001CDE  6E4C               	movlw	low(0B8h)
  4895  001CE0  0EB8               	movwf	((c:Beep@frequency)),c
  4896  001CE2  6E4B               	movlw	high(07Ah)
  4897  001CE4  0E00               	movwf	((c:Beep@duration+1)),c
  4898  001CE6  6E4E               	movlw	low(07Ah)
  4899  001CE8  0E7A               	movwf	((c:Beep@duration)),c
  4900  001CEA  6E4D               	call	_Beep	;wreg free
  4901  001CEC  EC8E  F02B         	line	389
  4902                           ;main.c: 389:  Beep(146, 90);
  4903                           	movlw	high(081h)
  4904  001CF0  0E00               	movwf	((c:sleep@ms+1)),c
  4905  001CF2  6E03               	movlw	low(081h)
  4906  001CF4  0E81               	movwf	((c:sleep@ms)),c
  4907  001CF6  6E02               	call	_sleep	;wreg free
  4908  001CF8  ECF0  F02D         	line	390
  4909                           ;main.c: 390:  sleep(32);
  4910                           	movlw	high(0171h)
  4911  001CFC  0E01               	movwf	((c:Beep@frequency+1)),c
  4912  001CFE  6E4C               	movlw	low(0171h)
  4913  001D00  0E71               	movwf	((c:Beep@frequency)),c
  4914  001D02  6E4B               	movlw	high(072h)
  4915  001D04  0E00               	movwf	((c:Beep@duration+1)),c
  4916  001D06  6E4E               	movlw	low(072h)
  4917  001D08  0E72               	movwf	((c:Beep@duration)),c
  4918  001D0A  6E4D               	call	_Beep	;wreg free
  4919  001D0C  EC8E  F02B         	line	391
  4920                           ;main.c: 391:  Beep(138, 87);
  4921                           	movlw	high(0Eh)
  4922  001D10  0E00               	movwf	((c:sleep@ms+1)),c
  4923  001D12  6E03               	movlw	low(0Eh)
  4924  001D14  0E0E               	movwf	((c:sleep@ms)),c
  4925  001D16  6E02               	call	_sleep	;wreg free
  4926  001D18  ECF0  F02D         	line	392
  4927                           ;main.c: 392:  sleep(50);
  4928                           	movlw	high(01EDh)
  4929  001D1C  0E01               	movwf	((c:Beep@frequency+1)),c
  4930  001D1E  6E4C               	movlw	low(01EDh)
  4931  001D20  0EED               	movwf	((c:Beep@frequency)),c
  4932  001D22  6E4B               	movlw	high(058h)
  4933  001D24  0E00               	movwf	((c:Beep@duration+1)),c
  4934  001D26  6E4E               	movlw	low(058h)
  4935  001D28  0E58               	movwf	((c:Beep@duration)),c
  4936  001D2A  6E4D               	call	_Beep	;wreg free
  4937  001D2C  EC8E  F02B         	line	393
  4938                           ;main.c: 393:  Beep(123, 118);
  4939                           	movlw	high(016h)
  4940  001D30  0E00               	movwf	((c:sleep@ms+1)),c
  4941  001D32  6E03               	movlw	low(016h)
  4942  001D34  0E16               	movwf	((c:sleep@ms)),c
  4943  001D36  6E02               	call	_sleep	;wreg free
  4944  001D38  ECF0  F02D         	line	394
  4945                           ;main.c: 394:  sleep(124);
  4946                           	movlw	high(07Bh)
  4947  001D3C  0E00               	movwf	((c:Beep@frequency+1)),c
  4948  001D3E  6E4C               	movlw	low(07Bh)
  4949  001D40  0E7B               	movwf	((c:Beep@frequency)),c
  4950  001D42  6E4B               	movlw	high(079h)
  4951  001D44  0E00               	movwf	((c:Beep@duration+1)),c
  4952  001D46  6E4E               	movlw	low(079h)
  4953  001D48  0E79               	movwf	((c:Beep@duration)),c
  4954  001D4A  6E4D               	call	_Beep	;wreg free
  4955  001D4C  EC8E  F02B         	line	395
  4956                           ;main.c: 395:  Beep(1174, 89);
  4957                           	movlw	high(0Ch)
  4958  001D50  0E00               	movwf	((c:sleep@ms+1)),c
  4959  001D52  6E03               	movlw	low(0Ch)
  4960  001D54  0E0C               	movwf	((c:sleep@ms)),c
  4961  001D56  6E02               	call	_sleep	;wreg free
  4962  001D58  ECF0  F02D         	line	396
  4963                           ;main.c: 396:  sleep(22);
  4964                           	movlw	high(01EDh)
  4965  001D5C  0E01               	movwf	((c:Beep@frequency+1)),c
  4966  001D5E  6E4C               	movlw	low(01EDh)
  4967  001D60  0EED               	movwf	((c:Beep@frequency)),c
  4968  001D62  6E4B               	movlw	high(04Ah)
  4969  001D64  0E00               	movwf	((c:Beep@duration+1)),c
  4970  001D66  6E4E               	movlw	low(04Ah)
  4971  001D68  0E4A               	movwf	((c:Beep@duration)),c
  4972  001D6A  6E4D               	call	_Beep	;wreg free
  4973  001D6C  EC8E  F02B         	line	397
  4974                           ;main.c: 397:  Beep(987, 62);
  4975                           	movlw	high(01Fh)
  4976  001D70  0E00               	movwf	((c:sleep@ms+1)),c
  4977  001D72  6E03               	movlw	low(01Fh)
  4978  001D74  0E1F               	movwf	((c:sleep@ms)),c
  4979  001D76  6E02               	call	_sleep	;wreg free
  4980  001D78  ECF0  F02D         	line	398
  4981                           ;main.c: 398:  sleep(85);
  4982                           	movlw	high(0187h)
  4983  001D7C  0E01               	movwf	((c:Beep@frequency+1)),c
  4984  001D7E  6E4C               	movlw	low(0187h)
  4985  001D80  0E87               	movwf	((c:Beep@frequency)),c
  4986  001D82  6E4B               	movlw	high(08Ah)
  4987  001D84  0E00               	movwf	((c:Beep@duration+1)),c
  4988  001D86  6E4E               	movlw	low(08Ah)
  4989  001D88  0E8A               	movwf	((c:Beep@duration)),c
  4990  001D8A  6E4D               	call	_Beep	;wreg free
  4991  001D8C  EC8E  F02B         	line	399
  4992                           ;main.c: 399:  Beep(739, 207);
  4993                           	movlw	high(01EDh)
  4994  001D90  0E01               	movwf	((c:Beep@frequency+1)),c
  4995  001D92  6E4C               	movlw	low(01EDh)
  4996  001D94  0EED               	movwf	((c:Beep@frequency)),c
  4997  001D96  6E4B               	movlw	high(04Eh)
  4998  001D98  0E00               	movwf	((c:Beep@duration+1)),c
  4999  001D9A  6E4E               	movlw	low(04Eh)
  5000  001D9C  0E4E               	movwf	((c:Beep@duration)),c
  5001  001D9E  6E4D               	call	_Beep	;wreg free
  5002  001DA0  EC8E  F02B         	line	400
  5003                           ;main.c: 400:  sleep(27);
  5004                           	movlw	high(02Dh)
  5005  001DA4  0E00               	movwf	((c:sleep@ms+1)),c
  5006  001DA6  6E03               	movlw	low(02Dh)
  5007  001DA8  0E2D               	movwf	((c:sleep@ms)),c
  5008  001DAA  6E02               	call	_sleep	;wreg free
  5009  001DAC  ECF0  F02D         	line	401
  5010                           ;main.c: 401:  Beep(123, 123);
  5011                           	movlw	high(01EDh)
  5012  001DB0  0E01               	movwf	((c:Beep@frequency+1)),c
  5013  001DB2  6E4C               	movlw	low(01EDh)
  5014  001DB4  0EED               	movwf	((c:Beep@frequency)),c
  5015  001DB6  6E4B               	movlw	high(092h)
  5016  001DB8  0E00               	movwf	((c:Beep@duration+1)),c
  5017  001DBA  6E4E               	movlw	low(092h)
  5018  001DBC  0E92               	movwf	((c:Beep@duration)),c
  5019  001DBE  6E4D               	call	_Beep	;wreg free
  5020  001DC0  EC8E  F02B         	line	402
  5021                           ;main.c: 402:  sleep(126);
  5022                           	movlw	high(061h)
  5023  001DC4  0E00               	movwf	((c:sleep@ms+1)),c
  5024  001DC6  6E03               	movlw	low(061h)
  5025  001DC8  0E61               	movwf	((c:sleep@ms)),c
  5026  001DCA  6E02               	call	_sleep	;wreg free
  5027  001DCC  ECF0  F02D         	line	403
  5028                           ;main.c: 403:  Beep(587, 139);
  5029                           	movlw	high(022Ah)
  5030  001DD0  0E02               	movwf	((c:Beep@frequency+1)),c
  5031  001DD2  6E4C               	movlw	low(022Ah)
  5032  001DD4  0E2A               	movwf	((c:Beep@frequency)),c
  5033  001DD6  6E4B               	movlw	high(07Dh)
  5034  001DD8  0E00               	movwf	((c:Beep@duration+1)),c
  5035  001DDA  6E4E               	movlw	low(07Dh)
  5036  001DDC  0E7D               	movwf	((c:Beep@duration)),c
  5037  001DDE  6E4D               	call	_Beep	;wreg free
  5038  001DE0  EC8E  F02B         	line	404
  5039                           ;main.c: 404:  sleep(102);
  5040                           	movlw	high(06h)
  5041  001DE4  0E00               	movwf	((c:sleep@ms+1)),c
  5042  001DE6  6E03               	movlw	low(06h)
  5043  001DE8  0E06               	movwf	((c:sleep@ms)),c
  5044  001DEA  6E02               	call	_sleep	;wreg free
  5045  001DEC  ECF0  F02D         	line	405
  5046                           ;main.c: 405:  Beep(146, 132);
  5047                           	movlw	high(022Ah)
  5048  001DF0  0E02               	movwf	((c:Beep@frequency+1)),c
  5049  001DF2  6E4C               	movlw	low(022Ah)
  5050  001DF4  0E2A               	movwf	((c:Beep@frequency)),c
  5051  001DF6  6E4B               	movlw	high(066h)
  5052  001DF8  0E00               	movwf	((c:Beep@duration+1)),c
  5053  001DFA  6E4E               	movlw	low(066h)
  5054  001DFC  0E66               	movwf	((c:Beep@duration)),c
  5055  001DFE  6E4D               	call	_Beep	;wreg free
  5056  001E00  EC8E  F02B         	line	406
  5057                           ;main.c: 406:  sleep(2);
  5058                           	movlw	high(014h)
  5059  001E04  0E00               	movwf	((c:sleep@ms+1)),c
  5060  001E06  6E03               	movlw	low(014h)
  5061  001E08  0E14               	movwf	((c:sleep@ms)),c
  5062  001E0A  6E02               	call	_sleep	;wreg free
  5063  001E0C  ECF0  F02D         	line	407
  5064                           ;main.c: 407:  Beep(587, 77);
  5065                           	movlw	high(0293h)
  5066  001E10  0E02               	movwf	((c:Beep@frequency+1)),c
  5067  001E12  6E4C               	movlw	low(0293h)
  5068  001E14  0E93               	movwf	((c:Beep@frequency)),c
  5069  001E16  6E4B               	movlw	high(065h)
  5070  001E18  0E00               	movwf	((c:Beep@duration+1)),c
  5071  001E1A  6E4E               	movlw	low(065h)
  5072  001E1C  0E65               	movwf	((c:Beep@duration)),c
  5073  001E1E  6E4D               	call	_Beep	;wreg free
  5074  001E20  EC8E  F02B         	line	408
  5075                           ;main.c: 408:  sleep(29);
  5076                           	movlw	high(010h)
  5077  001E24  0E00               	movwf	((c:sleep@ms+1)),c
  5078  001E26  6E03               	movlw	low(010h)
  5079  001E28  0E10               	movwf	((c:sleep@ms)),c
  5080  001E2A  6E02               	call	_sleep	;wreg free
  5081  001E2C  ECF0  F02D         	line	409
  5082                           ;main.c: 409:  Beep(293, 185);
  5083                           	movlw	high(022Ah)
  5084  001E30  0E02               	movwf	((c:Beep@frequency+1)),c
  5085  001E32  6E4C               	movlw	low(022Ah)
  5086  001E34  0E2A               	movwf	((c:Beep@frequency)),c
  5087  001E36  6E4B               	movlw	high(04Eh)
  5088  001E38  0E00               	movwf	((c:Beep@duration+1)),c
  5089  001E3A  6E4E               	movlw	low(04Eh)
  5090  001E3C  0E4E               	movwf	((c:Beep@duration)),c
  5091  001E3E  6E4D               	call	_Beep	;wreg free
  5092  001E40  EC8E  F02B         	line	410
  5093                           ;main.c: 410:  sleep(87);
  5094                           	movlw	high(036h)
  5095  001E44  0E00               	movwf	((c:sleep@ms+1)),c
  5096  001E46  6E03               	movlw	low(036h)
  5097  001E48  0E36               	movwf	((c:sleep@ms)),c
  5098  001E4A  6E02               	call	_sleep	;wreg free
  5099  001E4C  ECF0  F02D         	line	411
  5100                           ;main.c: 411:  Beep(184, 118);
  5101                           	movlw	high(01EDh)
  5102  001E50  0E01               	movwf	((c:Beep@frequency+1)),c
  5103  001E52  6E4C               	movlw	low(01EDh)
  5104  001E54  0EED               	movwf	((c:Beep@frequency)),c
  5105  001E56  6E4B               	movlw	high(083h)
  5106  001E58  0E00               	movwf	((c:Beep@duration+1)),c
  5107  001E5A  6E4E               	movlw	low(083h)
  5108  001E5C  0E83               	movwf	((c:Beep@duration)),c
  5109  001E5E  6E4D               	call	_Beep	;wreg free
  5110  001E60  EC8E  F02B         	line	412
  5111                           ;main.c: 412:  sleep(120);
  5112                           	movlw	high(065h)
  5113  001E64  0E00               	movwf	((c:sleep@ms+1)),c
  5114  001E66  6E03               	movlw	low(065h)
  5115  001E68  0E65               	movwf	((c:sleep@ms)),c
  5116  001E6A  6E02               	call	_sleep	;wreg free
  5117  001E6C  ECF0  F02D         	line	413
  5118                           ;main.c: 413:  Beep(369, 126);
  5119                           	movlw	high(092h)
  5120  001E70  0E00               	movwf	((c:Beep@frequency+1)),c
  5121  001E72  6E4C               	movlw	low(092h)
  5122  001E74  0E92               	movwf	((c:Beep@frequency)),c
  5123  001E76  6E4B               	movlw	high(05Ah)
  5124  001E78  0E00               	movwf	((c:Beep@duration+1)),c
  5125  001E7A  6E4E               	movlw	low(05Ah)
  5126  001E7C  0E5A               	movwf	((c:Beep@duration)),c
  5127  001E7E  6E4D               	call	_Beep	;wreg free
  5128  001E80  EC8E  F02B         	line	414
  5129                           ;main.c: 414:  sleep(117);
  5130                           	movlw	high(020h)
  5131  001E84  0E00               	movwf	((c:sleep@ms+1)),c
  5132  001E86  6E03               	movlw	low(020h)
  5133  001E88  0E20               	movwf	((c:sleep@ms)),c
  5134  001E8A  6E02               	call	_sleep	;wreg free
  5135  001E8C  ECF0  F02D         	line	415
  5136                           ;main.c: 415:  Beep(587, 309);
  5137                           	movlw	high(08Ah)
  5138  001E90  0E00               	movwf	((c:Beep@frequency+1)),c
  5139  001E92  6E4C               	movlw	low(08Ah)
  5140  001E94  0E8A               	movwf	((c:Beep@frequency)),c
  5141  001E96  6E4B               	movlw	high(057h)
  5142  001E98  0E00               	movwf	((c:Beep@duration+1)),c
  5143  001E9A  6E4E               	movlw	low(057h)
  5144  001E9C  0E57               	movwf	((c:Beep@duration)),c
  5145  001E9E  6E4D               	call	_Beep	;wreg free
  5146  001EA0  EC8E  F02B         	line	416
  5147                           ;main.c: 416:  sleep(60);
  5148                           	movlw	high(032h)
  5149  001EA4  0E00               	movwf	((c:sleep@ms+1)),c
  5150  001EA6  6E03               	movlw	low(032h)
  5151  001EA8  0E32               	movwf	((c:sleep@ms)),c
  5152  001EAA  6E02               	call	_sleep	;wreg free
  5153  001EAC  ECF0  F02D         	line	417
  5154                           ;main.c: 417:  Beep(554, 100);
  5155                           	movlw	high(07Bh)
  5156  001EB0  0E00               	movwf	((c:Beep@frequency+1)),c
  5157  001EB2  6E4C               	movlw	low(07Bh)
  5158  001EB4  0E7B               	movwf	((c:Beep@frequency)),c
  5159  001EB6  6E4B               	movlw	high(076h)
  5160  001EB8  0E00               	movwf	((c:Beep@duration+1)),c
  5161  001EBA  6E4E               	movlw	low(076h)
  5162  001EBC  0E76               	movwf	((c:Beep@duration)),c
  5163  001EBE  6E4D               	call	_Beep	;wreg free
  5164  001EC0  EC8E  F02B         	line	418
  5165                           ;main.c: 418:  sleep(22);
  5166                           	movlw	high(07Ch)
  5167  001EC4  0E00               	movwf	((c:sleep@ms+1)),c
  5168  001EC6  6E03               	movlw	low(07Ch)
  5169  001EC8  0E7C               	movwf	((c:sleep@ms)),c
  5170  001ECA  6E02               	call	_sleep	;wreg free
  5171  001ECC  ECF0  F02D         	line	419
  5172                           ;main.c: 419:  Beep(587, 305);
  5173                           	movlw	high(0496h)
  5174  001ED0  0E04               	movwf	((c:Beep@frequency+1)),c
  5175  001ED2  6E4C               	movlw	low(0496h)
  5176  001ED4  0E96               	movwf	((c:Beep@frequency)),c
  5177  001ED6  6E4B               	movlw	high(059h)
  5178  001ED8  0E00               	movwf	((c:Beep@duration+1)),c
  5179  001EDA  6E4E               	movlw	low(059h)
  5180  001EDC  0E59               	movwf	((c:Beep@duration)),c
  5181  001EDE  6E4D               	call	_Beep	;wreg free
  5182  001EE0  EC8E  F02B         	line	420
  5183                           ;main.c: 420:  sleep(68);
  5184                           	movlw	high(016h)
  5185  001EE4  0E00               	movwf	((c:sleep@ms+1)),c
  5186  001EE6  6E03               	movlw	low(016h)
  5187  001EE8  0E16               	movwf	((c:sleep@ms)),c
  5188  001EEA  6E02               	call	_sleep	;wreg free
  5189  001EEC  ECF0  F02D         	line	421
  5190                           ;main.c: 421:  Beep(987, 78);
  5191                           	movlw	high(03DBh)
  5192  001EF0  0E03               	movwf	((c:Beep@frequency+1)),c
  5193  001EF2  6E4C               	movlw	low(03DBh)
  5194  001EF4  0EDB               	movwf	((c:Beep@frequency)),c
  5195  001EF6  6E4B               	movlw	high(03Eh)
  5196  001EF8  0E00               	movwf	((c:Beep@duration+1)),c
  5197  001EFA  6E4E               	movlw	low(03Eh)
  5198  001EFC  0E3E               	movwf	((c:Beep@duration)),c
  5199  001EFE  6E4D               	call	_Beep	;wreg free
  5200  001F00  EC8E  F02B         	line	422
  5201                           ;main.c: 422:  sleep(43);
  5202                           	movlw	high(055h)
  5203  001F04  0E00               	movwf	((c:sleep@ms+1)),c
  5204  001F06  6E03               	movlw	low(055h)
  5205  001F08  0E55               	movwf	((c:sleep@ms)),c
  5206  001F0A  6E02               	call	_sleep	;wreg free
  5207  001F0C  ECF0  F02D         	line	423
  5208                           ;main.c: 423:  Beep(587, 193);
  5209                           	movlw	high(02E3h)
  5210  001F10  0E02               	movwf	((c:Beep@frequency+1)),c
  5211  001F12  6E4C               	movlw	low(02E3h)
  5212  001F14  0EE3               	movwf	((c:Beep@frequency)),c
  5213  001F16  6E4B               	movlw	high(0CFh)
  5214  001F18  0E00               	movwf	((c:Beep@duration+1)),c
  5215  001F1A  6E4E               	movlw	low(0CFh)
  5216  001F1C  0ECF               	movwf	((c:Beep@duration)),c
  5217  001F1E  6E4D               	call	_Beep	;wreg free
  5218  001F20  EC8E  F02B         	line	424
  5219                           ;main.c: 424:  sleep(50);
  5220                           	movlw	high(01Bh)
  5221  001F24  0E00               	movwf	((c:sleep@ms+1)),c
  5222  001F26  6E03               	movlw	low(01Bh)
  5223  001F28  0E1B               	movwf	((c:sleep@ms)),c
  5224  001F2A  6E02               	call	_sleep	;wreg free
  5225  001F2C  ECF0  F02D         	line	425
  5226                           ;main.c: 425:  Beep(440, 133);
  5227                           	movlw	high(07Bh)
  5228  001F30  0E00               	movwf	((c:Beep@frequency+1)),c
  5229  001F32  6E4C               	movlw	low(07Bh)
  5230  001F34  0E7B               	movwf	((c:Beep@frequency)),c
  5231  001F36  6E4B               	movlw	high(07Bh)
  5232  001F38  0E00               	movwf	((c:Beep@duration+1)),c
  5233  001F3A  6E4E               	movlw	low(07Bh)
  5234  001F3C  0E7B               	movwf	((c:Beep@duration)),c
  5235  001F3E  6E4D               	call	_Beep	;wreg free
  5236  001F40  EC8E  F02B         	line	426
  5237                           ;main.c: 426:  sleep(2);
  5238                           	movlw	high(07Eh)
  5239  001F44  0E00               	movwf	((c:sleep@ms+1)),c
  5240  001F46  6E03               	movlw	low(07Eh)
  5241  001F48  0E7E               	movwf	((c:sleep@ms)),c
  5242  001F4A  6E02               	call	_sleep	;wreg free
  5243  001F4C  ECF0  F02D         	line	427
  5244                           ;main.c: 427:  Beep(659, 56);
  5245                           	movlw	high(024Bh)
  5246  001F50  0E02               	movwf	((c:Beep@frequency+1)),c
  5247  001F52  6E4C               	movlw	low(024Bh)
  5248  001F54  0E4B               	movwf	((c:Beep@frequency)),c
  5249  001F56  6E4B               	movlw	high(08Bh)
  5250  001F58  0E00               	movwf	((c:Beep@duration+1)),c
  5251  001F5A  6E4E               	movlw	low(08Bh)
  5252  001F5C  0E8B               	movwf	((c:Beep@duration)),c
  5253  001F5E  6E4D               	call	_Beep	;wreg free
  5254  001F60  EC8E  F02B         	line	428
  5255                           ;main.c: 428:  sleep(60);
  5256                           	movlw	high(066h)
  5257  001F64  0E00               	movwf	((c:sleep@ms+1)),c
  5258  001F66  6E03               	movlw	low(066h)
  5259  001F68  0E66               	movwf	((c:sleep@ms)),c
  5260  001F6A  6E02               	call	_sleep	;wreg free
  5261  001F6C  ECF0  F02D         	line	429
  5262                           ;main.c: 429:  Beep(329, 118);
  5263                           	movlw	high(092h)
  5264  001F70  0E00               	movwf	((c:Beep@frequency+1)),c
  5265  001F72  6E4C               	movlw	low(092h)
  5266  001F74  0E92               	movwf	((c:Beep@frequency)),c
  5267  001F76  6E4B               	movlw	high(084h)
  5268  001F78  0E00               	movwf	((c:Beep@duration+1)),c
  5269  001F7A  6E4E               	movlw	low(084h)
  5270  001F7C  0E84               	movwf	((c:Beep@duration)),c
  5271  001F7E  6E4D               	call	_Beep	;wreg free
  5272  001F80  EC8E  F02B         	line	430
  5273                           ;main.c: 430:  sleep(121);
  5274                           	movlw	high(02h)
  5275  001F84  0E00               	movwf	((c:sleep@ms+1)),c
  5276  001F86  6E03               	movlw	low(02h)
  5277  001F88  0E02               	movwf	((c:sleep@ms)),c
  5278  001F8A  6E02               	call	_sleep	;wreg free
  5279  001F8C  ECF0  F02D         	line	431
  5280                           ;main.c: 431:  Beep(440, 131);
  5281                           	movlw	high(024Bh)
  5282  001F90  0E02               	movwf	((c:Beep@frequency+1)),c
  5283  001F92  6E4C               	movlw	low(024Bh)
  5284  001F94  0E4B               	movwf	((c:Beep@frequency)),c
  5285  001F96  6E4B               	movlw	high(04Dh)
  5286  001F98  0E00               	movwf	((c:Beep@duration+1)),c
  5287  001F9A  6E4E               	movlw	low(04Dh)
  5288  001F9C  0E4D               	movwf	((c:Beep@duration)),c
  5289  001F9E  6E4D               	call	_Beep	;wreg free
  5290  001FA0  EC8E  F02B         	line	432
  5291                           ;main.c: 432:  sleep(123);
  5292                           	movlw	high(01Dh)
  5293  001FA4  0E00               	movwf	((c:sleep@ms+1)),c
  5294  001FA6  6E03               	movlw	low(01Dh)
  5295  001FA8  0E1D               	movwf	((c:sleep@ms)),c
  5296  001FAA  6E02               	call	_sleep	;wreg free
  5297  001FAC  ECF0  F02D         	line	433
  5298                           ;main.c: 433:  Beep(587, 123);
  5299                           	movlw	high(0125h)
  5300  001FB0  0E01               	movwf	((c:Beep@frequency+1)),c
  5301  001FB2  6E4C               	movlw	low(0125h)
  5302  001FB4  0E25               	movwf	((c:Beep@frequency)),c
  5303  001FB6  6E4B               	movlw	high(0B9h)
  5304  001FB8  0E00               	movwf	((c:Beep@duration+1)),c
  5305  001FBA  6E4E               	movlw	low(0B9h)
  5306  001FBC  0EB9               	movwf	((c:Beep@duration)),c
  5307  001FBE  6E4D               	call	_Beep	;wreg free
  5308  001FC0  EC8E  F02B         	line	434
  5309                           ;main.c: 434:  sleep(8);
  5310                           	movlw	high(057h)
  5311  001FC4  0E00               	movwf	((c:sleep@ms+1)),c
  5312  001FC6  6E03               	movlw	low(057h)
  5313  001FC8  0E57               	movwf	((c:sleep@ms)),c
  5314  001FCA  6E02               	call	_sleep	;wreg free
  5315  001FCC  ECF0  F02D         	line	435
  5316                           ;main.c: 435:  Beep(293, 87);
  5317                           	movlw	high(0B8h)
  5318  001FD0  0E00               	movwf	((c:Beep@frequency+1)),c
  5319  001FD2  6E4C               	movlw	low(0B8h)
  5320  001FD4  0EB8               	movwf	((c:Beep@frequency)),c
  5321  001FD6  6E4B               	movlw	high(076h)
  5322  001FD8  0E00               	movwf	((c:Beep@duration+1)),c
  5323  001FDA  6E4E               	movlw	low(076h)
  5324  001FDC  0E76               	movwf	((c:Beep@duration)),c
  5325  001FDE  6E4D               	call	_Beep	;wreg free
  5326  001FE0  EC8E  F02B         	line	436
  5327                           ;main.c: 436:  sleep(25);
  5328                           	movlw	high(078h)
  5329  001FE4  0E00               	movwf	((c:sleep@ms+1)),c
  5330  001FE6  6E03               	movlw	low(078h)
  5331  001FE8  0E78               	movwf	((c:sleep@ms)),c
  5332  001FEA  6E02               	call	_sleep	;wreg free
  5333  001FEC  ECF0  F02D         	line	437
  5334                           ;main.c: 437:  Beep(415, 148);
  5335                           	movlw	high(0171h)
  5336  001FF0  0E01               	movwf	((c:Beep@frequency+1)),c
  5337  001FF2  6E4C               	movlw	low(0171h)
  5338  001FF4  0E71               	movwf	((c:Beep@frequency)),c
  5339  001FF6  6E4B               	movlw	high(07Eh)
  5340  001FF8  0E00               	movwf	((c:Beep@duration+1)),c
  5341  001FFA  6E4E               	movlw	low(07Eh)
  5342  001FFC  0E7E               	movwf	((c:Beep@duration)),c
  5343  001FFE  6E4D               	call	_Beep	;wreg free
  5344  002000  EC8E  F02B         	line	438
  5345                           ;main.c: 438:  sleep(94);
  5346                           	movlw	high(075h)
  5347  002004  0E00               	movwf	((c:sleep@ms+1)),c
  5348  002006  6E03               	movlw	low(075h)
  5349  002008  0E75               	movwf	((c:sleep@ms)),c
  5350  00200A  6E02               	call	_sleep	;wreg free
  5351  00200C  ECF0  F02D         	line	439
  5352                           ;main.c: 439:  Beep(587, 116);
  5353                           	movlw	high(024Bh)
  5354  002010  0E02               	movwf	((c:Beep@frequency+1)),c
  5355  002012  6E4C               	movlw	low(024Bh)
  5356  002014  0E4B               	movwf	((c:Beep@frequency)),c
  5357  002016  6E4B               	movlw	high(0135h)
  5358  002018  0E01               	movwf	((c:Beep@duration+1)),c
  5359  00201A  6E4E               	movlw	low(0135h)
  5360  00201C  0E35               	movwf	((c:Beep@duration)),c
  5361  00201E  6E4D               	call	_Beep	;wreg free
  5362  002020  EC8E  F02B         	line	440
  5363                           ;main.c: 440:  sleep(2);
  5364                           	movlw	high(03Ch)
  5365  002024  0E00               	movwf	((c:sleep@ms+1)),c
  5366  002026  6E03               	movlw	low(03Ch)
  5367  002028  0E3C               	movwf	((c:sleep@ms)),c
  5368  00202A  6E02               	call	_sleep	;wreg free
  5369  00202C  ECF0  F02D         	line	441
  5370                           ;main.c: 441:  Beep(246, 86);
  5371                           	movlw	high(022Ah)
  5372  002030  0E02               	movwf	((c:Beep@frequency+1)),c
  5373  002032  6E4C               	movlw	low(022Ah)
  5374  002034  0E2A               	movwf	((c:Beep@frequency)),c
  5375  002036  6E4B               	movlw	high(064h)
  5376  002038  0E00               	movwf	((c:Beep@duration+1)),c
  5377  00203A  6E4E               	movlw	low(064h)
  5378  00203C  0E64               	movwf	((c:Beep@duration)),c
  5379  00203E  6E4D               	call	_Beep	;wreg free
  5380  002040  EC8E  F02B         	line	442
  5381                           ;main.c: 442:  sleep(37);
  5382                           	movlw	high(016h)
  5383  002044  0E00               	movwf	((c:sleep@ms+1)),c
  5384  002046  6E03               	movlw	low(016h)
  5385  002048  0E16               	movwf	((c:sleep@ms)),c
  5386  00204A  6E02               	call	_sleep	;wreg free
  5387  00204C  ECF0  F02D         	line	443
  5388                           ;main.c: 443:  Beep(587, 115);
  5389                           	movlw	high(024Bh)
  5390  002050  0E02               	movwf	((c:Beep@frequency+1)),c
  5391  002052  6E4C               	movlw	low(024Bh)
  5392  002054  0E4B               	movwf	((c:Beep@frequency)),c
  5393  002056  6E4B               	movlw	high(0131h)
  5394  002058  0E01               	movwf	((c:Beep@duration+1)),c
  5395  00205A  6E4E               	movlw	low(0131h)
  5396  00205C  0E31               	movwf	((c:Beep@duration)),c
  5397  00205E  6E4D               	call	_Beep	;wreg free
  5398  002060  EC8E  F02B         	line	444
  5399                           ;main.c: 444:  Beep(1174, 90);
  5400                           	movlw	high(044h)
  5401  002064  0E00               	movwf	((c:sleep@ms+1)),c
  5402  002066  6E03               	movlw	low(044h)
  5403  002068  0E44               	movwf	((c:sleep@ms)),c
  5404  00206A  6E02               	call	_sleep	;wreg free
  5405  00206C  ECF0  F02D         	line	445
  5406                           ;main.c: 445:  sleep(35);
  5407                           	movlw	high(03DBh)
  5408  002070  0E03               	movwf	((c:Beep@frequency+1)),c
  5409  002072  6E4C               	movlw	low(03DBh)
  5410  002074  0EDB               	movwf	((c:Beep@frequency)),c
  5411  002076  6E4B               	movlw	high(04Eh)
  5412  002078  0E00               	movwf	((c:Beep@duration+1)),c
  5413  00207A  6E4E               	movlw	low(04Eh)
  5414  00207C  0E4E               	movwf	((c:Beep@duration)),c
  5415  00207E  6E4D               	call	_Beep	;wreg free
  5416  002080  EC8E  F02B         	line	446
  5417                           ;main.c: 446:  Beep(739, 173);
  5418                           	movlw	high(02Bh)
  5419  002084  0E00               	movwf	((c:sleep@ms+1)),c
  5420  002086  6E03               	movlw	low(02Bh)
  5421  002088  0E2B               	movwf	((c:sleep@ms)),c
  5422  00208A  6E02               	call	_sleep	;wreg free
  5423  00208C  ECF0  F02D         	line	447
  5424                           ;main.c: 447:  sleep(80);
  5425                           	movlw	high(024Bh)
  5426  002090  0E02               	movwf	((c:Beep@frequency+1)),c
  5427  002092  6E4C               	movlw	low(024Bh)
  5428  002094  0E4B               	movwf	((c:Beep@frequency)),c
  5429  002096  6E4B               	movlw	high(0C1h)
  5430  002098  0E00               	movwf	((c:Beep@duration+1)),c
  5431  00209A  6E4E               	movlw	low(0C1h)
  5432  00209C  0EC1               	movwf	((c:Beep@duration)),c
  5433  00209E  6E4D               	call	_Beep	;wreg free
  5434  0020A0  EC8E  F02B         	line	448
  5435                           ;main.c: 448:  Beep(830, 54);
  5436                           	movlw	high(032h)
  5437  0020A4  0E00               	movwf	((c:sleep@ms+1)),c
  5438  0020A6  6E03               	movlw	low(032h)
  5439  0020A8  0E32               	movwf	((c:sleep@ms)),c
  5440  0020AA  6E02               	call	_sleep	;wreg free
  5441  0020AC  ECF0  F02D         	line	449
  5442                           ;main.c: 449:  sleep(18);
  5443                           	movlw	high(01B8h)
  5444  0020B0  0E01               	movwf	((c:Beep@frequency+1)),c
  5445  0020B2  6E4C               	movlw	low(01B8h)
  5446  0020B4  0EB8               	movwf	((c:Beep@frequency)),c
  5447  0020B6  6E4B               	movlw	high(085h)
  5448  0020B8  0E00               	movwf	((c:Beep@duration+1)),c
  5449  0020BA  6E4E               	movlw	low(085h)
  5450  0020BC  0E85               	movwf	((c:Beep@duration)),c
  5451  0020BE  6E4D               	call	_Beep	;wreg free
  5452  0020C0  EC8E  F02B         	line	450
  5453                           ;main.c: 450:  Beep(739, 72);
  5454                           	movlw	high(02h)
  5455  0020C4  0E00               	movwf	((c:sleep@ms+1)),c
  5456  0020C6  6E03               	movlw	low(02h)
  5457  0020C8  0E02               	movwf	((c:sleep@ms)),c
  5458  0020CA  6E02               	call	_sleep	;wreg free
  5459  0020CC  ECF0  F02D         	line	451
  5460                           ;main.c: 451:  sleep(6);
  5461                           	movlw	high(0293h)
  5462  0020D0  0E02               	movwf	((c:Beep@frequency+1)),c
  5463  0020D2  6E4C               	movlw	low(0293h)
  5464  0020D4  0E93               	movwf	((c:Beep@frequency)),c
  5465  0020D6  6E4B               	movlw	high(038h)
  5466  0020D8  0E00               	movwf	((c:Beep@duration+1)),c
  5467  0020DA  6E4E               	movlw	low(038h)
  5468  0020DC  0E38               	movwf	((c:Beep@duration)),c
  5469  0020DE  6E4D               	call	_Beep	;wreg free
  5470  0020E0  EC8E  F02B         	line	452
  5471                           ;main.c: 452:  Beep(830, 85);
  5472                           	movlw	high(03Ch)
  5473  0020E4  0E00               	movwf	((c:sleep@ms+1)),c
  5474  0020E6  6E03               	movlw	low(03Ch)
  5475  0020E8  0E3C               	movwf	((c:sleep@ms)),c
  5476  0020EA  6E02               	call	_sleep	;wreg free
  5477  0020EC  ECF0  F02D         	line	453
  5478                           ;main.c: 453:  sleep(6);
  5479                           	movlw	high(0149h)
  5480  0020F0  0E01               	movwf	((c:Beep@frequency+1)),c
  5481  0020F2  6E4C               	movlw	low(0149h)
  5482  0020F4  0E49               	movwf	((c:Beep@frequency)),c
  5483  0020F6  6E4B               	movlw	high(076h)
  5484  0020F8  0E00               	movwf	((c:Beep@duration+1)),c
  5485  0020FA  6E4E               	movlw	low(076h)
  5486  0020FC  0E76               	movwf	((c:Beep@duration)),c
  5487  0020FE  6E4D               	call	_Beep	;wreg free
  5488  002100  EC8E  F02B         	line	454
  5489                           ;main.c: 454:  Beep(415, 127);
  5490                           	movlw	high(079h)
  5491  002104  0E00               	movwf	((c:sleep@ms+1)),c
  5492  002106  6E03               	movlw	low(079h)
  5493  002108  0E79               	movwf	((c:sleep@ms)),c
  5494  00210A  6E02               	call	_sleep	;wreg free
  5495  00210C  ECF0  F02D         	line	455
  5496                           ;main.c: 455:  sleep(124);
  5497                           	movlw	high(01B8h)
  5498  002110  0E01               	movwf	((c:Beep@frequency+1)),c
  5499  002112  6E4C               	movlw	low(01B8h)
  5500  002114  0EB8               	movwf	((c:Beep@frequency)),c
  5501  002116  6E4B               	movlw	high(083h)
  5502  002118  0E00               	movwf	((c:Beep@duration+1)),c
  5503  00211A  6E4E               	movlw	low(083h)
  5504  00211C  0E83               	movwf	((c:Beep@duration)),c
  5505  00211E  6E4D               	call	_Beep	;wreg free
  5506  002120  EC8E  F02B         	line	456
  5507                           ;main.c: 456:  Beep(739, 122);
  5508                           	movlw	high(07Bh)
  5509  002124  0E00               	movwf	((c:sleep@ms+1)),c
  5510  002126  6E03               	movlw	low(07Bh)
  5511  002128  0E7B               	movwf	((c:sleep@ms)),c
  5512  00212A  6E02               	call	_sleep	;wreg free
  5513  00212C  ECF0  F02D         	line	457
  5514                           ;main.c: 457:  sleep(18);
  5515                           	movlw	high(024Bh)
  5516  002130  0E02               	movwf	((c:Beep@frequency+1)),c
  5517  002132  6E4C               	movlw	low(024Bh)
  5518  002134  0E4B               	movwf	((c:Beep@frequency)),c
  5519  002136  6E4B               	movlw	high(07Bh)
  5520  002138  0E00               	movwf	((c:Beep@duration+1)),c
  5521  00213A  6E4E               	movlw	low(07Bh)
  5522  00213C  0E7B               	movwf	((c:Beep@duration)),c
  5523  00213E  6E4D               	call	_Beep	;wreg free
  5524  002140  EC8E  F02B         	line	458
  5525                           ;main.c: 458:  Beep(739, 89);
  5526                           	movlw	high(08h)
  5527  002144  0E00               	movwf	((c:sleep@ms+1)),c
  5528  002146  6E03               	movlw	low(08h)
  5529  002148  0E08               	movwf	((c:sleep@ms)),c
  5530  00214A  6E02               	call	_sleep	;wreg free
  5531  00214C  ECF0  F02D         	line	459
  5532                           ;main.c: 459:  sleep(18);
  5533                           	movlw	high(0125h)
  5534  002150  0E01               	movwf	((c:Beep@frequency+1)),c
  5535  002152  6E4C               	movlw	low(0125h)
  5536  002154  0E25               	movwf	((c:Beep@frequency)),c
  5537  002156  6E4B               	movlw	high(057h)
  5538  002158  0E00               	movwf	((c:Beep@duration+1)),c
  5539  00215A  6E4E               	movlw	low(057h)
  5540  00215C  0E57               	movwf	((c:Beep@duration)),c
  5541  00215E  6E4D               	call	_Beep	;wreg free
  5542  002160  EC8E  F02B         	line	460
  5543                           ;main.c: 460:  Beep(739, 119);
  5544                           	movlw	high(019h)
  5545  002164  0E00               	movwf	((c:sleep@ms+1)),c
  5546  002166  6E03               	movlw	low(019h)
  5547  002168  0E19               	movwf	((c:sleep@ms)),c
  5548  00216A  6E02               	call	_sleep	;wreg free
  5549  00216C  ECF0  F02D         	line	461
  5550                           ;main.c: 461:  sleep(22);
  5551                           	movlw	high(019Fh)
  5552  002170  0E01               	movwf	((c:Beep@frequency+1)),c
  5553  002172  6E4C               	movlw	low(019Fh)
  5554  002174  0E9F               	movwf	((c:Beep@frequency)),c
  5555  002176  6E4B               	movlw	high(094h)
  5556  002178  0E00               	movwf	((c:Beep@duration+1)),c
  5557  00217A  6E4E               	movlw	low(094h)
  5558  00217C  0E94               	movwf	((c:Beep@duration)),c
  5559  00217E  6E4D               	call	_Beep	;wreg free
  5560  002180  EC8E  F02B         	line	462
  5561                           ;main.c: 462:  Beep(739, 85);
  5562                           	movlw	high(05Eh)
  5563  002184  0E00               	movwf	((c:sleep@ms+1)),c
  5564  002186  6E03               	movlw	low(05Eh)
  5565  002188  0E5E               	movwf	((c:sleep@ms)),c
  5566  00218A  6E02               	call	_sleep	;wreg free
  5567  00218C  ECF0  F02D         	line	463
  5568                           ;main.c: 463:  sleep(16);
  5569                           	movlw	high(024Bh)
  5570  002190  0E02               	movwf	((c:Beep@frequency+1)),c
  5571  002192  6E4C               	movlw	low(024Bh)
  5572  002194  0E4B               	movwf	((c:Beep@frequency)),c
  5573  002196  6E4B               	movlw	high(074h)
  5574  002198  0E00               	movwf	((c:Beep@duration+1)),c
  5575  00219A  6E4E               	movlw	low(074h)
  5576  00219C  0E74               	movwf	((c:Beep@duration)),c
  5577  00219E  6E4D               	call	_Beep	;wreg free
  5578  0021A0  EC8E  F02B         	line	464
  5579                           ;main.c: 464:  Beep(246, 121);
  5580                           	movlw	high(02h)
  5581  0021A4  0E00               	movwf	((c:sleep@ms+1)),c
  5582  0021A6  6E03               	movlw	low(02h)
  5583  0021A8  0E02               	movwf	((c:sleep@ms)),c
  5584  0021AA  6E02               	call	_sleep	;wreg free
  5585  0021AC  ECF0  F02D         	line	465
  5586                           ;main.c: 465:  sleep(18);
  5587                           	movlw	high(0F6h)
  5588  0021B0  0E00               	movwf	((c:Beep@frequency+1)),c
  5589  0021B2  6E4C               	movlw	low(0F6h)
  5590  0021B4  0EF6               	movwf	((c:Beep@frequency)),c
  5591  0021B6  6E4B               	movlw	high(056h)
  5592  0021B8  0E00               	movwf	((c:Beep@duration+1)),c
  5593  0021BA  6E4E               	movlw	low(056h)
  5594  0021BC  0E56               	movwf	((c:Beep@duration)),c
  5595  0021BE  6E4D               	call	_Beep	;wreg free
  5596  0021C0  EC8E  F02B         	line	466
  5597                           ;main.c: 466:  Beep(739, 67);
  5598                           	movlw	high(025h)
  5599  0021C4  0E00               	movwf	((c:sleep@ms+1)),c
  5600  0021C6  6E03               	movlw	low(025h)
  5601  0021C8  0E25               	movwf	((c:sleep@ms)),c
  5602  0021CA  6E02               	call	_sleep	;wreg free
  5603  0021CC  ECF0  F02D         	line	467
  5604                           ;main.c: 467:  sleep(47);
  5605                           	movlw	high(024Bh)
  5606  0021D0  0E02               	movwf	((c:Beep@frequency+1)),c
  5607  0021D2  6E4C               	movlw	low(024Bh)
  5608  0021D4  0E4B               	movwf	((c:Beep@frequency)),c
  5609  0021D6  6E4B               	movlw	high(073h)
  5610  0021D8  0E00               	movwf	((c:Beep@duration+1)),c
  5611  0021DA  6E4E               	movlw	low(073h)
  5612  0021DC  0E73               	movwf	((c:Beep@duration)),c
  5613  0021DE  6E4D               	call	_Beep	;wreg free
  5614  0021E0  EC8E  F02B         	line	468
  5615                           ;main.c: 468:  Beep(207, 117);
  5616                           	movlw	high(0496h)
  5617  0021E4  0E04               	movwf	((c:Beep@frequency+1)),c
  5618  0021E6  6E4C               	movlw	low(0496h)
  5619  0021E8  0E96               	movwf	((c:Beep@frequency)),c
  5620  0021EA  6E4B               	movlw	high(05Ah)
  5621  0021EC  0E00               	movwf	((c:Beep@duration+1)),c
  5622  0021EE  6E4E               	movlw	low(05Ah)
  5623  0021F0  0E5A               	movwf	((c:Beep@duration)),c
  5624  0021F2  6E4D               	call	_Beep	;wreg free
  5625  0021F4  EC8E  F02B         	line	469
  5626                           ;main.c: 469:  sleep(8);
  5627                           	movlw	high(023h)
  5628  0021F8  0E00               	movwf	((c:sleep@ms+1)),c
  5629  0021FA  6E03               	movlw	low(023h)
  5630  0021FC  0E23               	movwf	((c:sleep@ms)),c
  5631  0021FE  6E02               	call	_sleep	;wreg free
  5632  002200  ECF0  F02D         	line	470
  5633                           ;main.c: 470:  Beep(739, 85);
  5634                           	movlw	high(02E3h)
  5635  002204  0E02               	movwf	((c:Beep@frequency+1)),c
  5636  002206  6E4C               	movlw	low(02E3h)
  5637  002208  0EE3               	movwf	((c:Beep@frequency)),c
  5638  00220A  6E4B               	movlw	high(0ADh)
  5639  00220C  0E00               	movwf	((c:Beep@duration+1)),c
  5640  00220E  6E4E               	movlw	low(0ADh)
  5641  002210  0EAD               	movwf	((c:Beep@duration)),c
  5642  002212  6E4D               	call	_Beep	;wreg free
  5643  002214  EC8E  F02B         	line	471
  5644                           ;main.c: 471:  sleep(35);
  5645                           	movlw	high(050h)
  5646  002218  0E00               	movwf	((c:sleep@ms+1)),c
  5647  00221A  6E03               	movlw	low(050h)
  5648  00221C  0E50               	movwf	((c:sleep@ms)),c
  5649  00221E  6E02               	call	_sleep	;wreg free
  5650  002220  ECF0  F02D         	line	472
  5651                           ;main.c: 472:  Beep(698, 101);
  5652                           	movlw	high(033Eh)
  5653  002224  0E03               	movwf	((c:Beep@frequency+1)),c
  5654  002226  6E4C               	movlw	low(033Eh)
  5655  002228  0E3E               	movwf	((c:Beep@frequency)),c
  5656  00222A  6E4B               	movlw	high(036h)
  5657  00222C  0E00               	movwf	((c:Beep@duration+1)),c
  5658  00222E  6E4E               	movlw	low(036h)
  5659  002230  0E36               	movwf	((c:Beep@duration)),c
  5660  002232  6E4D               	call	_Beep	;wreg free
  5661  002234  EC8E  F02B         	line	473
  5662                           ;main.c: 473:  sleep(26);
  5663                           	movlw	high(012h)
  5664  002238  0E00               	movwf	((c:sleep@ms+1)),c
  5665  00223A  6E03               	movlw	low(012h)
  5666  00223C  0E12               	movwf	((c:sleep@ms)),c
  5667  00223E  6E02               	call	_sleep	;wreg free
  5668  002240  ECF0  F02D         	line	474
  5669                           ;main.c: 474:  Beep(830, 74);
  5670                           	movlw	high(02E3h)
  5671  002244  0E02               	movwf	((c:Beep@frequency+1)),c
  5672  002246  6E4C               	movlw	low(02E3h)
  5673  002248  0EE3               	movwf	((c:Beep@frequency)),c
  5674  00224A  6E4B               	movlw	high(048h)
  5675  00224C  0E00               	movwf	((c:Beep@duration+1)),c
  5676  00224E  6E4E               	movlw	low(048h)
  5677  002250  0E48               	movwf	((c:Beep@duration)),c
  5678  002252  6E4D               	call	_Beep	;wreg free
  5679  002254  EC8E  F02B         	line	475
  5680                           ;main.c: 475:  sleep(43);
  5681                           	movlw	high(06h)
  5682  002258  0E00               	movwf	((c:sleep@ms+1)),c
  5683  00225A  6E03               	movlw	low(06h)
  5684  00225C  0E06               	movwf	((c:sleep@ms)),c
  5685  00225E  6E02               	call	_sleep	;wreg free
  5686  002260  ECF0  F02D         	line	476
  5687                           ;main.c: 476:  Beep(987, 109);
  5688                           	movlw	high(033Eh)
  5689  002264  0E03               	movwf	((c:Beep@frequency+1)),c
  5690  002266  6E4C               	movlw	low(033Eh)
  5691  002268  0E3E               	movwf	((c:Beep@frequency)),c
  5692  00226A  6E4B               	movlw	high(055h)
  5693  00226C  0E00               	movwf	((c:Beep@duration+1)),c
  5694  00226E  6E4E               	movlw	low(055h)
  5695  002270  0E55               	movwf	((c:Beep@duration)),c
  5696  002272  6E4D               	call	_Beep	;wreg free
  5697  002274  EC8E  F02B         	line	477
  5698                           ;main.c: 477:  sleep(16);
  5699                           	movlw	high(06h)
  5700  002278  0E00               	movwf	((c:sleep@ms+1)),c
  5701  00227A  6E03               	movlw	low(06h)
  5702  00227C  0E06               	movwf	((c:sleep@ms)),c
  5703  00227E  6E02               	call	_sleep	;wreg free
  5704  002280  ECF0  F02D         	line	478
  5705                           ;main.c: 478:  Beep(830, 64);
  5706                           	movlw	high(019Fh)
  5707  002284  0E01               	movwf	((c:Beep@frequency+1)),c
  5708  002286  6E4C               	movlw	low(019Fh)
  5709  002288  0E9F               	movwf	((c:Beep@frequency)),c
  5710  00228A  6E4B               	movlw	high(07Fh)
  5711  00228C  0E00               	movwf	((c:Beep@duration+1)),c
  5712  00228E  6E4E               	movlw	low(07Fh)
  5713  002290  0E7F               	movwf	((c:Beep@duration)),c
  5714  002292  6E4D               	call	_Beep	;wreg free
  5715  002294  EC8E  F02B         	line	479
  5716                           ;main.c: 479:  sleep(58);
  5717                           	movlw	high(07Ch)
  5718  002298  0E00               	movwf	((c:sleep@ms+1)),c
  5719  00229A  6E03               	movlw	low(07Ch)
  5720  00229C  0E7C               	movwf	((c:sleep@ms)),c
  5721  00229E  6E02               	call	_sleep	;wreg free
  5722  0022A0  ECF0  F02D         	line	480
  5723                           ;main.c: 480:  Beep(184, 113);
  5724                           	movlw	high(02E3h)
  5725  0022A4  0E02               	movwf	((c:Beep@frequency+1)),c
  5726  0022A6  6E4C               	movlw	low(02E3h)
  5727  0022A8  0EE3               	movwf	((c:Beep@frequency)),c
  5728  0022AA  6E4B               	movlw	high(07Ah)
  5729  0022AC  0E00               	movwf	((c:Beep@duration+1)),c
  5730  0022AE  6E4E               	movlw	low(07Ah)
  5731  0022B0  0E7A               	movwf	((c:Beep@duration)),c
  5732  0022B2  6E4D               	call	_Beep	;wreg free
  5733  0022B4  EC8E  F02B         	line	481
  5734                           ;main.c: 481:  sleep(18);
  5735                           	movlw	high(012h)
  5736  0022B8  0E00               	movwf	((c:sleep@ms+1)),c
  5737  0022BA  6E03               	movlw	low(012h)
  5738  0022BC  0E12               	movwf	((c:sleep@ms)),c
  5739  0022BE  6E02               	call	_sleep	;wreg free
  5740  0022C0  ECF0  F02D         	line	482
  5741                           ;main.c: 482:  Beep(830, 68);
  5742                           	movlw	high(02E3h)
  5743  0022C4  0E02               	movwf	((c:Beep@frequency+1)),c
  5744  0022C6  6E4C               	movlw	low(02E3h)
  5745  0022C8  0EE3               	movwf	((c:Beep@frequency)),c
  5746  0022CA  6E4B               	movlw	high(059h)
  5747  0022CC  0E00               	movwf	((c:Beep@duration+1)),c
  5748  0022CE  6E4E               	movlw	low(059h)
  5749  0022D0  0E59               	movwf	((c:Beep@duration)),c
  5750  0022D2  6E4D               	call	_Beep	;wreg free
  5751  0022D4  EC8E  F02B         	line	483
  5752                           ;main.c: 483:  sleep(45);
  5753                           	movlw	high(012h)
  5754  0022D8  0E00               	movwf	((c:sleep@ms+1)),c
  5755  0022DA  6E03               	movlw	low(012h)
  5756  0022DC  0E12               	movwf	((c:sleep@ms)),c
  5757  0022DE  6E02               	call	_sleep	;wreg free
  5758  0022E0  ECF0  F02D         	line	484
  5759                           ;main.c: 484:  Beep(739, 128);
  5760                           	movlw	high(02E3h)
  5761  0022E4  0E02               	movwf	((c:Beep@frequency+1)),c
  5762  0022E6  6E4C               	movlw	low(02E3h)
  5763  0022E8  0EE3               	movwf	((c:Beep@frequency)),c
  5764  0022EA  6E4B               	movlw	high(077h)
  5765  0022EC  0E00               	movwf	((c:Beep@duration+1)),c
  5766  0022EE  6E4E               	movlw	low(077h)
  5767  0022F0  0E77               	movwf	((c:Beep@duration)),c
  5768  0022F2  6E4D               	call	_Beep	;wreg free
  5769  0022F4  EC8E  F02B         	line	485
  5770                           ;main.c: 485:  sleep(10);
  5771                           	movlw	high(016h)
  5772  0022F8  0E00               	movwf	((c:sleep@ms+1)),c
  5773  0022FA  6E03               	movlw	low(016h)
  5774  0022FC  0E16               	movwf	((c:sleep@ms)),c
  5775  0022FE  6E02               	call	_sleep	;wreg free
  5776  002300  ECF0  F02D         	line	486
  5777                           ;main.c: 486:  Beep(830, 74);
  5778                           	movlw	high(02E3h)
  5779  002304  0E02               	movwf	((c:Beep@frequency+1)),c
  5780  002306  6E4C               	movlw	low(02E3h)
  5781  002308  0EE3               	movwf	((c:Beep@frequency)),c
  5782  00230A  6E4B               	movlw	high(055h)
  5783  00230C  0E00               	movwf	((c:Beep@duration+1)),c
  5784  00230E  6E4E               	movlw	low(055h)
  5785  002310  0E55               	movwf	((c:Beep@duration)),c
  5786  002312  6E4D               	call	_Beep	;wreg free
  5787  002314  EC8E  F02B         	line	487
  5788                           ;main.c: 487:  sleep(27);
  5789                           	movlw	high(010h)
  5790  002318  0E00               	movwf	((c:sleep@ms+1)),c
  5791  00231A  6E03               	movlw	low(010h)
  5792  00231C  0E10               	movwf	((c:sleep@ms)),c
  5793  00231E  6E02               	call	_sleep	;wreg free
  5794  002320  ECF0  F02D         	line	488
  5795                           ;main.c: 488:  Beep(739, 118);
  5796                           	movlw	high(0F6h)
  5797  002324  0E00               	movwf	((c:Beep@frequency+1)),c
  5798  002326  6E4C               	movlw	low(0F6h)
  5799  002328  0EF6               	movwf	((c:Beep@frequency)),c
  5800  00232A  6E4B               	movlw	high(079h)
  5801  00232C  0E00               	movwf	((c:Beep@duration+1)),c
  5802  00232E  6E4E               	movlw	low(079h)
  5803  002330  0E79               	movwf	((c:Beep@duration)),c
  5804  002332  6E4D               	call	_Beep	;wreg free
  5805  002334  EC8E  F02B         	line	489
  5806                           ;main.c: 489:  sleep(30);
  5807                           	movlw	high(012h)
  5808  002338  0E00               	movwf	((c:sleep@ms+1)),c
  5809  00233A  6E03               	movlw	low(012h)
  5810  00233C  0E12               	movwf	((c:sleep@ms)),c
  5811  00233E  6E02               	call	_sleep	;wreg free
  5812  002340  ECF0  F02D         	line	490
  5813                           ;main.c: 490:  Beep(880, 61);
  5814                           	movlw	high(02E3h)
  5815  002344  0E02               	movwf	((c:Beep@frequency+1)),c
  5816  002346  6E4C               	movlw	low(02E3h)
  5817  002348  0EE3               	movwf	((c:Beep@frequency)),c
  5818  00234A  6E4B               	movlw	high(043h)
  5819  00234C  0E00               	movwf	((c:Beep@duration+1)),c
  5820  00234E  6E4E               	movlw	low(043h)
  5821  002350  0E43               	movwf	((c:Beep@duration)),c
  5822  002352  6E4D               	call	_Beep	;wreg free
  5823  002354  EC8E  F02B         	line	491
  5824                           ;main.c: 491:  sleep(43);
  5825                           	movlw	high(02Fh)
  5826  002358  0E00               	movwf	((c:sleep@ms+1)),c
  5827  00235A  6E03               	movlw	low(02Fh)
  5828  00235C  0E2F               	movwf	((c:sleep@ms)),c
  5829  00235E  6E02               	call	_sleep	;wreg free
  5830  002360  ECF0  F02D         	line	492
  5831                           ;main.c: 492:  Beep(554, 119);
  5832                           	movlw	high(0CFh)
  5833  002364  0E00               	movwf	((c:Beep@frequency+1)),c
  5834  002366  6E4C               	movlw	low(0CFh)
  5835  002368  0ECF               	movwf	((c:Beep@frequency)),c
  5836  00236A  6E4B               	movlw	high(075h)
  5837  00236C  0E00               	movwf	((c:Beep@duration+1)),c
  5838  00236E  6E4E               	movlw	low(075h)
  5839  002370  0E75               	movwf	((c:Beep@duration)),c
  5840  002372  6E4D               	call	_Beep	;wreg free
  5841  002374  EC8E  F02B         	line	493
  5842                           ;main.c: 493:  sleep(10);
  5843                           	movlw	high(08h)
  5844  002378  0E00               	movwf	((c:sleep@ms+1)),c
  5845  00237A  6E03               	movlw	low(08h)
  5846  00237C  0E08               	movwf	((c:sleep@ms)),c
  5847  00237E  6E02               	call	_sleep	;wreg free
  5848  002380  ECF0  F02D         	line	494
  5849                           ;main.c: 494:  Beep(698, 118);
  5850                           	movlw	high(02E3h)
  5851  002384  0E02               	movwf	((c:Beep@frequency+1)),c
  5852  002386  6E4C               	movlw	low(02E3h)
  5853  002388  0EE3               	movwf	((c:Beep@frequency)),c
  5854  00238A  6E4B               	movlw	high(055h)
  5855  00238C  0E00               	movwf	((c:Beep@duration+1)),c
  5856  00238E  6E4E               	movlw	low(055h)
  5857  002390  0E55               	movwf	((c:Beep@duration)),c
  5858  002392  6E4D               	call	_Beep	;wreg free
  5859  002394  EC8E  F02B         	line	495
  5860                           ;main.c: 495:  sleep(10);
  5861                           	movlw	high(023h)
  5862  002398  0E00               	movwf	((c:sleep@ms+1)),c
  5863  00239A  6E03               	movlw	low(023h)
  5864  00239C  0E23               	movwf	((c:sleep@ms)),c
  5865  00239E  6E02               	call	_sleep	;wreg free
  5866  0023A0  ECF0  F02D         	line	496
  5867                           ;main.c: 496:  Beep(739, 107);
  5868                           	movlw	high(02BAh)
  5869  0023A4  0E02               	movwf	((c:Beep@frequency+1)),c
  5870  0023A6  6E4C               	movlw	low(02BAh)
  5871  0023A8  0EBA               	movwf	((c:Beep@frequency)),c
  5872  0023AA  6E4B               	movlw	high(065h)
  5873  0023AC  0E00               	movwf	((c:Beep@duration+1)),c
  5874  0023AE  6E4E               	movlw	low(065h)
  5875  0023B0  0E65               	movwf	((c:Beep@duration)),c
  5876  0023B2  6E4D               	call	_Beep	;wreg free
  5877  0023B4  EC8E  F02B         	line	497
  5878                           ;main.c: 497:  sleep(20);
  5879                           	movlw	high(01Ah)
  5880  0023B8  0E00               	movwf	((c:sleep@ms+1)),c
  5881  0023BA  6E03               	movlw	low(01Ah)
  5882  0023BC  0E1A               	movwf	((c:sleep@ms)),c
  5883  0023BE  6E02               	call	_sleep	;wreg free
  5884  0023C0  ECF0  F02D         	line	498
  5885                           ;main.c: 498:  Beep(987, 67);
  5886                           	movlw	high(033Eh)
  5887  0023C4  0E03               	movwf	((c:Beep@frequency+1)),c
  5888  0023C6  6E4C               	movlw	low(033Eh)
  5889  0023C8  0E3E               	movwf	((c:Beep@frequency)),c
  5890  0023CA  6E4B               	movlw	high(04Ah)
  5891  0023CC  0E00               	movwf	((c:Beep@duration+1)),c
  5892  0023CE  6E4E               	movlw	low(04Ah)
  5893  0023D0  0E4A               	movwf	((c:Beep@duration)),c
  5894  0023D2  6E4D               	call	_Beep	;wreg free
  5895  0023D4  EC8E  F02B         	line	499
  5896                           ;main.c: 499:  sleep(56);
  5897                           	movlw	high(02Bh)
  5898  0023D8  0E00               	movwf	((c:sleep@ms+1)),c
  5899  0023DA  6E03               	movlw	low(02Bh)
  5900  0023DC  0E2B               	movwf	((c:sleep@ms)),c
  5901  0023DE  6E02               	call	_sleep	;wreg free
  5902  0023E0  ECF0  F02D         	line	500
  5903                           ;main.c: 500:  Beep(493, 122);
  5904                           	movlw	high(03DBh)
  5905  0023E4  0E03               	movwf	((c:Beep@frequency+1)),c
  5906  0023E6  6E4C               	movlw	low(03DBh)
  5907  0023E8  0EDB               	movwf	((c:Beep@frequency)),c
  5908  0023EA  6E4B               	movlw	high(06Dh)
  5909  0023EC  0E00               	movwf	((c:Beep@duration+1)),c
  5910  0023EE  6E4E               	movlw	low(06Dh)
  5911  0023F0  0E6D               	movwf	((c:Beep@duration)),c
  5912  0023F2  6E4D               	call	_Beep	;wreg free
  5913  0023F4  EC8E  F02B         	line	501
  5914                           ;main.c: 501:  sleep(123);
  5915                           	movlw	high(010h)
  5916  0023F8  0E00               	movwf	((c:sleep@ms+1)),c
  5917  0023FA  6E03               	movlw	low(010h)
  5918  0023FC  0E10               	movwf	((c:sleep@ms)),c
  5919  0023FE  6E02               	call	_sleep	;wreg free
  5920  002400  ECF0  F02D         	line	502
  5921                           ;main.c: 502:  Beep(739, 107);
  5922                           	movlw	high(033Eh)
  5923  002404  0E03               	movwf	((c:Beep@frequency+1)),c
  5924  002406  6E4C               	movlw	low(033Eh)
  5925  002408  0E3E               	movwf	((c:Beep@frequency)),c
  5926  00240A  6E4B               	movlw	high(040h)
  5927  00240C  0E00               	movwf	((c:Beep@duration+1)),c
  5928  00240E  6E4E               	movlw	low(040h)
  5929  002410  0E40               	movwf	((c:Beep@duration)),c
  5930  002412  6E4D               	call	_Beep	;wreg free
  5931  002414  EC8E  F02B         	line	503
  5932                           ;main.c: 503:  sleep(25);
  5933                           	movlw	high(03Ah)
  5934  002418  0E00               	movwf	((c:sleep@ms+1)),c
  5935  00241A  6E03               	movlw	low(03Ah)
  5936  00241C  0E3A               	movwf	((c:sleep@ms)),c
  5937  00241E  6E02               	call	_sleep	;wreg free
  5938  002420  ECF0  F02D         	line	504
  5939                           ;main.c: 504:  Beep(1108, 90);
  5940                           	movlw	high(0B8h)
  5941  002424  0E00               	movwf	((c:Beep@frequency+1)),c
  5942  002426  6E4C               	movlw	low(0B8h)
  5943  002428  0EB8               	movwf	((c:Beep@frequency)),c
  5944  00242A  6E4B               	movlw	high(071h)
  5945  00242C  0E00               	movwf	((c:Beep@duration+1)),c
  5946  00242E  6E4E               	movlw	low(071h)
  5947  002430  0E71               	movwf	((c:Beep@duration)),c
  5948  002432  6E4D               	call	_Beep	;wreg free
  5949  002434  EC8E  F02B         	line	505
  5950                           ;main.c: 505:  sleep(27);
  5951                           	movlw	high(012h)
  5952  002438  0E00               	movwf	((c:sleep@ms+1)),c
  5953  00243A  6E03               	movlw	low(012h)
  5954  00243C  0E12               	movwf	((c:sleep@ms)),c
  5955  00243E  6E02               	call	_sleep	;wreg free
  5956  002440  ECF0  F02D         	line	506
  5957                           ;main.c: 506:  Beep(739, 124);
  5958                           	movlw	high(033Eh)
  5959  002444  0E03               	movwf	((c:Beep@frequency+1)),c
  5960  002446  6E4C               	movlw	low(033Eh)
  5961  002448  0E3E               	movwf	((c:Beep@frequency)),c
  5962  00244A  6E4B               	movlw	high(044h)
  5963  00244C  0E00               	movwf	((c:Beep@duration+1)),c
  5964  00244E  6E4E               	movlw	low(044h)
  5965  002450  0E44               	movwf	((c:Beep@duration)),c
  5966  002452  6E4D               	call	_Beep	;wreg free
  5967  002454  EC8E  F02B         	line	507
  5968                           ;main.c: 507:  Beep(698, 144);
  5969                           	movlw	high(02Dh)
  5970  002458  0E00               	movwf	((c:sleep@ms+1)),c
  5971  00245A  6E03               	movlw	low(02Dh)
  5972  00245C  0E2D               	movwf	((c:sleep@ms)),c
  5973  00245E  6E02               	call	_sleep	;wreg free
  5974  002460  ECF0  F02D         	line	508
  5975                           ;main.c: 508:  sleep(99);
  5976                           	movlw	high(02E3h)
  5977  002464  0E02               	movwf	((c:Beep@frequency+1)),c
  5978  002466  6E4C               	movlw	low(02E3h)
  5979  002468  0EE3               	movwf	((c:Beep@frequency)),c
  5980  00246A  6E4B               	movlw	high(080h)
  5981  00246C  0E00               	movwf	((c:Beep@duration+1)),c
  5982  00246E  6E4E               	movlw	low(080h)
  5983  002470  0E80               	movwf	((c:Beep@duration)),c
  5984  002472  6E4D               	call	_Beep	;wreg free
  5985  002474  EC8E  F02B         	line	509
  5986                           ;main.c: 509:  Beep(1174, 75);
  5987                           	movlw	high(0Ah)
  5988  002478  0E00               	movwf	((c:sleep@ms+1)),c
  5989  00247A  6E03               	movlw	low(0Ah)
  5990  00247C  0E0A               	movwf	((c:sleep@ms)),c
  5991  00247E  6E02               	call	_sleep	;wreg free
  5992  002480  ECF0  F02D         	line	510
  5993                           ;main.c: 510:  sleep(41);
  5994                           	movlw	high(033Eh)
  5995  002484  0E03               	movwf	((c:Beep@frequency+1)),c
  5996  002486  6E4C               	movlw	low(033Eh)
  5997  002488  0E3E               	movwf	((c:Beep@frequency)),c
  5998  00248A  6E4B               	movlw	high(04Ah)
  5999  00248C  0E00               	movwf	((c:Beep@duration+1)),c
  6000  00248E  6E4E               	movlw	low(04Ah)
  6001  002490  0E4A               	movwf	((c:Beep@duration)),c
  6002  002492  6E4D               	call	_Beep	;wreg free
  6003  002494  EC8E  F02B         	line	511
  6004                           ;main.c: 511:  Beep(293, 123);
  6005                           	movlw	high(01Bh)
  6006  002498  0E00               	movwf	((c:sleep@ms+1)),c
  6007  00249A  6E03               	movlw	low(01Bh)
  6008  00249C  0E1B               	movwf	((c:sleep@ms)),c
  6009  00249E  6E02               	call	_sleep	;wreg free
  6010  0024A0  ECF0  F02D         	line	512
  6011                           ;main.c: 512:  sleep(120);
  6012                           	movlw	high(02E3h)
  6013  0024A4  0E02               	movwf	((c:Beep@frequency+1)),c
  6014  0024A6  6E4C               	movlw	low(02E3h)
  6015  0024A8  0EE3               	movwf	((c:Beep@frequency)),c
  6016  0024AA  6E4B               	movlw	high(076h)
  6017  0024AC  0E00               	movwf	((c:Beep@duration+1)),c
  6018  0024AE  6E4E               	movlw	low(076h)
  6019  0024B0  0E76               	movwf	((c:Beep@duration)),c
  6020  0024B2  6E4D               	call	_Beep	;wreg free
  6021  0024B4  EC8E  F02B         	line	513
  6022                           ;main.c: 513:  Beep(246, 124);
  6023                           	movlw	high(01Eh)
  6024  0024B8  0E00               	movwf	((c:sleep@ms+1)),c
  6025  0024BA  6E03               	movlw	low(01Eh)
  6026  0024BC  0E1E               	movwf	((c:sleep@ms)),c
  6027  0024BE  6E02               	call	_sleep	;wreg free
  6028  0024C0  ECF0  F02D         	line	514
  6029                           ;main.c: 514:  sleep(115);
  6030                           	movlw	high(0370h)
  6031  0024C4  0E03               	movwf	((c:Beep@frequency+1)),c
  6032  0024C6  6E4C               	movlw	low(0370h)
  6033  0024C8  0E70               	movwf	((c:Beep@frequency)),c
  6034  0024CA  6E4B               	movlw	high(03Dh)
  6035  0024CC  0E00               	movwf	((c:Beep@duration+1)),c
  6036  0024CE  6E4E               	movlw	low(03Dh)
  6037  0024D0  0E3D               	movwf	((c:Beep@duration)),c
  6038  0024D2  6E4D               	call	_Beep	;wreg free
  6039  0024D4  EC8E  F02B         	line	515
  6040                           ;main.c: 515:  Beep(1108, 76);
  6041                           	movlw	high(02Bh)
  6042  0024D8  0E00               	movwf	((c:sleep@ms+1)),c
  6043  0024DA  6E03               	movlw	low(02Bh)
  6044  0024DC  0E2B               	movwf	((c:sleep@ms)),c
  6045  0024DE  6E02               	call	_sleep	;wreg free
  6046  0024E0  ECF0  F02D         	line	516
  6047                           ;main.c: 516:  sleep(52);
  6048                           	movlw	high(022Ah)
  6049  0024E4  0E02               	movwf	((c:Beep@frequency+1)),c
  6050  0024E6  6E4C               	movlw	low(022Ah)
  6051  0024E8  0E2A               	movwf	((c:Beep@frequency)),c
  6052  0024EA  6E4B               	movlw	high(077h)
  6053  0024EC  0E00               	movwf	((c:Beep@duration+1)),c
  6054  0024EE  6E4E               	movlw	low(077h)
  6055  0024F0  0E77               	movwf	((c:Beep@duration)),c
  6056  0024F2  6E4D               	call	_Beep	;wreg free
  6057  0024F4  EC8E  F02B         	line	517
  6058                           ;main.c: 517:  Beep(987, 96);
  6059                           	movlw	high(0Ah)
  6060  0024F8  0E00               	movwf	((c:sleep@ms+1)),c
  6061  0024FA  6E03               	movlw	low(0Ah)
  6062  0024FC  0E0A               	movwf	((c:sleep@ms)),c
  6063  0024FE  6E02               	call	_sleep	;wreg free
  6064  002500  ECF0  F02D         	line	518
  6065                           ;main.c: 518:  sleep(20);
  6066                           	movlw	high(02BAh)
  6067  002504  0E02               	movwf	((c:Beep@frequency+1)),c
  6068  002506  6E4C               	movlw	low(02BAh)
  6069  002508  0EBA               	movwf	((c:Beep@frequency)),c
  6070  00250A  6E4B               	movlw	high(076h)
  6071  00250C  0E00               	movwf	((c:Beep@duration+1)),c
  6072  00250E  6E4E               	movlw	low(076h)
  6073  002510  0E76               	movwf	((c:Beep@duration)),c
  6074  002512  6E4D               	call	_Beep	;wreg free
  6075  002514  EC8E  F02B         	line	519
  6076                           ;main.c: 519:  Beep(739, 115);
  6077                           	movlw	high(0Ah)
  6078  002518  0E00               	movwf	((c:sleep@ms+1)),c
  6079  00251A  6E03               	movlw	low(0Ah)
  6080  00251C  0E0A               	movwf	((c:sleep@ms)),c
  6081  00251E  6E02               	call	_sleep	;wreg free
  6082  002520  ECF0  F02D         	line	520
  6083                           ;main.c: 520:  sleep(33);
  6084                           	movlw	high(02E3h)
  6085  002524  0E02               	movwf	((c:Beep@frequency+1)),c
  6086  002526  6E4C               	movlw	low(02E3h)
  6087  002528  0EE3               	movwf	((c:Beep@frequency)),c
  6088  00252A  6E4B               	movlw	high(06Bh)
  6089  00252C  0E00               	movwf	((c:Beep@duration+1)),c
  6090  00252E  6E4E               	movlw	low(06Bh)
  6091  002530  0E6B               	movwf	((c:Beep@duration)),c
  6092  002532  6E4D               	call	_Beep	;wreg free
  6093  002534  EC8E  F02B         	line	521
  6094                           ;main.c: 521:  Beep(880, 82);
  6095                           	movlw	high(014h)
  6096  002538  0E00               	movwf	((c:sleep@ms+1)),c
  6097  00253A  6E03               	movlw	low(014h)
  6098  00253C  0E14               	movwf	((c:sleep@ms)),c
  6099  00253E  6E02               	call	_sleep	;wreg free
  6100  002540  ECF0  F02D         	line	522
  6101                           ;main.c: 522:  sleep(27);
  6102                           	movlw	high(03DBh)
  6103  002544  0E03               	movwf	((c:Beep@frequency+1)),c
  6104  002546  6E4C               	movlw	low(03DBh)
  6105  002548  0EDB               	movwf	((c:Beep@frequency)),c
  6106  00254A  6E4B               	movlw	high(043h)
  6107  00254C  0E00               	movwf	((c:Beep@duration+1)),c
  6108  00254E  6E4E               	movlw	low(043h)
  6109  002550  0E43               	movwf	((c:Beep@duration)),c
  6110  002552  6E4D               	call	_Beep	;wreg free
  6111  002554  EC8E  F02B         	line	523
  6112                           ;main.c: 523:  Beep(830, 119);
  6113                           	movlw	high(038h)
  6114  002558  0E00               	movwf	((c:sleep@ms+1)),c
  6115  00255A  6E03               	movlw	low(038h)
  6116  00255C  0E38               	movwf	((c:sleep@ms)),c
  6117  00255E  6E02               	call	_sleep	;wreg free
  6118  002560  ECF0  F02D         	line	524
  6119                           ;main.c: 524:  sleep(129);
  6120                           	movlw	high(01EDh)
  6121  002564  0E01               	movwf	((c:Beep@frequency+1)),c
  6122  002566  6E4C               	movlw	low(01EDh)
  6123  002568  0EED               	movwf	((c:Beep@frequency)),c
  6124  00256A  6E4B               	movlw	high(07Ah)
  6125  00256C  0E00               	movwf	((c:Beep@duration+1)),c
  6126  00256E  6E4E               	movlw	low(07Ah)
  6127  002570  0E7A               	movwf	((c:Beep@duration)),c
  6128  002572  6E4D               	call	_Beep	;wreg free
  6129  002574  EC8E  F02B         	line	525
  6130                           ;main.c: 525:  Beep(440, 121);
  6131                           	movlw	high(07Bh)
  6132  002578  0E00               	movwf	((c:sleep@ms+1)),c
  6133  00257A  6E03               	movlw	low(07Bh)
  6134  00257C  0E7B               	movwf	((c:sleep@ms)),c
  6135  00257E  6E02               	call	_sleep	;wreg free
  6136  002580  ECF0  F02D         	line	526
  6137                           ;main.c: 526:  sleep(130);
  6138                           	movlw	high(02E3h)
  6139  002584  0E02               	movwf	((c:Beep@frequency+1)),c
  6140  002586  6E4C               	movlw	low(02E3h)
  6141  002588  0EE3               	movwf	((c:Beep@frequency)),c
  6142  00258A  6E4B               	movlw	high(06Bh)
  6143  00258C  0E00               	movwf	((c:Beep@duration+1)),c
  6144  00258E  6E4E               	movlw	low(06Bh)
  6145  002590  0E6B               	movwf	((c:Beep@duration)),c
  6146  002592  6E4D               	call	_Beep	;wreg free
  6147  002594  EC8E  F02B         	line	527
  6148                           ;main.c: 527:  Beep(554, 108);
  6149                           	movlw	high(019h)
  6150  002598  0E00               	movwf	((c:sleep@ms+1)),c
  6151  00259A  6E03               	movlw	low(019h)
  6152  00259C  0E19               	movwf	((c:sleep@ms)),c
  6153  00259E  6E02               	call	_sleep	;wreg free
  6154  0025A0  ECF0  F02D         	line	528
  6155                           ;main.c: 528:  sleep(2);
  6156                           	movlw	high(0454h)
  6157  0025A4  0E04               	movwf	((c:Beep@frequency+1)),c
  6158  0025A6  6E4C               	movlw	low(0454h)
  6159  0025A8  0E54               	movwf	((c:Beep@frequency)),c
  6160  0025AA  6E4B               	movlw	high(05Ah)
  6161  0025AC  0E00               	movwf	((c:Beep@duration+1)),c
  6162  0025AE  6E4E               	movlw	low(05Ah)
  6163  0025B0  0E5A               	movwf	((c:Beep@duration)),c
  6164  0025B2  6E4D               	call	_Beep	;wreg free
  6165  0025B4  EC8E  F02B         	line	529
  6166                           ;main.c: 529:  Beep(880, 67);
  6167                           	movlw	high(01Bh)
  6168  0025B8  0E00               	movwf	((c:sleep@ms+1)),c
  6169  0025BA  6E03               	movlw	low(01Bh)
  6170  0025BC  0E1B               	movwf	((c:sleep@ms)),c
  6171  0025BE  6E02               	call	_sleep	;wreg free
  6172  0025C0  ECF0  F02D         	line	530
  6173                           ;main.c: 530:  sleep(70);
  6174                           	movlw	high(02E3h)
  6175  0025C4  0E02               	movwf	((c:Beep@frequency+1)),c
  6176  0025C6  6E4C               	movlw	low(02E3h)
  6177  0025C8  0EE3               	movwf	((c:Beep@frequency)),c
  6178  0025CA  6E4B               	movlw	high(07Ch)
  6179  0025CC  0E00               	movwf	((c:Beep@duration+1)),c
  6180  0025CE  6E4E               	movlw	low(07Ch)
  6181  0025D0  0E7C               	movwf	((c:Beep@duration)),c
  6182  0025D2  6E4D               	call	_Beep	;wreg free
  6183  0025D4  EC8E  F02B         	line	531
  6184                           ;main.c: 531:  Beep(739, 220);
  6185                           	movlw	high(02BAh)
  6186  0025D8  0E02               	movwf	((c:Beep@frequency+1)),c
  6187  0025DA  6E4C               	movlw	low(02BAh)
  6188  0025DC  0EBA               	movwf	((c:Beep@frequency)),c
  6189  0025DE  6E4B               	movlw	high(090h)
  6190  0025E0  0E00               	movwf	((c:Beep@duration+1)),c
  6191  0025E2  6E4E               	movlw	low(090h)
  6192  0025E4  0E90               	movwf	((c:Beep@duration)),c
  6193  0025E6  6E4D               	call	_Beep	;wreg free
  6194  0025E8  EC8E  F02B         	line	532
  6195                           ;main.c: 532:  sleep(281);
  6196                           	movlw	high(063h)
  6197  0025EC  0E00               	movwf	((c:sleep@ms+1)),c
  6198  0025EE  6E03               	movlw	low(063h)
  6199  0025F0  0E63               	movwf	((c:sleep@ms)),c
  6200  0025F2  6E02               	call	_sleep	;wreg free
  6201  0025F4  ECF0  F02D         	line	533
  6202                           ;main.c: 533:  Beep(440, 156);
  6203                           	movlw	high(0496h)
  6204  0025F8  0E04               	movwf	((c:Beep@frequency+1)),c
  6205  0025FA  6E4C               	movlw	low(0496h)
  6206  0025FC  0E96               	movwf	((c:Beep@frequency)),c
  6207  0025FE  6E4B               	movlw	high(04Bh)
  6208  002600  0E00               	movwf	((c:Beep@duration+1)),c
  6209  002602  6E4E               	movlw	low(04Bh)
  6210  002604  0E4B               	movwf	((c:Beep@duration)),c
  6211  002606  6E4D               	call	_Beep	;wreg free
  6212  002608  EC8E  F02B         	line	534
  6213                           ;main.c: 534:  sleep(108);
  6214                           	movlw	high(029h)
  6215  00260C  0E00               	movwf	((c:sleep@ms+1)),c
  6216  00260E  6E03               	movlw	low(029h)
  6217  002610  0E29               	movwf	((c:sleep@ms)),c
  6218  002612  6E02               	call	_sleep	;wreg free
  6219  002614  ECF0  F02D         	line	535
  6220                           ;main.c: 535:  Beep(880, 85);
  6221                           	movlw	high(0125h)
  6222  002618  0E01               	movwf	((c:Beep@frequency+1)),c
  6223  00261A  6E4C               	movlw	low(0125h)
  6224  00261C  0E25               	movwf	((c:Beep@frequency)),c
  6225  00261E  6E4B               	movlw	high(07Bh)
  6226  002620  0E00               	movwf	((c:Beep@duration+1)),c
  6227  002622  6E4E               	movlw	low(07Bh)
  6228  002624  0E7B               	movwf	((c:Beep@duration)),c
  6229  002626  6E4D               	call	_Beep	;wreg free
  6230  002628  EC8E  F02B         	line	536
  6231                           ;main.c: 536:  sleep(39);
  6232                           	movlw	high(078h)
  6233  00262C  0E00               	movwf	((c:sleep@ms+1)),c
  6234  00262E  6E03               	movlw	low(078h)
  6235  002630  0E78               	movwf	((c:sleep@ms)),c
  6236  002632  6E02               	call	_sleep	;wreg free
  6237  002634  ECF0  F02D         	line	537
  6238                           ;main.c: 537:  Beep(739, 54);
  6239                           	movlw	high(0F6h)
  6240  002638  0E00               	movwf	((c:Beep@frequency+1)),c
  6241  00263A  6E4C               	movlw	low(0F6h)
  6242  00263C  0EF6               	movwf	((c:Beep@frequency)),c
  6243  00263E  6E4B               	movlw	high(07Ch)
  6244  002640  0E00               	movwf	((c:Beep@duration+1)),c
  6245  002642  6E4E               	movlw	low(07Ch)
  6246  002644  0E7C               	movwf	((c:Beep@duration)),c
  6247  002646  6E4D               	call	_Beep	;wreg free
  6248  002648  EC8E  F02B         	line	538
  6249                           ;main.c: 538:  sleep(41);
  6250                           	movlw	high(073h)
  6251  00264C  0E00               	movwf	((c:sleep@ms+1)),c
  6252  00264E  6E03               	movlw	low(073h)
  6253  002650  0E73               	movwf	((c:sleep@ms)),c
  6254  002652  6E02               	call	_sleep	;wreg free
  6255  002654  ECF0  F02D         	line	539
  6256                           ;main.c: 539:  Beep(369, 170);
  6257                           	movlw	high(0454h)
  6258  002658  0E04               	movwf	((c:Beep@frequency+1)),c
  6259  00265A  6E4C               	movlw	low(0454h)
  6260  00265C  0E54               	movwf	((c:Beep@frequency)),c
  6261  00265E  6E4B               	movlw	high(04Ch)
  6262  002660  0E00               	movwf	((c:Beep@duration+1)),c
  6263  002662  6E4E               	movlw	low(04Ch)
  6264  002664  0E4C               	movwf	((c:Beep@duration)),c
  6265  002666  6E4D               	call	_Beep	;wreg free
  6266  002668  EC8E  F02B         	line	540
  6267                           ;main.c: 540:  sleep(81);
  6268                           	movlw	high(034h)
  6269  00266C  0E00               	movwf	((c:sleep@ms+1)),c
  6270  00266E  6E03               	movlw	low(034h)
  6271  002670  0E34               	movwf	((c:sleep@ms)),c
  6272  002672  6E02               	call	_sleep	;wreg free
  6273  002674  ECF0  F02D         	line	541
  6274                           ;main.c: 541:  Beep(92, 105);
  6275                           	movlw	high(03DBh)
  6276  002678  0E03               	movwf	((c:Beep@frequency+1)),c
  6277  00267A  6E4C               	movlw	low(03DBh)
  6278  00267C  0EDB               	movwf	((c:Beep@frequency)),c
  6279  00267E  6E4B               	movlw	high(060h)
  6280  002680  0E00               	movwf	((c:Beep@duration+1)),c
  6281  002682  6E4E               	movlw	low(060h)
  6282  002684  0E60               	movwf	((c:Beep@duration)),c
  6283  002686  6E4D               	call	_Beep	;wreg free
  6284  002688  EC8E  F02B         	line	542
  6285                           ;main.c: 542:  sleep(37);
  6286                           	movlw	high(014h)
  6287  00268C  0E00               	movwf	((c:sleep@ms+1)),c
  6288  00268E  6E03               	movlw	low(014h)
  6289  002690  0E14               	movwf	((c:sleep@ms)),c
  6290  002692  6E02               	call	_sleep	;wreg free
  6291  002694  ECF0  F02D         	line	543
  6292                           ;main.c: 543:  Beep(554, 85);
  6293                           	movlw	high(02E3h)
  6294  002698  0E02               	movwf	((c:Beep@frequency+1)),c
  6295  00269A  6E4C               	movlw	low(02E3h)
  6296  00269C  0EE3               	movwf	((c:Beep@frequency)),c
  6297  00269E  6E4B               	movlw	high(073h)
  6298  0026A0  0E00               	movwf	((c:Beep@duration+1)),c
  6299  0026A2  6E4E               	movlw	low(073h)
  6300  0026A4  0E73               	movwf	((c:Beep@duration)),c
  6301  0026A6  6E4D               	call	_Beep	;wreg free
  6302  0026A8  EC8E  F02B         	line	544
  6303                           ;main.c: 544:  sleep(20);
  6304                           	movlw	high(021h)
  6305  0026AC  0E00               	movwf	((c:sleep@ms+1)),c
  6306  0026AE  6E03               	movlw	low(021h)
  6307  0026B0  0E21               	movwf	((c:sleep@ms)),c
  6308  0026B2  6E02               	call	_sleep	;wreg free
  6309  0026B4  ECF0  F02D         	line	545
  6310                           ;main.c: 545:  Beep(440, 181);
  6311                           	movlw	high(0370h)
  6312  0026B8  0E03               	movwf	((c:Beep@frequency+1)),c
  6313  0026BA  6E4C               	movlw	low(0370h)
  6314  0026BC  0E70               	movwf	((c:Beep@frequency)),c
  6315  0026BE  6E4B               	movlw	high(052h)
  6316  0026C0  0E00               	movwf	((c:Beep@duration+1)),c
  6317  0026C2  6E4E               	movlw	low(052h)
  6318  0026C4  0E52               	movwf	((c:Beep@duration)),c
  6319  0026C6  6E4D               	call	_Beep	;wreg free
  6320  0026C8  EC8E  F02B         	line	546
  6321                           ;main.c: 546:  sleep(72);
  6322                           	movlw	high(01Bh)
  6323  0026CC  0E00               	movwf	((c:sleep@ms+1)),c
  6324  0026CE  6E03               	movlw	low(01Bh)
  6325  0026D0  0E1B               	movwf	((c:sleep@ms)),c
  6326  0026D2  6E02               	call	_sleep	;wreg free
  6327  0026D4  ECF0  F02D         	line	547
  6328                           ;main.c: 547:  Beep(110, 109);
  6329                           	movlw	high(033Eh)
  6330  0026D8  0E03               	movwf	((c:Beep@frequency+1)),c
  6331  0026DA  6E4C               	movlw	low(033Eh)
  6332  0026DC  0E3E               	movwf	((c:Beep@frequency)),c
  6333  0026DE  6E4B               	movlw	high(077h)
  6334  0026E0  0E00               	movwf	((c:Beep@duration+1)),c
  6335  0026E2  6E4E               	movlw	low(077h)
  6336  0026E4  0E77               	movwf	((c:Beep@duration)),c
  6337  0026E6  6E4D               	call	_Beep	;wreg free
  6338  0026E8  EC8E  F02B         	line	548
  6339                           ;main.c: 548:  sleep(6);
  6340                           	movlw	high(081h)
  6341  0026EC  0E00               	movwf	((c:sleep@ms+1)),c
  6342  0026EE  6E03               	movlw	low(081h)
  6343  0026F0  0E81               	movwf	((c:sleep@ms)),c
  6344  0026F2  6E02               	call	_sleep	;wreg free
  6345  0026F4  ECF0  F02D         	line	549
  6346                           ;main.c: 549:  Beep(440, 102);
  6347                           	movlw	high(01B8h)
  6348  0026F8  0E01               	movwf	((c:Beep@frequency+1)),c
  6349  0026FA  6E4C               	movlw	low(01B8h)
  6350  0026FC  0EB8               	movwf	((c:Beep@frequency)),c
  6351  0026FE  6E4B               	movlw	high(079h)
  6352  002700  0E00               	movwf	((c:Beep@duration+1)),c
  6353  002702  6E4E               	movlw	low(079h)
  6354  002704  0E79               	movwf	((c:Beep@duration)),c
  6355  002706  6E4D               	call	_Beep	;wreg free
  6356  002708  EC8E  F02B         	line	550
  6357                           ;main.c: 550:  sleep(29);
  6358                           	movlw	high(082h)
  6359  00270C  0E00               	movwf	((c:sleep@ms+1)),c
  6360  00270E  6E03               	movlw	low(082h)
  6361  002710  0E82               	movwf	((c:sleep@ms)),c
  6362  002712  6E02               	call	_sleep	;wreg free
  6363  002714  ECF0  F02D         	line	551
  6364                           ;main.c: 551:  Beep(220, 174);
  6365                           	movlw	high(022Ah)
  6366  002718  0E02               	movwf	((c:Beep@frequency+1)),c
  6367  00271A  6E4C               	movlw	low(022Ah)
  6368  00271C  0E2A               	movwf	((c:Beep@frequency)),c
  6369  00271E  6E4B               	movlw	high(06Ch)
  6370  002720  0E00               	movwf	((c:Beep@duration+1)),c
  6371  002722  6E4E               	movlw	low(06Ch)
  6372  002724  0E6C               	movwf	((c:Beep@duration)),c
  6373  002726  6E4D               	call	_Beep	;wreg free
  6374  002728  EC8E  F02B         	line	552
  6375                           ;main.c: 552:  sleep(77);
  6376                           	movlw	high(02h)
  6377  00272C  0E00               	movwf	((c:sleep@ms+1)),c
  6378  00272E  6E03               	movlw	low(02h)
  6379  002730  0E02               	movwf	((c:sleep@ms)),c
  6380  002732  6E02               	call	_sleep	;wreg free
  6381  002734  ECF0  F02D         	line	553
  6382                           ;main.c: 553:  Beep(220, 94);
  6383                           	movlw	high(0370h)
  6384  002738  0E03               	movwf	((c:Beep@frequency+1)),c
  6385  00273A  6E4C               	movlw	low(0370h)
  6386  00273C  0E70               	movwf	((c:Beep@frequency)),c
  6387  00273E  6E4B               	movlw	high(043h)
  6388  002740  0E00               	movwf	((c:Beep@duration+1)),c
  6389  002742  6E4E               	movlw	low(043h)
  6390  002744  0E43               	movwf	((c:Beep@duration)),c
  6391  002746  6E4D               	call	_Beep	;wreg free
  6392  002748  EC8E  F02B         	line	554
  6393                           ;main.c: 554:  Beep(184, 91);
  6394                           	movlw	high(046h)
  6395  00274C  0E00               	movwf	((c:sleep@ms+1)),c
  6396  00274E  6E03               	movlw	low(046h)
  6397  002750  0E46               	movwf	((c:sleep@ms)),c
  6398  002752  6E02               	call	_sleep	;wreg free
  6399  002754  ECF0  F02D         	line	555
  6400                           ;main.c: 555:  sleep(56);
  6401                           	movlw	high(02E3h)
  6402  002758  0E02               	movwf	((c:Beep@frequency+1)),c
  6403  00275A  6E4C               	movlw	low(02E3h)
  6404  00275C  0EE3               	movwf	((c:Beep@frequency)),c
  6405  00275E  6E4B               	movlw	high(0DCh)
  6406  002760  0E00               	movwf	((c:Beep@duration+1)),c
  6407  002762  6E4E               	movlw	low(0DCh)
  6408  002764  0EDC               	movwf	((c:Beep@duration)),c
  6409  002766  6E4D               	call	_Beep	;wreg free
  6410  002768  EC8E  F02B         	line	556
  6411                           ;main.c: 556:  Beep(369, 186);
  6412                           	movlw	high(0119h)
  6413  00276C  0E01               	movwf	((c:sleep@ms+1)),c
  6414  00276E  6E03               	movlw	low(0119h)
  6415  002770  0E19               	movwf	((c:sleep@ms)),c
  6416  002772  6E02               	call	_sleep	;wreg free
  6417  002774  ECF0  F02D         	line	557
  6418                           ;main.c: 557:  sleep(60);
  6419                           	movlw	high(01B8h)
  6420  002778  0E01               	movwf	((c:Beep@frequency+1)),c
  6421  00277A  6E4C               	movlw	low(01B8h)
  6422  00277C  0EB8               	movwf	((c:Beep@frequency)),c
  6423  00277E  6E4B               	movlw	high(09Ch)
  6424  002780  0E00               	movwf	((c:Beep@duration+1)),c
  6425  002782  6E4E               	movlw	low(09Ch)
  6426  002784  0E9C               	movwf	((c:Beep@duration)),c
  6427  002786  6E4D               	call	_Beep	;wreg free
  6428  002788  EC8E  F02B         	line	558
  6429                           ;main.c: 558:  Beep(493, 159);
  6430                           	movlw	high(06Ch)
  6431  00278C  0E00               	movwf	((c:sleep@ms+1)),c
  6432  00278E  6E03               	movlw	low(06Ch)
  6433  002790  0E6C               	movwf	((c:sleep@ms)),c
  6434  002792  6E02               	call	_sleep	;wreg free
  6435  002794  ECF0  F02D         	line	559
  6436                           ;main.c: 559:  sleep(86);
  6437                           	movlw	high(0370h)
  6438  002798  0E03               	movwf	((c:Beep@frequency+1)),c
  6439  00279A  6E4C               	movlw	low(0370h)
  6440  00279C  0E70               	movwf	((c:Beep@frequency)),c
  6441  00279E  6E4B               	movlw	high(055h)
  6442  0027A0  0E00               	movwf	((c:Beep@duration+1)),c
  6443  0027A2  6E4E               	movlw	low(055h)
  6444  0027A4  0E55               	movwf	((c:Beep@duration)),c
  6445  0027A6  6E4D               	call	_Beep	;wreg free
  6446  0027A8  EC8E  F02B         	line	560
  6447                           ;main.c: 560:  Beep(123, 218);
  6448                           	movlw	high(027h)
  6449  0027AC  0E00               	movwf	((c:sleep@ms+1)),c
  6450  0027AE  6E03               	movlw	low(027h)
  6451  0027B0  0E27               	movwf	((c:sleep@ms)),c
  6452  0027B2  6E02               	call	_sleep	;wreg free
  6453  0027B4  ECF0  F02D         	line	561
  6454                           ;main.c: 561:  sleep(32);
  6455                           	movlw	high(02E3h)
  6456  0027B8  0E02               	movwf	((c:Beep@frequency+1)),c
  6457  0027BA  6E4C               	movlw	low(02E3h)
  6458  0027BC  0EE3               	movwf	((c:Beep@frequency)),c
  6459  0027BE  6E4B               	movlw	high(036h)
  6460  0027C0  0E00               	movwf	((c:Beep@duration+1)),c
  6461  0027C2  6E4E               	movlw	low(036h)
  6462  0027C4  0E36               	movwf	((c:Beep@duration)),c
  6463  0027C6  6E4D               	call	_Beep	;wreg free
  6464  0027C8  EC8E  F02B         	line	562
  6465                           ;main.c: 562:  Beep(123, 207);
  6466                           	movlw	high(029h)
  6467  0027CC  0E00               	movwf	((c:sleep@ms+1)),c
  6468  0027CE  6E03               	movlw	low(029h)
  6469  0027D0  0E29               	movwf	((c:sleep@ms)),c
  6470  0027D2  6E02               	call	_sleep	;wreg free
  6471  0027D4  ECF0  F02D         	line	563
  6472                           ;main.c: 563:  sleep(41);
  6473                           	movlw	high(0171h)
  6474  0027D8  0E01               	movwf	((c:Beep@frequency+1)),c
  6475  0027DA  6E4C               	movlw	low(0171h)
  6476  0027DC  0E71               	movwf	((c:Beep@frequency)),c
  6477  0027DE  6E4B               	movlw	high(0AAh)
  6478  0027E0  0E00               	movwf	((c:Beep@duration+1)),c
  6479  0027E2  6E4E               	movlw	low(0AAh)
  6480  0027E4  0EAA               	movwf	((c:Beep@duration)),c
  6481  0027E6  6E4D               	call	_Beep	;wreg free
  6482  0027E8  EC8E  F02B         	line	564
  6483                           ;main.c: 564:  Beep(123, 181);
  6484                           	movlw	high(051h)
  6485  0027EC  0E00               	movwf	((c:sleep@ms+1)),c
  6486  0027EE  6E03               	movlw	low(051h)
  6487  0027F0  0E51               	movwf	((c:sleep@ms)),c
  6488  0027F2  6E02               	call	_sleep	;wreg free
  6489  0027F4  ECF0  F02D         	line	565
  6490                           ;main.c: 565:  sleep(47);
  6491                           	movlw	high(05Ch)
  6492  0027F8  0E00               	movwf	((c:Beep@frequency+1)),c
  6493  0027FA  6E4C               	movlw	low(05Ch)
  6494  0027FC  0E5C               	movwf	((c:Beep@frequency)),c
  6495  0027FE  6E4B               	movlw	high(069h)
  6496  002800  0E00               	movwf	((c:Beep@duration+1)),c
  6497  002802  6E4E               	movlw	low(069h)
  6498  002804  0E69               	movwf	((c:Beep@duration)),c
  6499  002806  6E4D               	call	_Beep	;wreg free
  6500  002808  EC8E  F02B         	line	566
  6501                           ;main.c: 566:  Beep(123, 163);
  6502                           	movlw	high(025h)
  6503  00280C  0E00               	movwf	((c:sleep@ms+1)),c
  6504  00280E  6E03               	movlw	low(025h)
  6505  002810  0E25               	movwf	((c:sleep@ms)),c
  6506  002812  6E02               	call	_sleep	;wreg free
  6507  002814  ECF0  F02D         	line	567
  6508                           ;main.c: 567:  sleep(93);
  6509                           	movlw	high(022Ah)
  6510  002818  0E02               	movwf	((c:Beep@frequency+1)),c
  6511  00281A  6E4C               	movlw	low(022Ah)
  6512  00281C  0E2A               	movwf	((c:Beep@frequency)),c
  6513  00281E  6E4B               	movlw	high(055h)
  6514  002820  0E00               	movwf	((c:Beep@duration+1)),c
  6515  002822  6E4E               	movlw	low(055h)
  6516  002824  0E55               	movwf	((c:Beep@duration)),c
  6517  002826  6E4D               	call	_Beep	;wreg free
  6518  002828  EC8E  F02B         	line	568
  6519                           ;main.c: 568:  Beep(164, 167);
  6520                           	movlw	high(014h)
  6521  00282C  0E00               	movwf	((c:sleep@ms+1)),c
  6522  00282E  6E03               	movlw	low(014h)
  6523  002830  0E14               	movwf	((c:sleep@ms)),c
  6524  002832  6E02               	call	_sleep	;wreg free
  6525  002834  ECF0  F02D         	line	569
  6526                           ;main.c: 569:  sleep(74);
  6527                           	movlw	high(01B8h)
  6528  002838  0E01               	movwf	((c:Beep@frequency+1)),c
  6529  00283A  6E4C               	movlw	low(01B8h)
  6530  00283C  0EB8               	movwf	((c:Beep@frequency)),c
  6531  00283E  6E4B               	movlw	high(0B5h)
  6532  002840  0E00               	movwf	((c:Beep@duration+1)),c
  6533  002842  6E4E               	movlw	low(0B5h)
  6534  002844  0EB5               	movwf	((c:Beep@duration)),c
  6535  002846  6E4D               	call	_Beep	;wreg free
  6536  002848  EC8E  F02B         	line	570
  6537                           ;main.c: 570:  Beep(246, 106);
  6538                           	movlw	high(048h)
  6539  00284C  0E00               	movwf	((c:sleep@ms+1)),c
  6540  00284E  6E03               	movlw	low(048h)
  6541  002850  0E48               	movwf	((c:sleep@ms)),c
  6542  002852  6E02               	call	_sleep	;wreg free
  6543  002854  ECF0  F02D         	line	571
  6544                           ;main.c: 571:  sleep(6);
  6545                           	movlw	high(06Eh)
  6546  002858  0E00               	movwf	((c:Beep@frequency+1)),c
  6547  00285A  6E4C               	movlw	low(06Eh)
  6548  00285C  0E6E               	movwf	((c:Beep@frequency)),c
  6549  00285E  6E4B               	movlw	high(06Dh)
  6550  002860  0E00               	movwf	((c:Beep@duration+1)),c
  6551  002862  6E4E               	movlw	low(06Dh)
  6552  002864  0E6D               	movwf	((c:Beep@duration)),c
  6553  002866  6E4D               	call	_Beep	;wreg free
  6554  002868  EC8E  F02B         	line	572
  6555                           ;main.c: 572:  Beep(195, 89);
  6556                           	movlw	high(06h)
  6557  00286C  0E00               	movwf	((c:sleep@ms+1)),c
  6558  00286E  6E03               	movlw	low(06h)
  6559  002870  0E06               	movwf	((c:sleep@ms)),c
  6560  002872  6E02               	call	_sleep	;wreg free
  6561  002874  ECF0  F02D         	line	573
  6562                           ;main.c: 573:  sleep(45);
  6563                           	movlw	high(01B8h)
  6564  002878  0E01               	movwf	((c:Beep@frequency+1)),c
  6565  00287A  6E4C               	movlw	low(01B8h)
  6566  00287C  0EB8               	movwf	((c:Beep@frequency)),c
  6567  00287E  6E4B               	movlw	high(066h)
  6568  002880  0E00               	movwf	((c:Beep@duration+1)),c
  6569  002882  6E4E               	movlw	low(066h)
  6570  002884  0E66               	movwf	((c:Beep@duration)),c
  6571  002886  6E4D               	call	_Beep	;wreg free
  6572  002888  EC8E  F02B         	line	574
  6573                           ;main.c: 574:  Beep(164, 187);
  6574                           	movlw	high(01Dh)
  6575  00288C  0E00               	movwf	((c:sleep@ms+1)),c
  6576  00288E  6E03               	movlw	low(01Dh)
  6577  002890  0E1D               	movwf	((c:sleep@ms)),c
  6578  002892  6E02               	call	_sleep	;wreg free
  6579  002894  ECF0  F02D         	line	575
  6580                           ;main.c: 575:  sleep(63);
  6581                           	movlw	high(0DCh)
  6582  002898  0E00               	movwf	((c:Beep@frequency+1)),c
  6583  00289A  6E4C               	movlw	low(0DCh)
  6584  00289C  0EDC               	movwf	((c:Beep@frequency)),c
  6585  00289E  6E4B               	movlw	high(0AEh)
  6586  0028A0  0E00               	movwf	((c:Beep@duration+1)),c
  6587  0028A2  6E4E               	movlw	low(0AEh)
  6588  0028A4  0EAE               	movwf	((c:Beep@duration)),c
  6589  0028A6  6E4D               	call	_Beep	;wreg free
  6590  0028A8  EC8E  F02B         	line	576
  6591                           ;main.c: 576:  Beep(195, 111);
  6592                           	movlw	high(04Dh)
  6593  0028AC  0E00               	movwf	((c:sleep@ms+1)),c
  6594  0028AE  6E03               	movlw	low(04Dh)
  6595  0028B0  0E4D               	movwf	((c:sleep@ms)),c
  6596  0028B2  6E02               	call	_sleep	;wreg free
  6597  0028B4  ECF0  F02D         	line	577
  6598                           ;main.c: 577:  sleep(22);
  6599                           	movlw	high(0DCh)
  6600  0028B8  0E00               	movwf	((c:Beep@frequency+1)),c
  6601  0028BA  6E4C               	movlw	low(0DCh)
  6602  0028BC  0EDC               	movwf	((c:Beep@frequency)),c
  6603  0028BE  6E4B               	movlw	high(05Eh)
  6604  0028C0  0E00               	movwf	((c:Beep@duration+1)),c
  6605  0028C2  6E4E               	movlw	low(05Eh)
  6606  0028C4  0E5E               	movwf	((c:Beep@duration)),c
  6607  0028C6  6E4D               	call	_Beep	;wreg free
  6608  0028C8  EC8E  F02B         	line	578
  6609                           ;main.c: 578:  Beep(783, 70);
  6610                           	movlw	high(0B8h)
  6611  0028CC  0E00               	movwf	((c:Beep@frequency+1)),c
  6612  0028CE  6E4C               	movlw	low(0B8h)
  6613  0028D0  0EB8               	movwf	((c:Beep@frequency)),c
  6614  0028D2  6E4B               	movlw	high(05Bh)
  6615  0028D4  0E00               	movwf	((c:Beep@duration+1)),c
  6616  0028D6  6E4E               	movlw	low(05Bh)
  6617  0028D8  0E5B               	movwf	((c:Beep@duration)),c
  6618  0028DA  6E4D               	call	_Beep	;wreg free
  6619  0028DC  EC8E  F02B         	line	579
  6620                           ;main.c: 579:  sleep(54);
  6621                           	movlw	high(038h)
  6622  0028E0  0E00               	movwf	((c:sleep@ms+1)),c
  6623  0028E2  6E03               	movlw	low(038h)
  6624  0028E4  0E38               	movwf	((c:sleep@ms)),c
  6625  0028E6  6E02               	call	_sleep	;wreg free
  6626  0028E8  ECF0  F02D         	line	580
  6627                           ;main.c: 580:  Beep(138, 155);
  6628                           	movlw	high(0171h)
  6629  0028EC  0E01               	movwf	((c:Beep@frequency+1)),c
  6630  0028EE  6E4C               	movlw	low(0171h)
  6631  0028F0  0E71               	movwf	((c:Beep@frequency)),c
  6632  0028F2  6E4B               	movlw	high(0BAh)
  6633  0028F4  0E00               	movwf	((c:Beep@duration+1)),c
  6634  0028F6  6E4E               	movlw	low(0BAh)
  6635  0028F8  0EBA               	movwf	((c:Beep@duration)),c
  6636  0028FA  6E4D               	call	_Beep	;wreg free
  6637  0028FC  EC8E  F02B         	line	581
  6638                           ;main.c: 581:  sleep(109);
  6639                           	movlw	high(03Ch)
  6640  002900  0E00               	movwf	((c:sleep@ms+1)),c
  6641  002902  6E03               	movlw	low(03Ch)
  6642  002904  0E3C               	movwf	((c:sleep@ms)),c
  6643  002906  6E02               	call	_sleep	;wreg free
  6644  002908  ECF0  F02D         	line	582
  6645                           ;main.c: 582:  Beep(110, 143);
  6646                           	movlw	high(01EDh)
  6647  00290C  0E01               	movwf	((c:Beep@frequency+1)),c
  6648  00290E  6E4C               	movlw	low(01EDh)
  6649  002910  0EED               	movwf	((c:Beep@frequency)),c
  6650  002912  6E4B               	movlw	high(09Fh)
  6651  002914  0E00               	movwf	((c:Beep@duration+1)),c
  6652  002916  6E4E               	movlw	low(09Fh)
  6653  002918  0E9F               	movwf	((c:Beep@duration)),c
  6654  00291A  6E4D               	call	_Beep	;wreg free
  6655  00291C  EC8E  F02B         	line	583
  6656                           ;main.c: 583:  sleep(88);
  6657                           	movlw	high(056h)
  6658  002920  0E00               	movwf	((c:sleep@ms+1)),c
  6659  002922  6E03               	movlw	low(056h)
  6660  002924  0E56               	movwf	((c:sleep@ms)),c
  6661  002926  6E02               	call	_sleep	;wreg free
  6662  002928  ECF0  F02D         	line	584
  6663                           ;main.c: 584:  Beep(659, 183);
  6664                           	movlw	high(07Bh)
  6665  00292C  0E00               	movwf	((c:Beep@frequency+1)),c
  6666  00292E  6E4C               	movlw	low(07Bh)
  6667  002930  0E7B               	movwf	((c:Beep@frequency)),c
  6668  002932  6E4B               	movlw	high(0DAh)
  6669  002934  0E00               	movwf	((c:Beep@duration+1)),c
  6670  002936  6E4E               	movlw	low(0DAh)
  6671  002938  0EDA               	movwf	((c:Beep@duration)),c
  6672  00293A  6E4D               	call	_Beep	;wreg free
  6673  00293C  EC8E  F02B         	line	585
  6674                           ;main.c: 585:  sleep(67);
  6675                           	movlw	high(020h)
  6676  002940  0E00               	movwf	((c:sleep@ms+1)),c
  6677  002942  6E03               	movlw	low(020h)
  6678  002944  0E20               	movwf	((c:sleep@ms)),c
  6679  002946  6E02               	call	_sleep	;wreg free
  6680  002948  ECF0  F02D         	line	586
  6681                           ;main.c: 586:  Beep(138, 126);
  6682                           	movlw	high(07Bh)
  6683  00294C  0E00               	movwf	((c:Beep@frequency+1)),c
  6684  00294E  6E4C               	movlw	low(07Bh)
  6685  002950  0E7B               	movwf	((c:Beep@frequency)),c
  6686  002952  6E4B               	movlw	high(0CFh)
  6687  002954  0E00               	movwf	((c:Beep@duration+1)),c
  6688  002956  6E4E               	movlw	low(0CFh)
  6689  002958  0ECF               	movwf	((c:Beep@duration)),c
  6690  00295A  6E4D               	call	_Beep	;wreg free
  6691  00295C  EC8E  F02B         	line	587
  6692                           ;main.c: 587:  sleep(132);
  6693                           	movlw	high(029h)
  6694  002960  0E00               	movwf	((c:sleep@ms+1)),c
  6695  002962  6E03               	movlw	low(029h)
  6696  002964  0E29               	movwf	((c:sleep@ms)),c
  6697  002966  6E02               	call	_sleep	;wreg free
  6698  002968  ECF0  F02D         	line	588
  6699                           ;main.c: 588:  Beep(329, 196);
  6700                           	movlw	high(07Bh)
  6701  00296C  0E00               	movwf	((c:Beep@frequency+1)),c
  6702  00296E  6E4C               	movlw	low(07Bh)
  6703  002970  0E7B               	movwf	((c:Beep@frequency)),c
  6704  002972  6E4B               	movlw	high(0B5h)
  6705  002974  0E00               	movwf	((c:Beep@duration+1)),c
  6706  002976  6E4E               	movlw	low(0B5h)
  6707  002978  0EB5               	movwf	((c:Beep@duration)),c
  6708  00297A  6E4D               	call	_Beep	;wreg free
  6709  00297C  EC8E  F02B         	line	589
  6710                           ;main.c: 589:  sleep(43);
  6711                           	movlw	high(02Fh)
  6712  002980  0E00               	movwf	((c:sleep@ms+1)),c
  6713  002982  6E03               	movlw	low(02Fh)
  6714  002984  0E2F               	movwf	((c:sleep@ms)),c
  6715  002986  6E02               	call	_sleep	;wreg free
  6716  002988  ECF0  F02D         	line	590
  6717                           ;main.c: 590:  Beep(164, 170);
  6718                           	movlw	high(07Bh)
  6719  00298C  0E00               	movwf	((c:Beep@frequency+1)),c
  6720  00298E  6E4C               	movlw	low(07Bh)
  6721  002990  0E7B               	movwf	((c:Beep@frequency)),c
  6722  002992  6E4B               	movlw	high(0A3h)
  6723  002994  0E00               	movwf	((c:Beep@duration+1)),c
  6724  002996  6E4E               	movlw	low(0A3h)
  6725  002998  0EA3               	movwf	((c:Beep@duration)),c
  6726  00299A  6E4D               	call	_Beep	;wreg free
  6727  00299C  EC8E  F02B         	line	591
  6728                           ;main.c: 591:  sleep(81);
  6729                           	movlw	high(05Dh)
  6730  0029A0  0E00               	movwf	((c:sleep@ms+1)),c
  6731  0029A2  6E03               	movlw	low(05Dh)
  6732  0029A4  0E5D               	movwf	((c:sleep@ms)),c
  6733  0029A6  6E02               	call	_sleep	;wreg free
  6734  0029A8  ECF0  F02D         	line	592
  6735                           ;main.c: 592:  Beep(184, 150);
  6736                           	movlw	high(0A4h)
  6737  0029AC  0E00               	movwf	((c:Beep@frequency+1)),c
  6738  0029AE  6E4C               	movlw	low(0A4h)
  6739  0029B0  0EA4               	movwf	((c:Beep@frequency)),c
  6740  0029B2  6E4B               	movlw	high(0A7h)
  6741  0029B4  0E00               	movwf	((c:Beep@duration+1)),c
  6742  0029B6  6E4E               	movlw	low(0A7h)
  6743  0029B8  0EA7               	movwf	((c:Beep@duration)),c
  6744  0029BA  6E4D               	call	_Beep	;wreg free
  6745  0029BC  EC8E  F02B         	line	593
  6746                           ;main.c: 593:  sleep(91);
  6747                           	movlw	high(04Ah)
  6748  0029C0  0E00               	movwf	((c:sleep@ms+1)),c
  6749  0029C2  6E03               	movlw	low(04Ah)
  6750  0029C4  0E4A               	movwf	((c:sleep@ms)),c
  6751  0029C6  6E02               	call	_sleep	;wreg free
  6752  0029C8  ECF0  F02D         	line	594
  6753                           ;main.c: 594:  Beep(739, 62);
  6754                           	movlw	high(0F6h)
  6755  0029CC  0E00               	movwf	((c:Beep@frequency+1)),c
  6756  0029CE  6E4C               	movlw	low(0F6h)
  6757  0029D0  0EF6               	movwf	((c:Beep@frequency)),c
  6758  0029D2  6E4B               	movlw	high(06Ah)
  6759  0029D4  0E00               	movwf	((c:Beep@duration+1)),c
  6760  0029D6  6E4E               	movlw	low(06Ah)
  6761  0029D8  0E6A               	movwf	((c:Beep@duration)),c
  6762  0029DA  6E4D               	call	_Beep	;wreg free
  6763  0029DC  EC8E  F02B         	line	595
  6764                           ;main.c: 595:  sleep(58);
  6765                           	movlw	high(06h)
  6766  0029E0  0E00               	movwf	((c:sleep@ms+1)),c
  6767  0029E2  6E03               	movlw	low(06h)
  6768  0029E4  0E06               	movwf	((c:sleep@ms)),c
  6769  0029E6  6E02               	call	_sleep	;wreg free
  6770  0029E8  ECF0  F02D         	line	596
  6771                           ;main.c: 596:  Beep(587, 78);
  6772                           	movlw	high(0C3h)
  6773  0029EC  0E00               	movwf	((c:Beep@frequency+1)),c
  6774  0029EE  6E4C               	movlw	low(0C3h)
  6775  0029F0  0EC3               	movwf	((c:Beep@frequency)),c
  6776  0029F2  6E4B               	movlw	high(059h)
  6777  0029F4  0E00               	movwf	((c:Beep@duration+1)),c
  6778  0029F6  6E4E               	movlw	low(059h)
  6779  0029F8  0E59               	movwf	((c:Beep@duration)),c
  6780  0029FA  6E4D               	call	_Beep	;wreg free
  6781  0029FC  EC8E  F02B         	line	597
  6782                           ;main.c: 597:  sleep(47);
  6783                           	movlw	high(02Dh)
  6784  002A00  0E00               	movwf	((c:sleep@ms+1)),c
  6785  002A02  6E03               	movlw	low(02Dh)
  6786  002A04  0E2D               	movwf	((c:sleep@ms)),c
  6787  002A06  6E02               	call	_sleep	;wreg free
  6788  002A08  ECF0  F02D         	line	598
  6789                           ;main.c: 598:  Beep(493, 113);
  6790                           	movlw	high(0A4h)
  6791  002A0C  0E00               	movwf	((c:Beep@frequency+1)),c
  6792  002A0E  6E4C               	movlw	low(0A4h)
  6793  002A10  0EA4               	movwf	((c:Beep@frequency)),c
  6794  002A12  6E4B               	movlw	high(0BBh)
  6795  002A14  0E00               	movwf	((c:Beep@duration+1)),c
  6796  002A16  6E4E               	movlw	low(0BBh)
  6797  002A18  0EBB               	movwf	((c:Beep@duration)),c
  6798  002A1A  6E4D               	call	_Beep	;wreg free
  6799  002A1C  EC8E  F02B         	line	599
  6800                           ;main.c: 599:  sleep(18);
  6801                           	movlw	high(03Fh)
  6802  002A20  0E00               	movwf	((c:sleep@ms+1)),c
  6803  002A22  6E03               	movlw	low(03Fh)
  6804  002A24  0E3F               	movwf	((c:sleep@ms)),c
  6805  002A26  6E02               	call	_sleep	;wreg free
  6806  002A28  ECF0  F02D         	line	600
  6807                           ;main.c: 600:  Beep(587, 78);
  6808                           	movlw	high(0C3h)
  6809  002A2C  0E00               	movwf	((c:Beep@frequency+1)),c
  6810  002A2E  6E4C               	movlw	low(0C3h)
  6811  002A30  0EC3               	movwf	((c:Beep@frequency)),c
  6812  002A32  6E4B               	movlw	high(06Fh)
  6813  002A34  0E00               	movwf	((c:Beep@duration+1)),c
  6814  002A36  6E4E               	movlw	low(06Fh)
  6815  002A38  0E6F               	movwf	((c:Beep@duration)),c
  6816  002A3A  6E4D               	call	_Beep	;wreg free
  6817  002A3C  EC8E  F02B         	line	601
  6818                           ;main.c: 601:  sleep(27);
  6819                           	movlw	high(016h)
  6820  002A40  0E00               	movwf	((c:sleep@ms+1)),c
  6821  002A42  6E03               	movlw	low(016h)
  6822  002A44  0E16               	movwf	((c:sleep@ms)),c
  6823  002A46  6E02               	call	_sleep	;wreg free
  6824  002A48  ECF0  F02D         	line	602
  6825                           ;main.c: 602:  Beep(391, 128);
  6826                           	movlw	high(030Fh)
  6827  002A4C  0E03               	movwf	((c:Beep@frequency+1)),c
  6828  002A4E  6E4C               	movlw	low(030Fh)
  6829  002A50  0E0F               	movwf	((c:Beep@frequency)),c
  6830  002A52  6E4B               	movlw	high(046h)
  6831  002A54  0E00               	movwf	((c:Beep@duration+1)),c
  6832  002A56  6E4E               	movlw	low(046h)
  6833  002A58  0E46               	movwf	((c:Beep@duration)),c
  6834  002A5A  6E4D               	call	_Beep	;wreg free
  6835  002A5C  EC8E  F02B         	line	603
  6836                           ;main.c: 603:  sleep(4);
  6837                           	movlw	high(036h)
  6838  002A60  0E00               	movwf	((c:sleep@ms+1)),c
  6839  002A62  6E03               	movlw	low(036h)
  6840  002A64  0E36               	movwf	((c:sleep@ms)),c
  6841  002A66  6E02               	call	_sleep	;wreg free
  6842  002A68  ECF0  F02D         	line	604
  6843                           ;main.c: 604:  Beep(587, 107);
  6844                           	movlw	high(08Ah)
  6845  002A6C  0E00               	movwf	((c:Beep@frequency+1)),c
  6846  002A6E  6E4C               	movlw	low(08Ah)
  6847  002A70  0E8A               	movwf	((c:Beep@frequency)),c
  6848  002A72  6E4B               	movlw	high(09Bh)
  6849  002A74  0E00               	movwf	((c:Beep@duration+1)),c
  6850  002A76  6E4E               	movlw	low(09Bh)
  6851  002A78  0E9B               	movwf	((c:Beep@duration)),c
  6852  002A7A  6E4D               	call	_Beep	;wreg free
  6853  002A7C  EC8E  F02B         	line	605
  6854                           ;main.c: 605:  sleep(14);
  6855                           	movlw	high(06Dh)
  6856  002A80  0E00               	movwf	((c:sleep@ms+1)),c
  6857  002A82  6E03               	movlw	low(06Dh)
  6858  002A84  0E6D               	movwf	((c:sleep@ms)),c
  6859  002A86  6E02               	call	_sleep	;wreg free
  6860  002A88  ECF0  F02D         	line	606
  6861                           ;main.c: 606:  Beep(220, 131);
  6862                           	movlw	high(06Eh)
  6863  002A8C  0E00               	movwf	((c:Beep@frequency+1)),c
  6864  002A8E  6E4C               	movlw	low(06Eh)
  6865  002A90  0E6E               	movwf	((c:Beep@frequency)),c
  6866  002A92  6E4B               	movlw	high(08Fh)
  6867  002A94  0E00               	movwf	((c:Beep@duration+1)),c
  6868  002A96  6E4E               	movlw	low(08Fh)
  6869  002A98  0E8F               	movwf	((c:Beep@duration)),c
  6870  002A9A  6E4D               	call	_Beep	;wreg free
  6871  002A9C  EC8E  F02B         	line	607
  6872                           ;main.c: 607:  sleep(120);
  6873                           	movlw	high(058h)
  6874  002AA0  0E00               	movwf	((c:sleep@ms+1)),c
  6875  002AA2  6E03               	movlw	low(058h)
  6876  002AA4  0E58               	movwf	((c:sleep@ms)),c
  6877  002AA6  6E02               	call	_sleep	;wreg free
  6878  002AA8  ECF0  F02D         	line	608
  6879                           ;main.c: 608:  Beep(440, 133);
  6880                           	movlw	high(0293h)
  6881  002AAC  0E02               	movwf	((c:Beep@frequency+1)),c
  6882  002AAE  6E4C               	movlw	low(0293h)
  6883  002AB0  0E93               	movwf	((c:Beep@frequency)),c
  6884  002AB2  6E4B               	movlw	high(0B7h)
  6885  002AB4  0E00               	movwf	((c:Beep@duration+1)),c
  6886  002AB6  6E4E               	movlw	low(0B7h)
  6887  002AB8  0EB7               	movwf	((c:Beep@duration)),c
  6888  002ABA  6E4D               	call	_Beep	;wreg free
  6889  002ABC  EC8E  F02B         	line	609
  6890                           ;main.c: 609:  sleep(115);
  6891                           	movlw	high(043h)
  6892  002AC0  0E00               	movwf	((c:sleep@ms+1)),c
  6893  002AC2  6E03               	movlw	low(043h)
  6894  002AC4  0E43               	movwf	((c:sleep@ms)),c
  6895  002AC6  6E02               	call	_sleep	;wreg free
  6896  002AC8  ECF0  F02D         	line	610
  6897                           ;main.c: 610:  Beep(739, 84);
  6898                           	movlw	high(08Ah)
  6899  002ACC  0E00               	movwf	((c:Beep@frequency+1)),c
  6900  002ACE  6E4C               	movlw	low(08Ah)
  6901  002AD0  0E8A               	movwf	((c:Beep@frequency)),c
  6902  002AD2  6E4B               	movlw	high(07Eh)
  6903  002AD4  0E00               	movwf	((c:Beep@duration+1)),c
  6904  002AD6  6E4E               	movlw	low(07Eh)
  6905  002AD8  0E7E               	movwf	((c:Beep@duration)),c
  6906  002ADA  6E4D               	call	_Beep	;wreg free
  6907  002ADC  EC8E  F02B         	line	611
  6908                           ;main.c: 611:  sleep(29);
  6909                           	movlw	high(084h)
  6910  002AE0  0E00               	movwf	((c:sleep@ms+1)),c
  6911  002AE2  6E03               	movlw	low(084h)
  6912  002AE4  0E84               	movwf	((c:sleep@ms)),c
  6913  002AE6  6E02               	call	_sleep	;wreg free
  6914  002AE8  ECF0  F02D         	line	612
  6915                           ;main.c: 612:  Beep(659, 90);
  6916                           	movlw	high(0149h)
  6917  002AEC  0E01               	movwf	((c:Beep@frequency+1)),c
  6918  002AEE  6E4C               	movlw	low(0149h)
  6919  002AF0  0E49               	movwf	((c:Beep@frequency)),c
  6920  002AF2  6E4B               	movlw	high(0C4h)
  6921  002AF4  0E00               	movwf	((c:Beep@duration+1)),c
  6922  002AF6  6E4E               	movlw	low(0C4h)
  6923  002AF8  0EC4               	movwf	((c:Beep@duration)),c
  6924  002AFA  6E4D               	call	_Beep	;wreg free
  6925  002AFC  EC8E  F02B         	line	613
  6926                           ;main.c: 613:  sleep(33);
  6927                           	movlw	high(02Bh)
  6928  002B00  0E00               	movwf	((c:sleep@ms+1)),c
  6929  002B02  6E03               	movlw	low(02Bh)
  6930  002B04  0E2B               	movwf	((c:sleep@ms)),c
  6931  002B06  6E02               	call	_sleep	;wreg free
  6932  002B08  ECF0  F02D         	line	614
  6933                           ;main.c: 614:  Beep(440, 125);
  6934                           	movlw	high(0A4h)
  6935  002B0C  0E00               	movwf	((c:Beep@frequency+1)),c
  6936  002B0E  6E4C               	movlw	low(0A4h)
  6937  002B10  0EA4               	movwf	((c:Beep@frequency)),c
  6938  002B12  6E4B               	movlw	high(0AAh)
  6939  002B14  0E00               	movwf	((c:Beep@duration+1)),c
  6940  002B16  6E4E               	movlw	low(0AAh)
  6941  002B18  0EAA               	movwf	((c:Beep@duration)),c
  6942  002B1A  6E4D               	call	_Beep	;wreg free
  6943  002B1C  EC8E  F02B         	line	615
  6944                           ;main.c: 615:  sleep(6);
  6945                           	movlw	high(051h)
  6946  002B20  0E00               	movwf	((c:sleep@ms+1)),c
  6947  002B22  6E03               	movlw	low(051h)
  6948  002B24  0E51               	movwf	((c:sleep@ms)),c
  6949  002B26  6E02               	call	_sleep	;wreg free
  6950  002B28  ECF0  F02D         	line	616
  6951                           ;main.c: 616:  Beep(659, 78);
  6952                           	movlw	high(0B8h)
  6953  002B2C  0E00               	movwf	((c:Beep@frequency+1)),c
  6954  002B2E  6E4C               	movlw	low(0B8h)
  6955  002B30  0EB8               	movwf	((c:Beep@frequency)),c
  6956  002B32  6E4B               	movlw	high(096h)
  6957  002B34  0E00               	movwf	((c:Beep@duration+1)),c
  6958  002B36  6E4E               	movlw	low(096h)
  6959  002B38  0E96               	movwf	((c:Beep@duration)),c
  6960  002B3A  6E4D               	call	_Beep	;wreg free
  6961  002B3C  EC8E  F02B         	line	617
  6962                           ;main.c: 617:  sleep(43);
  6963                           	movlw	high(05Bh)
  6964  002B40  0E00               	movwf	((c:sleep@ms+1)),c
  6965  002B42  6E03               	movlw	low(05Bh)
  6966  002B44  0E5B               	movwf	((c:sleep@ms)),c
  6967  002B46  6E02               	call	_sleep	;wreg free
  6968  002B48  ECF0  F02D         	line	618
  6969                           ;main.c: 618:  Beep(587, 93);
  6970                           	movlw	high(02E3h)
  6971  002B4C  0E02               	movwf	((c:Beep@frequency+1)),c
  6972  002B4E  6E4C               	movlw	low(02E3h)
  6973  002B50  0EE3               	movwf	((c:Beep@frequency)),c
  6974  002B52  6E4B               	movlw	high(03Eh)
  6975  002B54  0E00               	movwf	((c:Beep@duration+1)),c
  6976  002B56  6E4E               	movlw	low(03Eh)
  6977  002B58  0E3E               	movwf	((c:Beep@duration)),c
  6978  002B5A  6E4D               	call	_Beep	;wreg free
  6979  002B5C  EC8E  F02B         	line	619
  6980                           ;main.c: 619:  sleep(22);
  6981                           	movlw	high(03Ah)
  6982  002B60  0E00               	movwf	((c:sleep@ms+1)),c
  6983  002B62  6E03               	movlw	low(03Ah)
  6984  002B64  0E3A               	movwf	((c:sleep@ms)),c
  6985  002B66  6E02               	call	_sleep	;wreg free
  6986  002B68  ECF0  F02D         	line	620
  6987                           ;main.c: 620:  Beep(739, 64);
  6988                           	movlw	high(024Bh)
  6989  002B6C  0E02               	movwf	((c:Beep@frequency+1)),c
  6990  002B6E  6E4C               	movlw	low(024Bh)
  6991  002B70  0E4B               	movwf	((c:Beep@frequency)),c
  6992  002B72  6E4B               	movlw	high(04Eh)
  6993  002B74  0E00               	movwf	((c:Beep@duration+1)),c
  6994  002B76  6E4E               	movlw	low(04Eh)
  6995  002B78  0E4E               	movwf	((c:Beep@duration)),c
  6996  002B7A  6E4D               	call	_Beep	;wreg free
  6997  002B7C  EC8E  F02B         	line	621
  6998                           ;main.c: 621:  sleep(51);
  6999                           	movlw	high(02Fh)
  7000  002B80  0E00               	movwf	((c:sleep@ms+1)),c
  7001  002B82  6E03               	movlw	low(02Fh)
  7002  002B84  0E2F               	movwf	((c:sleep@ms)),c
  7003  002B86  6E02               	call	_sleep	;wreg free
  7004  002B88  ECF0  F02D         	line	622
  7005                           ;main.c: 622:  Beep(587, 150);
  7006                           	movlw	high(01EDh)
  7007  002B8C  0E01               	movwf	((c:Beep@frequency+1)),c
  7008  002B8E  6E4C               	movlw	low(01EDh)
  7009  002B90  0EED               	movwf	((c:Beep@frequency)),c
  7010  002B92  6E4B               	movlw	high(071h)
  7011  002B94  0E00               	movwf	((c:Beep@duration+1)),c
  7012  002B96  6E4E               	movlw	low(071h)
  7013  002B98  0E71               	movwf	((c:Beep@duration)),c
  7014  002B9A  6E4D               	call	_Beep	;wreg free
  7015  002B9C  EC8E  F02B         	line	623
  7016                           ;main.c: 623:  sleep(110);
  7017                           	movlw	high(012h)
  7018  002BA0  0E00               	movwf	((c:sleep@ms+1)),c
  7019  002BA2  6E03               	movlw	low(012h)
  7020  002BA4  0E12               	movwf	((c:sleep@ms)),c
  7021  002BA6  6E02               	call	_sleep	;wreg free
  7022  002BA8  ECF0  F02D         	line	624
  7023                           ;main.c: 624:  Beep(587, 69);
  7024                           	movlw	high(024Bh)
  7025  002BAC  0E02               	movwf	((c:Beep@frequency+1)),c
  7026  002BAE  6E4C               	movlw	low(024Bh)
  7027  002BB0  0E4B               	movwf	((c:Beep@frequency)),c
  7028  002BB2  6E4B               	movlw	high(04Eh)
  7029  002BB4  0E00               	movwf	((c:Beep@duration+1)),c
  7030  002BB6  6E4E               	movlw	low(04Eh)
  7031  002BB8  0E4E               	movwf	((c:Beep@duration)),c
  7032  002BBA  6E4D               	call	_Beep	;wreg free
  7033  002BBC  EC8E  F02B         	line	625
  7034                           ;main.c: 625:  sleep(54);
  7035                           	movlw	high(01Bh)
  7036  002BC0  0E00               	movwf	((c:sleep@ms+1)),c
  7037  002BC2  6E03               	movlw	low(01Bh)
  7038  002BC4  0E1B               	movwf	((c:sleep@ms)),c
  7039  002BC6  6E02               	call	_sleep	;wreg free
  7040  002BC8  ECF0  F02D         	line	626
  7041                           ;main.c: 626:  Beep(783, 127);
  7042                           	movlw	high(0187h)
  7043  002BCC  0E01               	movwf	((c:Beep@frequency+1)),c
  7044  002BCE  6E4C               	movlw	low(0187h)
  7045  002BD0  0E87               	movwf	((c:Beep@frequency)),c
  7046  002BD2  6E4B               	movlw	high(080h)
  7047  002BD4  0E00               	movwf	((c:Beep@duration+1)),c
  7048  002BD6  6E4E               	movlw	low(080h)
  7049  002BD8  0E80               	movwf	((c:Beep@duration)),c
  7050  002BDA  6E4D               	call	_Beep	;wreg free
  7051  002BDC  EC8E  F02B         	line	627
  7052                           ;main.c: 627:  sleep(4);
  7053                           	movlw	high(04h)
  7054  002BE0  0E00               	movwf	((c:sleep@ms+1)),c
  7055  002BE2  6E03               	movlw	low(04h)
  7056  002BE4  0E04               	movwf	((c:sleep@ms)),c
  7057  002BE6  6E02               	call	_sleep	;wreg free
  7058  002BE8  ECF0  F02D         	line	628
  7059                           ;main.c: 628:  Beep(195, 126);
  7060                           	movlw	high(024Bh)
  7061  002BEC  0E02               	movwf	((c:Beep@frequency+1)),c
  7062  002BEE  6E4C               	movlw	low(024Bh)
  7063  002BF0  0E4B               	movwf	((c:Beep@frequency)),c
  7064  002BF2  6E4B               	movlw	high(06Bh)
  7065  002BF4  0E00               	movwf	((c:Beep@duration+1)),c
  7066  002BF6  6E4E               	movlw	low(06Bh)
  7067  002BF8  0E6B               	movwf	((c:Beep@duration)),c
  7068  002BFA  6E4D               	call	_Beep	;wreg free
  7069  002BFC  EC8E  F02B         	line	629
  7070                           ;main.c: 629:  sleep(118);
  7071                           	movlw	high(0Eh)
  7072  002C00  0E00               	movwf	((c:sleep@ms+1)),c
  7073  002C02  6E03               	movlw	low(0Eh)
  7074  002C04  0E0E               	movwf	((c:sleep@ms)),c
  7075  002C06  6E02               	call	_sleep	;wreg free
  7076  002C08  ECF0  F02D         	line	630
  7077                           ;main.c: 630:  Beep(369, 177);
  7078                           	movlw	high(0DCh)
  7079  002C0C  0E00               	movwf	((c:Beep@frequency+1)),c
  7080  002C0E  6E4C               	movlw	low(0DCh)
  7081  002C10  0EDC               	movwf	((c:Beep@frequency)),c
  7082  002C12  6E4B               	movlw	high(083h)
  7083  002C14  0E00               	movwf	((c:Beep@duration+1)),c
  7084  002C16  6E4E               	movlw	low(083h)
  7085  002C18  0E83               	movwf	((c:Beep@duration)),c
  7086  002C1A  6E4D               	call	_Beep	;wreg free
  7087  002C1C  EC8E  F02B         	line	631
  7088                           ;main.c: 631:  sleep(59);
  7089                           	movlw	high(078h)
  7090  002C20  0E00               	movwf	((c:sleep@ms+1)),c
  7091  002C22  6E03               	movlw	low(078h)
  7092  002C24  0E78               	movwf	((c:sleep@ms)),c
  7093  002C26  6E02               	call	_sleep	;wreg free
  7094  002C28  ECF0  F02D         	line	632
  7095                           ;main.c: 632:  Beep(220, 126);
  7096                           	movlw	high(01B8h)
  7097  002C2C  0E01               	movwf	((c:Beep@frequency+1)),c
  7098  002C2E  6E4C               	movlw	low(01B8h)
  7099  002C30  0EB8               	movwf	((c:Beep@frequency)),c
  7100  002C32  6E4B               	movlw	high(085h)
  7101  002C34  0E00               	movwf	((c:Beep@duration+1)),c
  7102  002C36  6E4E               	movlw	low(085h)
  7103  002C38  0E85               	movwf	((c:Beep@duration)),c
  7104  002C3A  6E4D               	call	_Beep	;wreg free
  7105  002C3C  EC8E  F02B         	line	633
  7106                           ;main.c: 633:  sleep(2);
  7107                           	movlw	high(073h)
  7108  002C40  0E00               	movwf	((c:sleep@ms+1)),c
  7109  002C42  6E03               	movlw	low(073h)
  7110  002C44  0E73               	movwf	((c:sleep@ms)),c
  7111  002C46  6E02               	call	_sleep	;wreg free
  7112  002C48  ECF0  F02D         	line	634
  7113                           ;main.c: 634:  Beep(554, 132);
  7114                           	movlw	high(02E3h)
  7115  002C4C  0E02               	movwf	((c:Beep@frequency+1)),c
  7116  002C4E  6E4C               	movlw	low(02E3h)
  7117  002C50  0EE3               	movwf	((c:Beep@frequency)),c
  7118  002C52  6E4B               	movlw	high(054h)
  7119  002C54  0E00               	movwf	((c:Beep@duration+1)),c
  7120  002C56  6E4E               	movlw	low(054h)
  7121  002C58  0E54               	movwf	((c:Beep@duration)),c
  7122  002C5A  6E4D               	call	_Beep	;wreg free
  7123  002C5C  EC8E  F02B         	line	635
  7124                           ;main.c: 635:  Beep(391, 193);
  7125                           	movlw	high(01Dh)
  7126  002C60  0E00               	movwf	((c:sleep@ms+1)),c
  7127  002C62  6E03               	movlw	low(01Dh)
  7128  002C64  0E1D               	movwf	((c:sleep@ms)),c
  7129  002C66  6E02               	call	_sleep	;wreg free
  7130  002C68  ECF0  F02D         	line	636
  7131                           ;main.c: 636:  sleep(38);
  7132                           	movlw	high(0293h)
  7133  002C6C  0E02               	movwf	((c:Beep@frequency+1)),c
  7134  002C6E  6E4C               	movlw	low(0293h)
  7135  002C70  0E93               	movwf	((c:Beep@frequency)),c
  7136  002C72  6E4B               	movlw	high(05Ah)
  7137  002C74  0E00               	movwf	((c:Beep@duration+1)),c
  7138  002C76  6E4E               	movlw	low(05Ah)
  7139  002C78  0E5A               	movwf	((c:Beep@duration)),c
  7140  002C7A  6E4D               	call	_Beep	;wreg free
  7141  002C7C  EC8E  F02B         	line	637
  7142                           ;main.c: 637:  Beep(246, 134);
  7143                           	movlw	high(021h)
  7144  002C80  0E00               	movwf	((c:sleep@ms+1)),c
  7145  002C82  6E03               	movlw	low(021h)
  7146  002C84  0E21               	movwf	((c:sleep@ms)),c
  7147  002C86  6E02               	call	_sleep	;wreg free
  7148  002C88  ECF0  F02D         	line	638
  7149                           ;main.c: 638:  sleep(6);
  7150                           	movlw	high(01B8h)
  7151  002C8C  0E01               	movwf	((c:Beep@frequency+1)),c
  7152  002C8E  6E4C               	movlw	low(01B8h)
  7153  002C90  0EB8               	movwf	((c:Beep@frequency)),c
  7154  002C92  6E4B               	movlw	high(07Dh)
  7155  002C94  0E00               	movwf	((c:Beep@duration+1)),c
  7156  002C96  6E4E               	movlw	low(07Dh)
  7157  002C98  0E7D               	movwf	((c:Beep@duration)),c
  7158  002C9A  6E4D               	call	_Beep	;wreg free
  7159  002C9C  EC8E  F02B         	line	639
  7160                           ;main.c: 639:  Beep(554, 128);
  7161                           	movlw	high(06h)
  7162  002CA0  0E00               	movwf	((c:sleep@ms+1)),c
  7163  002CA2  6E03               	movlw	low(06h)
  7164  002CA4  0E06               	movwf	((c:sleep@ms)),c
  7165  002CA6  6E02               	call	_sleep	;wreg free
  7166  002CA8  ECF0  F02D         	line	640
  7167                           ;main.c: 640:  sleep(2);
  7168                           	movlw	high(0293h)
  7169  002CAC  0E02               	movwf	((c:Beep@frequency+1)),c
  7170  002CAE  6E4C               	movlw	low(0293h)
  7171  002CB0  0E93               	movwf	((c:Beep@frequency)),c
  7172  002CB2  6E4B               	movlw	high(04Eh)
  7173  002CB4  0E00               	movwf	((c:Beep@duration+1)),c
  7174  002CB6  6E4E               	movlw	low(04Eh)
  7175  002CB8  0E4E               	movwf	((c:Beep@duration)),c
  7176  002CBA  6E4D               	call	_Beep	;wreg free
  7177  002CBC  EC8E  F02B         	line	641
  7178                           ;main.c: 641:  Beep(587, 72);
  7179                           	movlw	high(02Bh)
  7180  002CC0  0E00               	movwf	((c:sleep@ms+1)),c
  7181  002CC2  6E03               	movlw	low(02Bh)
  7182  002CC4  0E2B               	movwf	((c:sleep@ms)),c
  7183  002CC6  6E02               	call	_sleep	;wreg free
  7184  002CC8  ECF0  F02D         	line	642
  7185                           ;main.c: 642:  sleep(52);
  7186                           	movlw	high(024Bh)
  7187  002CCC  0E02               	movwf	((c:Beep@frequency+1)),c
  7188  002CCE  6E4C               	movlw	low(024Bh)
  7189  002CD0  0E4B               	movwf	((c:Beep@frequency)),c
  7190  002CD2  6E4B               	movlw	high(05Dh)
  7191  002CD4  0E00               	movwf	((c:Beep@duration+1)),c
  7192  002CD6  6E4E               	movlw	low(05Dh)
  7193  002CD8  0E5D               	movwf	((c:Beep@duration)),c
  7194  002CDA  6E4D               	call	_Beep	;wreg free
  7195  002CDC  EC8E  F02B         	line	643
  7196                           ;main.c: 643:  Beep(987, 83);
  7197                           	movlw	high(016h)
  7198  002CE0  0E00               	movwf	((c:sleep@ms+1)),c
  7199  002CE2  6E03               	movlw	low(016h)
  7200  002CE4  0E16               	movwf	((c:sleep@ms)),c
  7201  002CE6  6E02               	call	_sleep	;wreg free
  7202  002CE8  ECF0  F02D         	line	644
  7203                           ;main.c: 644:  sleep(14);
  7204                           	movlw	high(02E3h)
  7205  002CEC  0E02               	movwf	((c:Beep@frequency+1)),c
  7206  002CEE  6E4C               	movlw	low(02E3h)
  7207  002CF0  0EE3               	movwf	((c:Beep@frequency)),c
  7208  002CF2  6E4B               	movlw	high(040h)
  7209  002CF4  0E00               	movwf	((c:Beep@duration+1)),c
  7210  002CF6  6E4E               	movlw	low(040h)
  7211  002CF8  0E40               	movwf	((c:Beep@duration)),c
  7212  002CFA  6E4D               	call	_Beep	;wreg free
  7213  002CFC  EC8E  F02B         	line	645
  7214                           ;main.c: 645:  Beep(164, 130);
  7215                           	movlw	high(033h)
  7216  002D00  0E00               	movwf	((c:sleep@ms+1)),c
  7217  002D02  6E03               	movlw	low(033h)
  7218  002D04  0E33               	movwf	((c:sleep@ms)),c
  7219  002D06  6E02               	call	_sleep	;wreg free
  7220  002D08  ECF0  F02D         	line	646
  7221                           ;main.c: 646:  sleep(26);
  7222                           	movlw	high(024Bh)
  7223  002D0C  0E02               	movwf	((c:Beep@frequency+1)),c
  7224  002D0E  6E4C               	movlw	low(024Bh)
  7225  002D10  0E4B               	movwf	((c:Beep@frequency)),c
  7226  002D12  6E4B               	movlw	high(096h)
  7227  002D14  0E00               	movwf	((c:Beep@duration+1)),c
  7228  002D16  6E4E               	movlw	low(096h)
  7229  002D18  0E96               	movwf	((c:Beep@duration)),c
  7230  002D1A  6E4D               	call	_Beep	;wreg free
  7231  002D1C  EC8E  F02B         	line	647
  7232                           ;main.c: 647:  Beep(783, 66);
  7233                           	movlw	high(06Eh)
  7234  002D20  0E00               	movwf	((c:sleep@ms+1)),c
  7235  002D22  6E03               	movlw	low(06Eh)
  7236  002D24  0E6E               	movwf	((c:sleep@ms)),c
  7237  002D26  6E02               	call	_sleep	;wreg free
  7238  002D28  ECF0  F02D         	line	648
  7239                           ;main.c: 648:  sleep(31);
  7240                           	movlw	high(024Bh)
  7241  002D2C  0E02               	movwf	((c:Beep@frequency+1)),c
  7242  002D2E  6E4C               	movlw	low(024Bh)
  7243  002D30  0E4B               	movwf	((c:Beep@frequency)),c
  7244  002D32  6E4B               	movlw	high(045h)
  7245  002D34  0E00               	movwf	((c:Beep@duration+1)),c
  7246  002D36  6E4E               	movlw	low(045h)
  7247  002D38  0E45               	movwf	((c:Beep@duration)),c
  7248  002D3A  6E4D               	call	_Beep	;wreg free
  7249  002D3C  EC8E  F02B         	line	649
  7250                           ;main.c: 649:  Beep(369, 143);
  7251                           	movlw	high(036h)
  7252  002D40  0E00               	movwf	((c:sleep@ms+1)),c
  7253  002D42  6E03               	movlw	low(036h)
  7254  002D44  0E36               	movwf	((c:sleep@ms)),c
  7255  002D46  6E02               	call	_sleep	;wreg free
  7256  002D48  ECF0  F02D         	line	650
  7257                           ;main.c: 650:  sleep(101);
  7258                           	movlw	high(030Fh)
  7259  002D4C  0E03               	movwf	((c:Beep@frequency+1)),c
  7260  002D4E  6E4C               	movlw	low(030Fh)
  7261  002D50  0E0F               	movwf	((c:Beep@frequency)),c
  7262  002D52  6E4B               	movlw	high(07Fh)
  7263  002D54  0E00               	movwf	((c:Beep@duration+1)),c
  7264  002D56  6E4E               	movlw	low(07Fh)
  7265  002D58  0E7F               	movwf	((c:Beep@duration)),c
  7266  002D5A  6E4D               	call	_Beep	;wreg free
  7267  002D5C  EC8E  F02B         	line	651
  7268                           ;main.c: 651:  Beep(493, 139);
  7269                           	movlw	high(04h)
  7270  002D60  0E00               	movwf	((c:sleep@ms+1)),c
  7271  002D62  6E03               	movlw	low(04h)
  7272  002D64  0E04               	movwf	((c:sleep@ms)),c
  7273  002D66  6E02               	call	_sleep	;wreg free
  7274  002D68  ECF0  F02D         	line	652
  7275                           ;main.c: 652:  sleep(104);
  7276                           	movlw	high(0C3h)
  7277  002D6C  0E00               	movwf	((c:Beep@frequency+1)),c
  7278  002D6E  6E4C               	movlw	low(0C3h)
  7279  002D70  0EC3               	movwf	((c:Beep@frequency)),c
  7280  002D72  6E4B               	movlw	high(07Eh)
  7281  002D74  0E00               	movwf	((c:Beep@duration+1)),c
  7282  002D76  6E4E               	movlw	low(07Eh)
  7283  002D78  0E7E               	movwf	((c:Beep@duration)),c
  7284  002D7A  6E4D               	call	_Beep	;wreg free
  7285  002D7C  EC8E  F02B         	line	653
  7286                           ;main.c: 653:  Beep(440, 123);
  7287                           	movlw	high(076h)
  7288  002D80  0E00               	movwf	((c:sleep@ms+1)),c
  7289  002D82  6E03               	movlw	low(076h)
  7290  002D84  0E76               	movwf	((c:sleep@ms)),c
  7291  002D86  6E02               	call	_sleep	;wreg free
  7292  002D88  ECF0  F02D         	line	654
  7293                           ;main.c: 654:  sleep(131);
  7294                           	movlw	high(0171h)
  7295  002D8C  0E01               	movwf	((c:Beep@frequency+1)),c
  7296  002D8E  6E4C               	movlw	low(0171h)
  7297  002D90  0E71               	movwf	((c:Beep@frequency)),c
  7298  002D92  6E4B               	movlw	high(0B1h)
  7299  002D94  0E00               	movwf	((c:Beep@duration+1)),c
  7300  002D96  6E4E               	movlw	low(0B1h)
  7301  002D98  0EB1               	movwf	((c:Beep@duration)),c
  7302  002D9A  6E4D               	call	_Beep	;wreg free
  7303  002D9C  EC8E  F02B         	line	655
  7304                           ;main.c: 655:  Beep(391, 128);
  7305                           	movlw	high(03Bh)
  7306  002DA0  0E00               	movwf	((c:sleep@ms+1)),c
  7307  002DA2  6E03               	movlw	low(03Bh)
  7308  002DA4  0E3B               	movwf	((c:sleep@ms)),c
  7309  002DA6  6E02               	call	_sleep	;wreg free
  7310  002DA8  ECF0  F02D         	line	656
  7311                           ;main.c: 656:  sleep(43);
  7312                           	movlw	high(0DCh)
  7313  002DAC  0E00               	movwf	((c:Beep@frequency+1)),c
  7314  002DAE  6E4C               	movlw	low(0DCh)
  7315  002DB0  0EDC               	movwf	((c:Beep@frequency)),c
  7316  002DB2  6E4B               	movlw	high(07Eh)
  7317  002DB4  0E00               	movwf	((c:Beep@duration+1)),c
  7318  002DB6  6E4E               	movlw	low(07Eh)
  7319  002DB8  0E7E               	movwf	((c:Beep@duration)),c
  7320  002DBA  6E4D               	call	_Beep	;wreg free
  7321  002DBC  EC8E  F02B         	line	657
  7322                           ;main.c: 657:  Beep(659, 79);
  7323                           	movlw	high(02h)
  7324  002DC0  0E00               	movwf	((c:sleep@ms+1)),c
  7325  002DC2  6E03               	movlw	low(02h)
  7326  002DC4  0E02               	movwf	((c:sleep@ms)),c
  7327  002DC6  6E02               	call	_sleep	;wreg free
  7328  002DC8  ECF0  F02D         	line	658
  7329                           ;main.c: 658:  sleep(2);
  7330                           	movlw	high(022Ah)
  7331  002DCC  0E02               	movwf	((c:Beep@frequency+1)),c
  7332  002DCE  6E4C               	movlw	low(022Ah)
  7333  002DD0  0E2A               	movwf	((c:Beep@frequency)),c
  7334  002DD2  6E4B               	movlw	high(084h)
  7335  002DD4  0E00               	movwf	((c:Beep@duration+1)),c
  7336  002DD6  6E4E               	movlw	low(084h)
  7337  002DD8  0E84               	movwf	((c:Beep@duration)),c
  7338  002DDA  6E4D               	call	_Beep	;wreg free
  7339  002DDC  EC8E  F02B         	line	659
  7340                           ;main.c: 659:  Beep(146, 138);
  7341                           	movlw	high(0187h)
  7342  002DE0  0E01               	movwf	((c:Beep@frequency+1)),c
  7343  002DE2  6E4C               	movlw	low(0187h)
  7344  002DE4  0E87               	movwf	((c:Beep@frequency)),c
  7345  002DE6  6E4B               	movlw	high(0C1h)
  7346  002DE8  0E00               	movwf	((c:Beep@duration+1)),c
  7347  002DEA  6E4E               	movlw	low(0C1h)
  7348  002DEC  0EC1               	movwf	((c:Beep@duration)),c
  7349  002DEE  6E4D               	call	_Beep	;wreg free
  7350  002DF0  EC8E  F02B         	line	660
  7351                           ;main.c: 660:  sleep(122);
  7352                           	movlw	high(026h)
  7353  002DF4  0E00               	movwf	((c:sleep@ms+1)),c
  7354  002DF6  6E03               	movlw	low(026h)
  7355  002DF8  0E26               	movwf	((c:sleep@ms)),c
  7356  002DFA  6E02               	call	_sleep	;wreg free
  7357  002DFC  ECF0  F02D         	line	661
  7358                           ;main.c: 661:  Beep(110, 110);
  7359                           	movlw	high(0F6h)
  7360  002E00  0E00               	movwf	((c:Beep@frequency+1)),c
  7361  002E02  6E4C               	movlw	low(0F6h)
  7362  002E04  0EF6               	movwf	((c:Beep@frequency)),c
  7363  002E06  6E4B               	movlw	high(086h)
  7364  002E08  0E00               	movwf	((c:Beep@duration+1)),c
  7365  002E0A  6E4E               	movlw	low(086h)
  7366  002E0C  0E86               	movwf	((c:Beep@duration)),c
  7367  002E0E  6E4D               	call	_Beep	;wreg free
  7368  002E10  EC8E  F02B         	line	662
  7369                           ;main.c: 662:  sleep(120);
  7370                           	movlw	high(06h)
  7371  002E14  0E00               	movwf	((c:sleep@ms+1)),c
  7372  002E16  6E03               	movlw	low(06h)
  7373  002E18  0E06               	movwf	((c:sleep@ms)),c
  7374  002E1A  6E02               	call	_sleep	;wreg free
  7375  002E1C  ECF0  F02D         	line	663
  7376                           ;main.c: 663:  Beep(73, 137);
  7377                           	movlw	high(022Ah)
  7378  002E20  0E02               	movwf	((c:Beep@frequency+1)),c
  7379  002E22  6E4C               	movlw	low(022Ah)
  7380  002E24  0E2A               	movwf	((c:Beep@frequency)),c
  7381  002E26  6E4B               	movlw	high(080h)
  7382  002E28  0E00               	movwf	((c:Beep@duration+1)),c
  7383  002E2A  6E4E               	movlw	low(080h)
  7384  002E2C  0E80               	movwf	((c:Beep@duration)),c
  7385  002E2E  6E4D               	call	_Beep	;wreg free
  7386  002E30  EC8E  F02B         	line	664
  7387                           ;main.c: 664:  sleep(113);
  7388                           	movlw	high(02h)
  7389  002E34  0E00               	movwf	((c:sleep@ms+1)),c
  7390  002E36  6E03               	movlw	low(02h)
  7391  002E38  0E02               	movwf	((c:sleep@ms)),c
  7392  002E3A  6E02               	call	_sleep	;wreg free
  7393  002E3C  ECF0  F02D         	line	665
  7394                           ;main.c: 665:  Beep(739, 316);
  7395                           	movlw	high(024Bh)
  7396  002E40  0E02               	movwf	((c:Beep@frequency+1)),c
  7397  002E42  6E4C               	movlw	low(024Bh)
  7398  002E44  0E4B               	movwf	((c:Beep@frequency)),c
  7399  002E46  6E4B               	movlw	high(048h)
  7400  002E48  0E00               	movwf	((c:Beep@duration+1)),c
  7401  002E4A  6E4E               	movlw	low(048h)
  7402  002E4C  0E48               	movwf	((c:Beep@duration)),c
  7403  002E4E  6E4D               	call	_Beep	;wreg free
  7404  002E50  EC8E  F02B         	line	666
  7405                           ;main.c: 666:  sleep(49);
  7406                           	movlw	high(034h)
  7407  002E54  0E00               	movwf	((c:sleep@ms+1)),c
  7408  002E56  6E03               	movlw	low(034h)
  7409  002E58  0E34               	movwf	((c:sleep@ms)),c
  7410  002E5A  6E02               	call	_sleep	;wreg free
  7411  002E5C  ECF0  F02D         	line	667
  7412                           ;main.c: 667:  Beep(659, 80);
  7413                           	movlw	high(03DBh)
  7414  002E60  0E03               	movwf	((c:Beep@frequency+1)),c
  7415  002E62  6E4C               	movlw	low(03DBh)
  7416  002E64  0EDB               	movwf	((c:Beep@frequency)),c
  7417  002E66  6E4B               	movlw	high(053h)
  7418  002E68  0E00               	movwf	((c:Beep@duration+1)),c
  7419  002E6A  6E4E               	movlw	low(053h)
  7420  002E6C  0E53               	movwf	((c:Beep@duration)),c
  7421  002E6E  6E4D               	call	_Beep	;wreg free
  7422  002E70  EC8E  F02B         	line	668
  7423                           ;main.c: 668:  sleep(50);
  7424                           	movlw	high(0Eh)
  7425  002E74  0E00               	movwf	((c:sleep@ms+1)),c
  7426  002E76  6E03               	movlw	low(0Eh)
  7427  002E78  0E0E               	movwf	((c:sleep@ms)),c
  7428  002E7A  6E02               	call	_sleep	;wreg free
  7429  002E7C  ECF0  F02D         	line	669
  7430                           ;main.c: 669:  Beep(440, 119);
  7431                           	movlw	high(0A4h)
  7432  002E80  0E00               	movwf	((c:Beep@frequency+1)),c
  7433  002E82  6E4C               	movlw	low(0A4h)
  7434  002E84  0EA4               	movwf	((c:Beep@frequency)),c
  7435  002E86  6E4B               	movlw	high(082h)
  7436  002E88  0E00               	movwf	((c:Beep@duration+1)),c
  7437  002E8A  6E4E               	movlw	low(082h)
  7438  002E8C  0E82               	movwf	((c:Beep@duration)),c
  7439  002E8E  6E4D               	call	_Beep	;wreg free
  7440  002E90  EC8E  F02B         	line	670
  7441                           ;main.c: 670:  sleep(119);
  7442                           	movlw	high(01Ah)
  7443  002E94  0E00               	movwf	((c:sleep@ms+1)),c
  7444  002E96  6E03               	movlw	low(01Ah)
  7445  002E98  0E1A               	movwf	((c:sleep@ms)),c
  7446  002E9A  6E02               	call	_sleep	;wreg free
  7447  002E9C  ECF0  F02D         	line	671
  7448                           ;main.c: 671:  Beep(146, 164);
  7449                           	movlw	high(030Fh)
  7450  002EA0  0E03               	movwf	((c:Beep@frequency+1)),c
  7451  002EA2  6E4C               	movlw	low(030Fh)
  7452  002EA4  0E0F               	movwf	((c:Beep@frequency)),c
  7453  002EA6  6E4B               	movlw	high(042h)
  7454  002EA8  0E00               	movwf	((c:Beep@duration+1)),c
  7455  002EAA  6E4E               	movlw	low(042h)
  7456  002EAC  0E42               	movwf	((c:Beep@duration)),c
  7457  002EAE  6E4D               	call	_Beep	;wreg free
  7458  002EB0  EC8E  F02B         	line	672
  7459                           ;main.c: 672:  sleep(79);
  7460                           	movlw	high(01Fh)
  7461  002EB4  0E00               	movwf	((c:sleep@ms+1)),c
  7462  002EB6  6E03               	movlw	low(01Fh)
  7463  002EB8  0E1F               	movwf	((c:sleep@ms)),c
  7464  002EBA  6E02               	call	_sleep	;wreg free
  7465  002EBC  ECF0  F02D         	line	673
  7466                           ;main.c: 673:  Beep(739, 195);
  7467                           	movlw	high(0171h)
  7468  002EC0  0E01               	movwf	((c:Beep@frequency+1)),c
  7469  002EC2  6E4C               	movlw	low(0171h)
  7470  002EC4  0E71               	movwf	((c:Beep@frequency)),c
  7471  002EC6  6E4B               	movlw	high(08Fh)
  7472  002EC8  0E00               	movwf	((c:Beep@duration+1)),c
  7473  002ECA  6E4E               	movlw	low(08Fh)
  7474  002ECC  0E8F               	movwf	((c:Beep@duration)),c
  7475  002ECE  6E4D               	call	_Beep	;wreg free
  7476  002ED0  EC8E  F02B         	line	674
  7477                           ;main.c: 674:  sleep(58);
  7478                           	movlw	high(065h)
  7479  002ED4  0E00               	movwf	((c:sleep@ms+1)),c
  7480  002ED6  6E03               	movlw	low(065h)
  7481  002ED8  0E65               	movwf	((c:sleep@ms)),c
  7482  002EDA  6E02               	call	_sleep	;wreg free
  7483  002EDC  ECF0  F02D         	line	675
  7484                           ;main.c: 675:  Beep(659, 74);
  7485                           	movlw	high(01EDh)
  7486  002EE0  0E01               	movwf	((c:Beep@frequency+1)),c
  7487  002EE2  6E4C               	movlw	low(01EDh)
  7488  002EE4  0EED               	movwf	((c:Beep@frequency)),c
  7489  002EE6  6E4B               	movlw	high(08Bh)
  7490  002EE8  0E00               	movwf	((c:Beep@duration+1)),c
  7491  002EEA  6E4E               	movlw	low(08Bh)
  7492  002EEC  0E8B               	movwf	((c:Beep@duration)),c
  7493  002EEE  6E4D               	call	_Beep	;wreg free
  7494  002EF0  EC8E  F02B         	line	676
  7495                           ;main.c: 676:  sleep(12);
  7496                           	movlw	high(068h)
  7497  002EF4  0E00               	movwf	((c:sleep@ms+1)),c
  7498  002EF6  6E03               	movlw	low(068h)
  7499  002EF8  0E68               	movwf	((c:sleep@ms)),c
  7500  002EFA  6E02               	call	_sleep	;wreg free
  7501  002EFC  ECF0  F02D         	line	677
  7502                           ;main.c: 677:  Beep(739, 65);
  7503                           	movlw	high(01B8h)
  7504  002F00  0E01               	movwf	((c:Beep@frequency+1)),c
  7505  002F02  6E4C               	movlw	low(01B8h)
  7506  002F04  0EB8               	movwf	((c:Beep@frequency)),c
  7507  002F06  6E4B               	movlw	high(07Bh)
  7508  002F08  0E00               	movwf	((c:Beep@duration+1)),c
  7509  002F0A  6E4E               	movlw	low(07Bh)
  7510  002F0C  0E7B               	movwf	((c:Beep@duration)),c
  7511  002F0E  6E4D               	call	_Beep	;wreg free
  7512  002F10  EC8E  F02B         	line	678
  7513                           ;main.c: 678:  Beep(587, 101);
  7514                           	movlw	high(083h)
  7515  002F14  0E00               	movwf	((c:sleep@ms+1)),c
  7516  002F16  6E03               	movlw	low(083h)
  7517  002F18  0E83               	movwf	((c:sleep@ms)),c
  7518  002F1A  6E02               	call	_sleep	;wreg free
  7519  002F1C  ECF0  F02D         	line	679
  7520                           ;main.c: 679:  sleep(4);
  7521                           	movlw	high(0187h)
  7522  002F20  0E01               	movwf	((c:Beep@frequency+1)),c
  7523  002F22  6E4C               	movlw	low(0187h)
  7524  002F24  0E87               	movwf	((c:Beep@frequency)),c
  7525  002F26  6E4B               	movlw	high(080h)
  7526  002F28  0E00               	movwf	((c:Beep@duration+1)),c
  7527  002F2A  6E4E               	movlw	low(080h)
  7528  002F2C  0E80               	movwf	((c:Beep@duration)),c
  7529  002F2E  6E4D               	call	_Beep	;wreg free
  7530  002F30  EC8E  F02B         	line	680
  7531                           ;main.c: 680:  Beep(659, 143);
  7532                           	movlw	high(02Bh)
  7533  002F34  0E00               	movwf	((c:sleep@ms+1)),c
  7534  002F36  6E03               	movlw	low(02Bh)
  7535  002F38  0E2B               	movwf	((c:sleep@ms)),c
  7536  002F3A  6E02               	call	_sleep	;wreg free
  7537  002F3C  ECF0  F02D         	line	681
  7538                           ;main.c: 681:  sleep(95);
  7539                           	movlw	high(0293h)
  7540  002F40  0E02               	movwf	((c:Beep@frequency+1)),c
  7541  002F42  6E4C               	movlw	low(0293h)
  7542  002F44  0E93               	movwf	((c:Beep@frequency)),c
  7543  002F46  6E4B               	movlw	high(04Fh)
  7544  002F48  0E00               	movwf	((c:Beep@duration+1)),c
  7545  002F4A  6E4E               	movlw	low(04Fh)
  7546  002F4C  0E4F               	movwf	((c:Beep@duration)),c
  7547  002F4E  6E4D               	call	_Beep	;wreg free
  7548  002F50  EC8E  F02B         	line	682
  7549                           ;main.c: 682:  Beep(116, 119);
  7550                           	movlw	high(02h)
  7551  002F54  0E00               	movwf	((c:sleep@ms+1)),c
  7552  002F56  6E03               	movlw	low(02h)
  7553  002F58  0E02               	movwf	((c:sleep@ms)),c
  7554  002F5A  6E02               	call	_sleep	;wreg free
  7555  002F5C  ECF0  F02D         	line	683
  7556                           ;main.c: 683:  sleep(132);
  7557                           	movlw	high(092h)
  7558  002F60  0E00               	movwf	((c:Beep@frequency+1)),c
  7559  002F62  6E4C               	movlw	low(092h)
  7560  002F64  0E92               	movwf	((c:Beep@frequency)),c
  7561  002F66  6E4B               	movlw	high(08Ah)
  7562  002F68  0E00               	movwf	((c:Beep@duration+1)),c
  7563  002F6A  6E4E               	movlw	low(08Ah)
  7564  002F6C  0E8A               	movwf	((c:Beep@duration)),c
  7565  002F6E  6E4D               	call	_Beep	;wreg free
  7566  002F70  EC8E  F02B         	line	684
  7567                           ;main.c: 684:  Beep(659, 316);
  7568                           	movlw	high(07Ah)
  7569  002F74  0E00               	movwf	((c:sleep@ms+1)),c
  7570  002F76  6E03               	movlw	low(07Ah)
  7571  002F78  0E7A               	movwf	((c:sleep@ms)),c
  7572  002F7A  6E02               	call	_sleep	;wreg free
  7573  002F7C  ECF0  F02D         	line	685
  7574                           ;main.c: 685:  sleep(41);
  7575                           	movlw	high(06Eh)
  7576  002F80  0E00               	movwf	((c:Beep@frequency+1)),c
  7577  002F82  6E4C               	movlw	low(06Eh)
  7578  002F84  0E6E               	movwf	((c:Beep@frequency)),c
  7579  002F86  6E4B               	movlw	high(06Eh)
  7580  002F88  0E00               	movwf	((c:Beep@duration+1)),c
  7581  002F8A  6E4E               	movlw	low(06Eh)
  7582  002F8C  0E6E               	movwf	((c:Beep@duration)),c
  7583  002F8E  6E4D               	call	_Beep	;wreg free
  7584  002F90  EC8E  F02B         	line	686
  7585                           ;main.c: 686:  Beep(587, 90);
  7586                           	movlw	high(078h)
  7587  002F94  0E00               	movwf	((c:sleep@ms+1)),c
  7588  002F96  6E03               	movlw	low(078h)
  7589  002F98  0E78               	movwf	((c:sleep@ms)),c
  7590  002F9A  6E02               	call	_sleep	;wreg free
  7591  002F9C  ECF0  F02D         	line	687
  7592                           ;main.c: 687:  sleep(37);
  7593                           	movlw	high(049h)
  7594  002FA0  0E00               	movwf	((c:Beep@frequency+1)),c
  7595  002FA2  6E4C               	movlw	low(049h)
  7596  002FA4  0E49               	movwf	((c:Beep@frequency)),c
  7597  002FA6  6E4B               	movlw	high(089h)
  7598  002FA8  0E00               	movwf	((c:Beep@duration+1)),c
  7599  002FAA  6E4E               	movlw	low(089h)
  7600  002FAC  0E89               	movwf	((c:Beep@duration)),c
  7601  002FAE  6E4D               	call	_Beep	;wreg free
  7602  002FB0  EC8E  F02B         	line	688
  7603                           ;main.c: 688:  Beep(466, 105);
  7604                           	movlw	high(071h)
  7605  002FB4  0E00               	movwf	((c:sleep@ms+1)),c
  7606  002FB6  6E03               	movlw	low(071h)
  7607  002FB8  0E71               	movwf	((c:sleep@ms)),c
  7608  002FBA  6E02               	call	_sleep	;wreg free
  7609  002FBC  ECF0  F02D         	line	689
  7610                           ;main.c: 689:  sleep(4);
  7611                           	movlw	high(02E3h)
  7612  002FC0  0E02               	movwf	((c:Beep@frequency+1)),c
  7613  002FC2  6E4C               	movlw	low(02E3h)
  7614  002FC4  0EE3               	movwf	((c:Beep@frequency)),c
  7615  002FC6  6E4B               	movlw	high(013Ch)
  7616  002FC8  0E01               	movwf	((c:Beep@duration+1)),c
  7617  002FCA  6E4E               	movlw	low(013Ch)
  7618  002FCC  0E3C               	movwf	((c:Beep@duration)),c
  7619  002FCE  6E4D               	call	_Beep	;wreg free
  7620  002FD0  EC8E  F02B         	line	690
  7621                           ;main.c: 690:  Beep(233, 93);
  7622                           	movlw	high(031h)
  7623  002FD4  0E00               	movwf	((c:sleep@ms+1)),c
  7624  002FD6  6E03               	movlw	low(031h)
  7625  002FD8  0E31               	movwf	((c:sleep@ms)),c
  7626  002FDA  6E02               	call	_sleep	;wreg free
  7627  002FDC  ECF0  F02D         	line	691
  7628                           ;main.c: 691:  sleep(45);
  7629                           	movlw	high(0293h)
  7630  002FE0  0E02               	movwf	((c:Beep@frequency+1)),c
  7631  002FE2  6E4C               	movlw	low(0293h)
  7632  002FE4  0E93               	movwf	((c:Beep@frequency)),c
  7633  002FE6  6E4B               	movlw	high(050h)
  7634  002FE8  0E00               	movwf	((c:Beep@duration+1)),c
  7635  002FEA  6E4E               	movlw	low(050h)
  7636  002FEC  0E50               	movwf	((c:Beep@duration)),c
  7637  002FEE  6E4D               	call	_Beep	;wreg free
  7638  002FF0  EC8E  F02B         	line	692
  7639                           ;main.c: 692:  Beep(466, 115);
  7640                           	movlw	high(032h)
  7641  002FF4  0E00               	movwf	((c:sleep@ms+1)),c
  7642  002FF6  6E03               	movlw	low(032h)
  7643  002FF8  0E32               	movwf	((c:sleep@ms)),c
  7644  002FFA  6E02               	call	_sleep	;wreg free
  7645  002FFC  ECF0  F02D         	line	693
  7646                           ;main.c: 693:  sleep(14);
  7647                           	movlw	high(01B8h)
  7648  003000  0E01               	movwf	((c:Beep@frequency+1)),c
  7649  003002  6E4C               	movlw	low(01B8h)
  7650  003004  0EB8               	movwf	((c:Beep@frequency)),c
  7651  003006  6E4B               	movlw	high(077h)
  7652  003008  0E00               	movwf	((c:Beep@duration+1)),c
  7653  00300A  6E4E               	movlw	low(077h)
  7654  00300C  0E77               	movwf	((c:Beep@duration)),c
  7655  00300E  6E4D               	call	_Beep	;wreg free
  7656  003010  EC8E  F02B         	line	694
  7657                           ;main.c: 694:  Beep(1108, 72);
  7658                           	movlw	high(077h)
  7659  003014  0E00               	movwf	((c:sleep@ms+1)),c
  7660  003016  6E03               	movlw	low(077h)
  7661  003018  0E77               	movwf	((c:sleep@ms)),c
  7662  00301A  6E02               	call	_sleep	;wreg free
  7663  00301C  ECF0  F02D         	line	695
  7664                           ;main.c: 695:  sleep(29);
  7665                           	movlw	high(092h)
  7666  003020  0E00               	movwf	((c:Beep@frequency+1)),c
  7667  003022  6E4C               	movlw	low(092h)
  7668  003024  0E92               	movwf	((c:Beep@frequency)),c
  7669  003026  6E4B               	movlw	high(0A4h)
  7670  003028  0E00               	movwf	((c:Beep@duration+1)),c
  7671  00302A  6E4E               	movlw	low(0A4h)
  7672  00302C  0EA4               	movwf	((c:Beep@duration)),c
  7673  00302E  6E4D               	call	_Beep	;wreg free
  7674  003030  EC8E  F02B         	line	696
  7675                           ;main.c: 696:  Beep(233, 113);
  7676                           	movlw	high(04Fh)
  7677  003034  0E00               	movwf	((c:sleep@ms+1)),c
  7678  003036  6E03               	movlw	low(04Fh)
  7679  003038  0E4F               	movwf	((c:sleep@ms)),c
  7680  00303A  6E02               	call	_sleep	;wreg free
  7681  00303C  ECF0  F02D         	line	697
  7682                           ;main.c: 697:  sleep(135);
  7683                           	movlw	high(02E3h)
  7684  003040  0E02               	movwf	((c:Beep@frequency+1)),c
  7685  003042  6E4C               	movlw	low(02E3h)
  7686  003044  0EE3               	movwf	((c:Beep@frequency)),c
  7687  003046  6E4B               	movlw	high(0C3h)
  7688  003048  0E00               	movwf	((c:Beep@duration+1)),c
  7689  00304A  6E4E               	movlw	low(0C3h)
  7690  00304C  0EC3               	movwf	((c:Beep@duration)),c
  7691  00304E  6E4D               	call	_Beep	;wreg free
  7692  003050  EC8E  F02B         	line	698
  7693                           ;main.c: 698:  Beep(739, 63);
  7694                           	movlw	high(03Ah)
  7695  003054  0E00               	movwf	((c:sleep@ms+1)),c
  7696  003056  6E03               	movlw	low(03Ah)
  7697  003058  0E3A               	movwf	((c:sleep@ms)),c
  7698  00305A  6E02               	call	_sleep	;wreg free
  7699  00305C  ECF0  F02D         	line	699
  7700                           ;main.c: 699:  sleep(43);
  7701                           	movlw	high(0293h)
  7702  003060  0E02               	movwf	((c:Beep@frequency+1)),c
  7703  003062  6E4C               	movlw	low(0293h)
  7704  003064  0E93               	movwf	((c:Beep@frequency)),c
  7705  003066  6E4B               	movlw	high(04Ah)
  7706  003068  0E00               	movwf	((c:Beep@duration+1)),c
  7707  00306A  6E4E               	movlw	low(04Ah)
  7708  00306C  0E4A               	movwf	((c:Beep@duration)),c
  7709  00306E  6E4D               	call	_Beep	;wreg free
  7710  003070  EC8E  F02B         	line	700
  7711                           ;main.c: 700:  Beep(587, 94);
  7712                           	movlw	high(0Ch)
  7713  003074  0E00               	movwf	((c:sleep@ms+1)),c
  7714  003076  6E03               	movlw	low(0Ch)
  7715  003078  0E0C               	movwf	((c:sleep@ms)),c
  7716  00307A  6E02               	call	_sleep	;wreg free
  7717  00307C  ECF0  F02D         	line	701
  7718                           ;main.c: 701:  sleep(27);
  7719                           	movlw	high(02E3h)
  7720  003080  0E02               	movwf	((c:Beep@frequency+1)),c
  7721  003082  6E4C               	movlw	low(02E3h)
  7722  003084  0EE3               	movwf	((c:Beep@frequency)),c
  7723  003086  6E4B               	movlw	high(041h)
  7724  003088  0E00               	movwf	((c:Beep@duration+1)),c
  7725  00308A  6E4E               	movlw	low(041h)
  7726  00308C  0E41               	movwf	((c:Beep@duration)),c
  7727  00308E  6E4D               	call	_Beep	;wreg free
  7728  003090  EC8E  F02B         	line	702
  7729                           ;main.c: 702:  Beep(587, 224);
  7730                           	movlw	high(024Bh)
  7731  003094  0E02               	movwf	((c:Beep@frequency+1)),c
  7732  003096  6E4C               	movlw	low(024Bh)
  7733  003098  0E4B               	movwf	((c:Beep@frequency)),c
  7734  00309A  6E4B               	movlw	high(065h)
  7735  00309C  0E00               	movwf	((c:Beep@duration+1)),c
  7736  00309E  6E4E               	movlw	low(065h)
  7737  0030A0  0E65               	movwf	((c:Beep@duration)),c
  7738  0030A2  6E4D               	call	_Beep	;wreg free
  7739  0030A4  EC8E  F02B         	line	703
  7740                           ;main.c: 703:  sleep(57);
  7741                           	movlw	high(04h)
  7742  0030A8  0E00               	movwf	((c:sleep@ms+1)),c
  7743  0030AA  6E03               	movlw	low(04h)
  7744  0030AC  0E04               	movwf	((c:sleep@ms)),c
  7745  0030AE  6E02               	call	_sleep	;wreg free
  7746  0030B0  ECF0  F02D         	line	704
  7747                           ;main.c: 704:  Beep(987, 116);
  7748                           	movlw	high(0293h)
  7749  0030B4  0E02               	movwf	((c:Beep@frequency+1)),c
  7750  0030B6  6E4C               	movlw	low(0293h)
  7751  0030B8  0E93               	movwf	((c:Beep@frequency)),c
  7752  0030BA  6E4B               	movlw	high(08Fh)
  7753  0030BC  0E00               	movwf	((c:Beep@duration+1)),c
  7754  0030BE  6E4E               	movlw	low(08Fh)
  7755  0030C0  0E8F               	movwf	((c:Beep@duration)),c
  7756  0030C2  6E4D               	call	_Beep	;wreg free
  7757  0030C4  EC8E  F02B         	line	705
  7758                           ;main.c: 705:  sleep(118);
  7759                           	movlw	high(05Fh)
  7760  0030C8  0E00               	movwf	((c:sleep@ms+1)),c
  7761  0030CA  6E03               	movlw	low(05Fh)
  7762  0030CC  0E5F               	movwf	((c:sleep@ms)),c
  7763  0030CE  6E02               	call	_sleep	;wreg free
  7764  0030D0  ECF0  F02D         	line	706
  7765                           ;main.c: 706:  Beep(1174, 81);
  7766                           	movlw	high(074h)
  7767  0030D4  0E00               	movwf	((c:Beep@frequency+1)),c
  7768  0030D6  6E4C               	movlw	low(074h)
  7769  0030D8  0E74               	movwf	((c:Beep@frequency)),c
  7770  0030DA  6E4B               	movlw	high(077h)
  7771  0030DC  0E00               	movwf	((c:Beep@duration+1)),c
  7772  0030DE  6E4E               	movlw	low(077h)
  7773  0030E0  0E77               	movwf	((c:Beep@duration)),c
  7774  0030E2  6E4D               	call	_Beep	;wreg free
  7775  0030E4  EC8E  F02B         	line	707
  7776                           ;main.c: 707:  sleep(39);
  7777                           	movlw	high(084h)
  7778  0030E8  0E00               	movwf	((c:sleep@ms+1)),c
  7779  0030EA  6E03               	movlw	low(084h)
  7780  0030EC  0E84               	movwf	((c:sleep@ms)),c
  7781  0030EE  6E02               	call	_sleep	;wreg free
  7782  0030F0  ECF0  F02D         	line	708
  7783                           ;main.c: 708:  Beep(987, 65);
  7784                           	movlw	high(0293h)
  7785  0030F4  0E02               	movwf	((c:Beep@frequency+1)),c
  7786  0030F6  6E4C               	movlw	low(0293h)
  7787  0030F8  0E93               	movwf	((c:Beep@frequency)),c
  7788  0030FA  6E4B               	movlw	high(013Ch)
  7789  0030FC  0E01               	movwf	((c:Beep@duration+1)),c
  7790  0030FE  6E4E               	movlw	low(013Ch)
  7791  003100  0E3C               	movwf	((c:Beep@duration)),c
  7792  003102  6E4D               	call	_Beep	;wreg free
  7793  003104  EC8E  F02B         	line	709
  7794                           ;main.c: 709:  sleep(56);
  7795                           	movlw	high(029h)
  7796  003108  0E00               	movwf	((c:sleep@ms+1)),c
  7797  00310A  6E03               	movlw	low(029h)
  7798  00310C  0E29               	movwf	((c:sleep@ms)),c
  7799  00310E  6E02               	call	_sleep	;wreg free
  7800  003110  ECF0  F02D         	line	710
  7801                           ;main.c: 710:  Beep(164, 461);
  7802                           	movlw	high(024Bh)
  7803  003114  0E02               	movwf	((c:Beep@frequency+1)),c
  7804  003116  6E4C               	movlw	low(024Bh)
  7805  003118  0E4B               	movwf	((c:Beep@frequency)),c
  7806  00311A  6E4B               	movlw	high(05Ah)
  7807  00311C  0E00               	movwf	((c:Beep@duration+1)),c
  7808  00311E  6E4E               	movlw	low(05Ah)
  7809  003120  0E5A               	movwf	((c:Beep@duration)),c
  7810  003122  6E4D               	call	_Beep	;wreg free
  7811  003124  EC8E  F02B         	line	711
  7812                           ;main.c: 711:  sleep(42);
  7813                           	movlw	high(025h)
  7814  003128  0E00               	movwf	((c:sleep@ms+1)),c
  7815  00312A  6E03               	movlw	low(025h)
  7816  00312C  0E25               	movwf	((c:sleep@ms)),c
  7817  00312E  6E02               	call	_sleep	;wreg free
  7818  003130  ECF0  F02D         	line	712
  7819                           ;main.c: 712:  Beep(391, 132);
  7820                           	movlw	high(01D2h)
  7821  003134  0E01               	movwf	((c:Beep@frequency+1)),c
  7822  003136  6E4C               	movlw	low(01D2h)
  7823  003138  0ED2               	movwf	((c:Beep@frequency)),c
  7824  00313A  6E4B               	movlw	high(069h)
  7825  00313C  0E00               	movwf	((c:Beep@duration+1)),c
  7826  00313E  6E4E               	movlw	low(069h)
  7827  003140  0E69               	movwf	((c:Beep@duration)),c
  7828  003142  6E4D               	call	_Beep	;wreg free
  7829  003144  EC8E  F02B         	line	713
  7830                           ;main.c: 713:  sleep(130);
  7831                           	movlw	high(04h)
  7832  003148  0E00               	movwf	((c:sleep@ms+1)),c
  7833  00314A  6E03               	movlw	low(04h)
  7834  00314C  0E04               	movwf	((c:sleep@ms)),c
  7835  00314E  6E02               	call	_sleep	;wreg free
  7836  003150  ECF0  F02D         	line	714
  7837                           ;main.c: 714:  Beep(987, 111);
  7838                           	movlw	high(0E9h)
  7839  003154  0E00               	movwf	((c:Beep@frequency+1)),c
  7840  003156  6E4C               	movlw	low(0E9h)
  7841  003158  0EE9               	movwf	((c:Beep@frequency)),c
  7842  00315A  6E4B               	movlw	high(05Dh)
  7843  00315C  0E00               	movwf	((c:Beep@duration+1)),c
  7844  00315E  6E4E               	movlw	low(05Dh)
  7845  003160  0E5D               	movwf	((c:Beep@duration)),c
  7846  003162  6E4D               	call	_Beep	;wreg free
  7847  003164  EC8E  F02B         	line	715
  7848                           ;main.c: 715:  sleep(10);
  7849                           	movlw	high(02Dh)
  7850  003168  0E00               	movwf	((c:sleep@ms+1)),c
  7851  00316A  6E03               	movlw	low(02Dh)
  7852  00316C  0E2D               	movwf	((c:sleep@ms)),c
  7853  00316E  6E02               	call	_sleep	;wreg free
  7854  003170  ECF0  F02D         	line	716
  7855                           ;main.c: 716:  Beep(783, 64);
  7856                           	movlw	high(01D2h)
  7857  003174  0E01               	movwf	((c:Beep@frequency+1)),c
  7858  003176  6E4C               	movlw	low(01D2h)
  7859  003178  0ED2               	movwf	((c:Beep@frequency)),c
  7860  00317A  6E4B               	movlw	high(073h)
  7861  00317C  0E00               	movwf	((c:Beep@duration+1)),c
  7862  00317E  6E4E               	movlw	low(073h)
  7863  003180  0E73               	movwf	((c:Beep@duration)),c
  7864  003182  6E4D               	call	_Beep	;wreg free
  7865  003184  EC8E  F02B         	line	717
  7866                           ;main.c: 717:  sleep(64);
  7867                           	movlw	high(0Eh)
  7868  003188  0E00               	movwf	((c:sleep@ms+1)),c
  7869  00318A  6E03               	movlw	low(0Eh)
  7870  00318C  0E0E               	movwf	((c:sleep@ms)),c
  7871  00318E  6E02               	call	_sleep	;wreg free
  7872  003190  ECF0  F02D         	line	718
  7873                           ;main.c: 718:  Beep(164, 255);
  7874                           	movlw	high(0454h)
  7875  003194  0E04               	movwf	((c:Beep@frequency+1)),c
  7876  003196  6E4C               	movlw	low(0454h)
  7877  003198  0E54               	movwf	((c:Beep@frequency)),c
  7878  00319A  6E4B               	movlw	high(048h)
  7879  00319C  0E00               	movwf	((c:Beep@duration+1)),c
  7880  00319E  6E4E               	movlw	low(048h)
  7881  0031A0  0E48               	movwf	((c:Beep@duration)),c
  7882  0031A2  6E4D               	call	_Beep	;wreg free
  7883  0031A4  EC8E  F02B         	line	719
  7884                           ;main.c: 719:  sleep(8);
  7885                           	movlw	high(01Dh)
  7886  0031A8  0E00               	movwf	((c:sleep@ms+1)),c
  7887  0031AA  6E03               	movlw	low(01Dh)
  7888  0031AC  0E1D               	movwf	((c:sleep@ms)),c
  7889  0031AE  6E02               	call	_sleep	;wreg free
  7890  0031B0  ECF0  F02D         	line	720
  7891                           ;main.c: 720:  Beep(493, 107);
  7892                           	movlw	high(0E9h)
  7893  0031B4  0E00               	movwf	((c:Beep@frequency+1)),c
  7894  0031B6  6E4C               	movlw	low(0E9h)
  7895  0031B8  0EE9               	movwf	((c:Beep@frequency)),c
  7896  0031BA  6E4B               	movlw	high(071h)
  7897  0031BC  0E00               	movwf	((c:Beep@duration+1)),c
  7898  0031BE  6E4E               	movlw	low(071h)
  7899  0031C0  0E71               	movwf	((c:Beep@duration)),c
  7900  0031C2  6E4D               	call	_Beep	;wreg free
  7901  0031C4  EC8E  F02B         	line	721
  7902                           ;main.c: 721:  sleep(6);
  7903                           	movlw	high(087h)
  7904  0031C8  0E00               	movwf	((c:sleep@ms+1)),c
  7905  0031CA  6E03               	movlw	low(087h)
  7906  0031CC  0E87               	movwf	((c:sleep@ms)),c
  7907  0031CE  6E02               	call	_sleep	;wreg free
  7908  0031D0  ECF0  F02D         	line	722
  7909                           ;main.c: 722:  Beep(391, 93);
  7910                           	movlw	high(02E3h)
  7911  0031D4  0E02               	movwf	((c:Beep@frequency+1)),c
  7912  0031D6  6E4C               	movlw	low(02E3h)
  7913  0031D8  0EE3               	movwf	((c:Beep@frequency)),c
  7914  0031DA  6E4B               	movlw	high(03Fh)
  7915  0031DC  0E00               	movwf	((c:Beep@duration+1)),c
  7916  0031DE  6E4E               	movlw	low(03Fh)
  7917  0031E0  0E3F               	movwf	((c:Beep@duration)),c
  7918  0031E2  6E4D               	call	_Beep	;wreg free
  7919  0031E4  EC8E  F02B         	line	723
  7920                           ;main.c: 723:  sleep(24);
  7921                           	movlw	high(02Bh)
  7922  0031E8  0E00               	movwf	((c:sleep@ms+1)),c
  7923  0031EA  6E03               	movlw	low(02Bh)
  7924  0031EC  0E2B               	movwf	((c:sleep@ms)),c
  7925  0031EE  6E02               	call	_sleep	;wreg free
  7926  0031F0  ECF0  F02D         	line	724
  7927                           ;main.c: 724:  Beep(329, 155);
  7928                           	movlw	high(024Bh)
  7929  0031F4  0E02               	movwf	((c:Beep@frequency+1)),c
  7930  0031F6  6E4C               	movlw	low(024Bh)
  7931  0031F8  0E4B               	movwf	((c:Beep@frequency)),c
  7932  0031FA  6E4B               	movlw	high(05Eh)
  7933  0031FC  0E00               	movwf	((c:Beep@duration+1)),c
  7934  0031FE  6E4E               	movlw	low(05Eh)
  7935  003200  0E5E               	movwf	((c:Beep@duration)),c
  7936  003202  6E4D               	call	_Beep	;wreg free
  7937  003204  EC8E  F02B         	line	725
  7938                           ;main.c: 725:  sleep(90);
  7939                           	movlw	high(01Bh)
  7940  003208  0E00               	movwf	((c:sleep@ms+1)),c
  7941  00320A  6E03               	movlw	low(01Bh)
  7942  00320C  0E1B               	movwf	((c:sleep@ms)),c
  7943  00320E  6E02               	call	_sleep	;wreg free
  7944  003210  ECF0  F02D         	line	726
  7945                           ;main.c: 726:  Beep(783, 118);
  7946                           	movlw	high(024Bh)
  7947  003214  0E02               	movwf	((c:Beep@frequency+1)),c
  7948  003216  6E4C               	movlw	low(024Bh)
  7949  003218  0E4B               	movwf	((c:Beep@frequency)),c
  7950  00321A  6E4B               	movlw	high(0E0h)
  7951  00321C  0E00               	movwf	((c:Beep@duration+1)),c
  7952  00321E  6E4E               	movlw	low(0E0h)
  7953  003220  0EE0               	movwf	((c:Beep@duration)),c
  7954  003222  6E4D               	call	_Beep	;wreg free
  7955  003224  EC8E  F02B         	line	727
  7956                           ;main.c: 727:  Beep(659, 73);
  7957                           	movlw	high(039h)
  7958  003228  0E00               	movwf	((c:sleep@ms+1)),c
  7959  00322A  6E03               	movlw	low(039h)
  7960  00322C  0E39               	movwf	((c:sleep@ms)),c
  7961  00322E  6E02               	call	_sleep	;wreg free
  7962  003230  ECF0  F02D         	line	728
  7963                           ;main.c: 728:  sleep(70);
  7964                           	movlw	high(03DBh)
  7965  003234  0E03               	movwf	((c:Beep@frequency+1)),c
  7966  003236  6E4C               	movlw	low(03DBh)
  7967  003238  0EDB               	movwf	((c:Beep@frequency)),c
  7968  00323A  6E4B               	movlw	high(074h)
  7969  00323C  0E00               	movwf	((c:Beep@duration+1)),c
  7970  00323E  6E4E               	movlw	low(074h)
  7971  003240  0E74               	movwf	((c:Beep@duration)),c
  7972  003242  6E4D               	call	_Beep	;wreg free
  7973  003244  EC8E  F02B         	line	729
  7974                           ;main.c: 729:  Beep(164, 237);
  7975                           	movlw	high(076h)
  7976  003248  0E00               	movwf	((c:sleep@ms+1)),c
  7977  00324A  6E03               	movlw	low(076h)
  7978  00324C  0E76               	movwf	((c:sleep@ms)),c
  7979  00324E  6E02               	call	_sleep	;wreg free
  7980  003250  ECF0  F02D         	line	730
  7981                           ;main.c: 730:  sleep(2);
  7982                           	movlw	high(0496h)
  7983  003254  0E04               	movwf	((c:Beep@frequency+1)),c
  7984  003256  6E4C               	movlw	low(0496h)
  7985  003258  0E96               	movwf	((c:Beep@frequency)),c
  7986  00325A  6E4B               	movlw	high(051h)
  7987  00325C  0E00               	movwf	((c:Beep@duration+1)),c
  7988  00325E  6E4E               	movlw	low(051h)
  7989  003260  0E51               	movwf	((c:Beep@duration)),c
  7990  003262  6E4D               	call	_Beep	;wreg free
  7991  003264  EC8E  F02B         	line	731
  7992                           ;main.c: 731:  Beep(329, 99);
  7993                           	movlw	high(027h)
  7994  003268  0E00               	movwf	((c:sleep@ms+1)),c
  7995  00326A  6E03               	movlw	low(027h)
  7996  00326C  0E27               	movwf	((c:sleep@ms)),c
  7997  00326E  6E02               	call	_sleep	;wreg free
  7998  003270  ECF0  F02D         	line	732
  7999                           ;main.c: 732:  sleep(4);
  8000                           	movlw	high(03DBh)
  8001  003274  0E03               	movwf	((c:Beep@frequency+1)),c
  8002  003276  6E4C               	movlw	low(03DBh)
  8003  003278  0EDB               	movwf	((c:Beep@frequency)),c
  8004  00327A  6E4B               	movlw	high(041h)
  8005  00327C  0E00               	movwf	((c:Beep@duration+1)),c
  8006  00327E  6E4E               	movlw	low(041h)
  8007  003280  0E41               	movwf	((c:Beep@duration)),c
  8008  003282  6E4D               	call	_Beep	;wreg free
  8009  003284  EC8E  F02B         	line	733
  8010                           ;main.c: 733:  Beep(659, 64);
  8011                           	movlw	high(038h)
  8012  003288  0E00               	movwf	((c:sleep@ms+1)),c
  8013  00328A  6E03               	movlw	low(038h)
  8014  00328C  0E38               	movwf	((c:sleep@ms)),c
  8015  00328E  6E02               	call	_sleep	;wreg free
  8016  003290  ECF0  F02D         	line	734
  8017                           ;main.c: 734:  sleep(58);
  8018                           	movlw	high(0A4h)
  8019  003294  0E00               	movwf	((c:Beep@frequency+1)),c
  8020  003296  6E4C               	movlw	low(0A4h)
  8021  003298  0EA4               	movwf	((c:Beep@frequency)),c
  8022  00329A  6E4B               	movlw	high(01CDh)
  8023  00329C  0E01               	movwf	((c:Beep@duration+1)),c
  8024  00329E  6E4E               	movlw	low(01CDh)
  8025  0032A0  0ECD               	movwf	((c:Beep@duration)),c
  8026  0032A2  6E4D               	call	_Beep	;wreg free
  8027  0032A4  EC8E  F02B         	line	735
  8028                           ;main.c: 735:  Beep(523, 120);
  8029                           	movlw	high(02Ah)
  8030  0032A8  0E00               	movwf	((c:sleep@ms+1)),c
  8031  0032AA  6E03               	movlw	low(02Ah)
  8032  0032AC  0E2A               	movwf	((c:sleep@ms)),c
  8033  0032AE  6E02               	call	_sleep	;wreg free
  8034  0032B0  ECF0  F02D         	line	736
  8035                           ;main.c: 736:  sleep(119);
  8036                           	movlw	high(0187h)
  8037  0032B4  0E01               	movwf	((c:Beep@frequency+1)),c
  8038  0032B6  6E4C               	movlw	low(0187h)
  8039  0032B8  0E87               	movwf	((c:Beep@frequency)),c
  8040  0032BA  6E4B               	movlw	high(084h)
  8041  0032BC  0E00               	movwf	((c:Beep@duration+1)),c
  8042  0032BE  6E4E               	movlw	low(084h)
  8043  0032C0  0E84               	movwf	((c:Beep@duration)),c
  8044  0032C2  6E4D               	call	_Beep	;wreg free
  8045  0032C4  EC8E  F02B         	line	737
  8046                           ;main.c: 737:  Beep(523, 126);
  8047                           	movlw	high(082h)
  8048  0032C8  0E00               	movwf	((c:sleep@ms+1)),c
  8049  0032CA  6E03               	movlw	low(082h)
  8050  0032CC  0E82               	movwf	((c:sleep@ms)),c
  8051  0032CE  6E02               	call	_sleep	;wreg free
  8052  0032D0  ECF0  F02D         	line	738
  8053                           ;main.c: 738:  sleep(123);
  8054                           	movlw	high(03DBh)
  8055  0032D4  0E03               	movwf	((c:Beep@frequency+1)),c
  8056  0032D6  6E4C               	movlw	low(03DBh)
  8057  0032D8  0EDB               	movwf	((c:Beep@frequency)),c
  8058  0032DA  6E4B               	movlw	high(06Fh)
  8059  0032DC  0E00               	movwf	((c:Beep@duration+1)),c
  8060  0032DE  6E4E               	movlw	low(06Fh)
  8061  0032E0  0E6F               	movwf	((c:Beep@duration)),c
  8062  0032E2  6E4D               	call	_Beep	;wreg free
  8063  0032E4  EC8E  F02B         	line	739
  8064                           ;main.c: 739:  Beep(493, 236);
  8065                           	movlw	high(0Ah)
  8066  0032E8  0E00               	movwf	((c:sleep@ms+1)),c
  8067  0032EA  6E03               	movlw	low(0Ah)
  8068  0032EC  0E0A               	movwf	((c:sleep@ms)),c
  8069  0032EE  6E02               	call	_sleep	;wreg free
  8070  0032F0  ECF0  F02D         	line	740
  8071                           ;main.c: 740:  Beep(466, 158);
  8072                           	movlw	high(030Fh)
  8073  0032F4  0E03               	movwf	((c:Beep@frequency+1)),c
  8074  0032F6  6E4C               	movlw	low(030Fh)
  8075  0032F8  0E0F               	movwf	((c:Beep@frequency)),c
  8076  0032FA  6E4B               	movlw	high(040h)
  8077  0032FC  0E00               	movwf	((c:Beep@duration+1)),c
  8078  0032FE  6E4E               	movlw	low(040h)
  8079  003300  0E40               	movwf	((c:Beep@duration)),c
  8080  003302  6E4D               	call	_Beep	;wreg free
  8081  003304  EC8E  F02B         	line	741
  8082                           ;main.c: 741:  sleep(122);
  8083                           	movlw	high(040h)
  8084  003308  0E00               	movwf	((c:sleep@ms+1)),c
  8085  00330A  6E03               	movlw	low(040h)
  8086  00330C  0E40               	movwf	((c:sleep@ms)),c
  8087  00330E  6E02               	call	_sleep	;wreg free
  8088  003310  ECF0  F02D         	line	742
  8089                           ;main.c: 742:  Beep(391, 228);
  8090                           	movlw	high(0A4h)
  8091  003314  0E00               	movwf	((c:Beep@frequency+1)),c
  8092  003316  6E4C               	movlw	low(0A4h)
  8093  003318  0EA4               	movwf	((c:Beep@frequency)),c
  8094  00331A  6E4B               	movlw	high(0FFh)
  8095  00331C  0E00               	movwf	((c:Beep@duration+1)),c
  8096  00331E  6E4E               	setf	((c:Beep@duration)),c
  8097  003320  684D               	call	_Beep	;wreg free
  8098  003322  EC8E  F02B         	line	743
  8099                           ;main.c: 743:  sleep(27);
  8100                           	movlw	high(08h)
  8101  003326  0E00               	movwf	((c:sleep@ms+1)),c
  8102  003328  6E03               	movlw	low(08h)
  8103  00332A  0E08               	movwf	((c:sleep@ms)),c
  8104  00332C  6E02               	call	_sleep	;wreg free
  8105  00332E  ECF0  F02D         	line	744
  8106                           ;main.c: 744:  Beep(277, 121);
  8107                           	movlw	high(01EDh)
  8108  003332  0E01               	movwf	((c:Beep@frequency+1)),c
  8109  003334  6E4C               	movlw	low(01EDh)
  8110  003336  0EED               	movwf	((c:Beep@frequency)),c
  8111  003338  6E4B               	movlw	high(06Bh)
  8112  00333A  0E00               	movwf	((c:Beep@duration+1)),c
  8113  00333C  6E4E               	movlw	low(06Bh)
  8114  00333E  0E6B               	movwf	((c:Beep@duration)),c
  8115  003340  6E4D               	call	_Beep	;wreg free
  8116  003342  EC8E  F02B         	line	745
  8117                           ;main.c: 745:  sleep(111);
  8118                           	movlw	high(06h)
  8119  003346  0E00               	movwf	((c:sleep@ms+1)),c
  8120  003348  6E03               	movlw	low(06h)
  8121  00334A  0E06               	movwf	((c:sleep@ms)),c
  8122  00334C  6E02               	call	_sleep	;wreg free
  8123  00334E  ECF0  F02D         	line	746
  8124                           ;main.c: 746:  Beep(493, 187);
  8125                           	movlw	high(0187h)
  8126  003352  0E01               	movwf	((c:Beep@frequency+1)),c
  8127  003354  6E4C               	movlw	low(0187h)
  8128  003356  0E87               	movwf	((c:Beep@frequency)),c
  8129  003358  6E4B               	movlw	high(05Dh)
  8130  00335A  0E00               	movwf	((c:Beep@duration+1)),c
  8131  00335C  6E4E               	movlw	low(05Dh)
  8132  00335E  0E5D               	movwf	((c:Beep@duration)),c
  8133  003360  6E4D               	call	_Beep	;wreg free
  8134  003362  EC8E  F02B         	line	747
  8135                           ;main.c: 747:  sleep(49);
  8136                           	movlw	high(018h)
  8137  003366  0E00               	movwf	((c:sleep@ms+1)),c
  8138  003368  6E03               	movlw	low(018h)
  8139  00336A  0E18               	movwf	((c:sleep@ms)),c
  8140  00336C  6E02               	call	_sleep	;wreg free
  8141  00336E  ECF0  F02D         	line	748
  8142                           ;main.c: 748:  Beep(466, 99);
  8143                           	movlw	high(0149h)
  8144  003372  0E01               	movwf	((c:Beep@frequency+1)),c
  8145  003374  6E4C               	movlw	low(0149h)
  8146  003376  0E49               	movwf	((c:Beep@frequency)),c
  8147  003378  6E4B               	movlw	high(09Bh)
  8148  00337A  0E00               	movwf	((c:Beep@duration+1)),c
  8149  00337C  6E4E               	movlw	low(09Bh)
  8150  00337E  0E9B               	movwf	((c:Beep@duration)),c
  8151  003380  6E4D               	call	_Beep	;wreg free
  8152  003382  EC8E  F02B         	line	749
  8153                           ;main.c: 749:  sleep(25);
  8154                           	movlw	high(05Ah)
  8155  003386  0E00               	movwf	((c:sleep@ms+1)),c
  8156  003388  6E03               	movlw	low(05Ah)
  8157  00338A  0E5A               	movwf	((c:sleep@ms)),c
  8158  00338C  6E02               	call	_sleep	;wreg free
  8159  00338E  ECF0  F02D         	line	750
  8160                           ;main.c: 750:  Beep(554, 84);
  8161                           	movlw	high(030Fh)
  8162  003392  0E03               	movwf	((c:Beep@frequency+1)),c
  8163  003394  6E4C               	movlw	low(030Fh)
  8164  003396  0E0F               	movwf	((c:Beep@frequency)),c
  8165  003398  6E4B               	movlw	high(076h)
  8166  00339A  0E00               	movwf	((c:Beep@duration+1)),c
  8167  00339C  6E4E               	movlw	low(076h)
  8168  00339E  0E76               	movwf	((c:Beep@duration)),c
  8169  0033A0  6E4D               	call	_Beep	;wreg free
  8170  0033A2  EC8E  F02B         	line	751
  8171                           ;main.c: 751:  sleep(43);
  8172                           	movlw	high(0293h)
  8173  0033A6  0E02               	movwf	((c:Beep@frequency+1)),c
  8174  0033A8  6E4C               	movlw	low(0293h)
  8175  0033AA  0E93               	movwf	((c:Beep@frequency)),c
  8176  0033AC  6E4B               	movlw	high(049h)
  8177  0033AE  0E00               	movwf	((c:Beep@duration+1)),c
  8178  0033B0  6E4E               	movlw	low(049h)
  8179  0033B2  0E49               	movwf	((c:Beep@duration)),c
  8180  0033B4  6E4D               	call	_Beep	;wreg free
  8181  0033B6  EC8E  F02B         	line	752
  8182                           ;main.c: 752:  Beep(554, 157);
  8183                           	movlw	high(046h)
  8184  0033BA  0E00               	movwf	((c:sleep@ms+1)),c
  8185  0033BC  6E03               	movlw	low(046h)
  8186  0033BE  0E46               	movwf	((c:sleep@ms)),c
  8187  0033C0  6E02               	call	_sleep	;wreg free
  8188  0033C2  ECF0  F02D         	line	753
  8189                           ;main.c: 753:  sleep(92);
  8190                           	movlw	high(0A4h)
  8191  0033C6  0E00               	movwf	((c:Beep@frequency+1)),c
  8192  0033C8  6E4C               	movlw	low(0A4h)
  8193  0033CA  0EA4               	movwf	((c:Beep@frequency)),c
  8194  0033CC  6E4B               	movlw	high(0EDh)
  8195  0033CE  0E00               	movwf	((c:Beep@duration+1)),c
  8196  0033D0  6E4E               	movlw	low(0EDh)
  8197  0033D2  0EED               	movwf	((c:Beep@duration)),c
  8198  0033D4  6E4D               	call	_Beep	;wreg free
  8199  0033D6  EC8E  F02B         	line	754
  8200                           ;main.c: 754:  Beep(587, 89);
  8201                           	movlw	high(02h)
  8202  0033DA  0E00               	movwf	((c:sleep@ms+1)),c
  8203  0033DC  6E03               	movlw	low(02h)
  8204  0033DE  0E02               	movwf	((c:sleep@ms)),c
  8205  0033E0  6E02               	call	_sleep	;wreg free
  8206  0033E2  ECF0  F02D         	line	755
  8207                           ;main.c: 755:  sleep(20);
  8208                           	movlw	high(0149h)
  8209  0033E6  0E01               	movwf	((c:Beep@frequency+1)),c
  8210  0033E8  6E4C               	movlw	low(0149h)
  8211  0033EA  0E49               	movwf	((c:Beep@frequency)),c
  8212  0033EC  6E4B               	movlw	high(063h)
  8213  0033EE  0E00               	movwf	((c:Beep@duration+1)),c
  8214  0033F0  6E4E               	movlw	low(063h)
  8215  0033F2  0E63               	movwf	((c:Beep@duration)),c
  8216  0033F4  6E4D               	call	_Beep	;wreg free
  8217  0033F6  EC8E  F02B         	line	756
  8218                           ;main.c: 756:  Beep(554, 83);
  8219                           	movlw	high(04h)
  8220  0033FA  0E00               	movwf	((c:sleep@ms+1)),c
  8221  0033FC  6E03               	movlw	low(04h)
  8222  0033FE  0E04               	movwf	((c:sleep@ms)),c
  8223  003400  6E02               	call	_sleep	;wreg free
  8224  003402  ECF0  F02D         	line	757
  8225                           ;main.c: 757:  sleep(45);
  8226                           	movlw	high(0293h)
  8227  003406  0E02               	movwf	((c:Beep@frequency+1)),c
  8228  003408  6E4C               	movlw	low(0293h)
  8229  00340A  0E93               	movwf	((c:Beep@frequency)),c
  8230  00340C  6E4B               	movlw	high(040h)
  8231  00340E  0E00               	movwf	((c:Beep@duration+1)),c
  8232  003410  6E4E               	movlw	low(040h)
  8233  003412  0E40               	movwf	((c:Beep@duration)),c
  8234  003414  6E4D               	call	_Beep	;wreg free
  8235  003416  EC8E  F02B         	line	758
  8236                           ;main.c: 758:  Beep(493, 226);
  8237                           	movlw	high(03Ah)
  8238  00341A  0E00               	movwf	((c:sleep@ms+1)),c
  8239  00341C  6E03               	movlw	low(03Ah)
  8240  00341E  0E3A               	movwf	((c:sleep@ms)),c
  8241  003420  6E02               	call	_sleep	;wreg free
  8242  003422  ECF0  F02D         	line	759
  8243                           ;main.c: 759:  sleep(30);
  8244                           	movlw	high(020Bh)
  8245  003426  0E02               	movwf	((c:Beep@frequency+1)),c
  8246  003428  6E4C               	movlw	low(020Bh)
  8247  00342A  0E0B               	movwf	((c:Beep@frequency)),c
  8248  00342C  6E4B               	movlw	high(078h)
  8249  00342E  0E00               	movwf	((c:Beep@duration+1)),c
  8250  003430  6E4E               	movlw	low(078h)
  8251  003432  0E78               	movwf	((c:Beep@duration)),c
  8252  003434  6E4D               	call	_Beep	;wreg free
  8253  003436  EC8E  F02B         	line	760
  8254                           ;main.c: 760:  Beep(493, 108);
  8255                           	movlw	high(077h)
  8256  00343A  0E00               	movwf	((c:sleep@ms+1)),c
  8257  00343C  6E03               	movlw	low(077h)
  8258  00343E  0E77               	movwf	((c:sleep@ms)),c
  8259  003440  6E02               	call	_sleep	;wreg free
  8260  003442  ECF0  F02D         	line	761
  8261                           ;main.c: 761:  sleep(6);
  8262                           	movlw	high(020Bh)
  8263  003446  0E02               	movwf	((c:Beep@frequency+1)),c
  8264  003448  6E4C               	movlw	low(020Bh)
  8265  00344A  0E0B               	movwf	((c:Beep@frequency)),c
  8266  00344C  6E4B               	movlw	high(07Eh)
  8267  00344E  0E00               	movwf	((c:Beep@duration+1)),c
  8268  003450  6E4E               	movlw	low(07Eh)
  8269  003452  0E7E               	movwf	((c:Beep@duration)),c
  8270  003454  6E4D               	call	_Beep	;wreg free
  8271  003456  EC8E  F02B         	line	762
  8272                           ;main.c: 762:  Beep(246, 81);
  8273                           	movlw	high(07Bh)
  8274  00345A  0E00               	movwf	((c:sleep@ms+1)),c
  8275  00345C  6E03               	movlw	low(07Bh)
  8276  00345E  0E7B               	movwf	((c:sleep@ms)),c
  8277  003460  6E02               	call	_sleep	;wreg free
  8278  003462  ECF0  F02D         	line	763
  8279                           ;main.c: 763:  sleep(45);
  8280                           	movlw	high(01EDh)
  8281  003466  0E01               	movwf	((c:Beep@frequency+1)),c
  8282  003468  6E4C               	movlw	low(01EDh)
  8283  00346A  0EED               	movwf	((c:Beep@frequency)),c
  8284  00346C  6E4B               	movlw	high(0ECh)
  8285  00346E  0E00               	movwf	((c:Beep@duration+1)),c
  8286  003470  6E4E               	movlw	low(0ECh)
  8287  003472  0EEC               	movwf	((c:Beep@duration)),c
  8288  003474  6E4D               	call	_Beep	;wreg free
  8289  003476  EC8E  F02B         	line	764
  8290                           ;main.c: 764:  Beep(739, 125);
  8291                           	movlw	high(01D2h)
  8292  00347A  0E01               	movwf	((c:Beep@frequency+1)),c
  8293  00347C  6E4C               	movlw	low(01D2h)
  8294  00347E  0ED2               	movwf	((c:Beep@frequency)),c
  8295  003480  6E4B               	movlw	high(09Eh)
  8296  003482  0E00               	movwf	((c:Beep@duration+1)),c
  8297  003484  6E4E               	movlw	low(09Eh)
  8298  003486  0E9E               	movwf	((c:Beep@duration)),c
  8299  003488  6E4D               	call	_Beep	;wreg free
  8300  00348A  EC8E  F02B         	line	765
  8301                           ;main.c: 765:  sleep(6);
  8302                           	movlw	high(07Ah)
  8303  00348E  0E00               	movwf	((c:sleep@ms+1)),c
  8304  003490  6E03               	movlw	low(07Ah)
  8305  003492  0E7A               	movwf	((c:sleep@ms)),c
  8306  003494  6E02               	call	_sleep	;wreg free
  8307  003496  ECF0  F02D         	line	766
  8308                           ;main.c: 766:  Beep(493, 87);
  8309                           	movlw	high(0187h)
  8310  00349A  0E01               	movwf	((c:Beep@frequency+1)),c
  8311  00349C  6E4C               	movlw	low(0187h)
  8312  00349E  0E87               	movwf	((c:Beep@frequency)),c
  8313  0034A0  6E4B               	movlw	high(0E4h)
  8314  0034A2  0E00               	movwf	((c:Beep@duration+1)),c
  8315  0034A4  6E4E               	movlw	low(0E4h)
  8316  0034A6  0EE4               	movwf	((c:Beep@duration)),c
  8317  0034A8  6E4D               	call	_Beep	;wreg free
  8318  0034AA  EC8E  F02B         	line	767
  8319                           ;main.c: 767:  sleep(37);
  8320                           	movlw	high(01Bh)
  8321  0034AE  0E00               	movwf	((c:sleep@ms+1)),c
  8322  0034B0  6E03               	movlw	low(01Bh)
  8323  0034B2  0E1B               	movwf	((c:sleep@ms)),c
  8324  0034B4  6E02               	call	_sleep	;wreg free
  8325  0034B6  ECF0  F02D         	line	768
  8326                           ;main.c: 768:  Beep(587, 96);
  8327                           	movlw	high(0115h)
  8328  0034BA  0E01               	movwf	((c:Beep@frequency+1)),c
  8329  0034BC  6E4C               	movlw	low(0115h)
  8330  0034BE  0E15               	movwf	((c:Beep@frequency)),c
  8331  0034C0  6E4B               	movlw	high(079h)
  8332  0034C2  0E00               	movwf	((c:Beep@duration+1)),c
  8333  0034C4  6E4E               	movlw	low(079h)
  8334  0034C6  0E79               	movwf	((c:Beep@duration)),c
  8335  0034C8  6E4D               	call	_Beep	;wreg free
  8336  0034CA  EC8E  F02B         	line	769
  8337                           ;main.c: 769:  sleep(12);
  8338                           	movlw	high(06Fh)
  8339  0034CE  0E00               	movwf	((c:sleep@ms+1)),c
  8340  0034D0  6E03               	movlw	low(06Fh)
  8341  0034D2  0E6F               	movwf	((c:sleep@ms)),c
  8342  0034D4  6E02               	call	_sleep	;wreg free
  8343  0034D6  ECF0  F02D         	line	770
  8344                           ;main.c: 770:  Beep(739, 86);
  8345                           	movlw	high(01EDh)
  8346  0034DA  0E01               	movwf	((c:Beep@frequency+1)),c
  8347  0034DC  6E4C               	movlw	low(01EDh)
  8348  0034DE  0EED               	movwf	((c:Beep@frequency)),c
  8349  0034E0  6E4B               	movlw	high(0BBh)
  8350  0034E2  0E00               	movwf	((c:Beep@duration+1)),c
  8351  0034E4  6E4E               	movlw	low(0BBh)
  8352  0034E6  0EBB               	movwf	((c:Beep@duration)),c
  8353  0034E8  6E4D               	call	_Beep	;wreg free
  8354  0034EA  EC8E  F02B         	line	771
  8355                           ;main.c: 771:  sleep(46);
  8356                           	movlw	high(031h)
  8357  0034EE  0E00               	movwf	((c:sleep@ms+1)),c
  8358  0034F0  6E03               	movlw	low(031h)
  8359  0034F2  0E31               	movwf	((c:sleep@ms)),c
  8360  0034F4  6E02               	call	_sleep	;wreg free
  8361  0034F6  ECF0  F02D         	line	772
  8362                           ;main.c: 772:  Beep(987, 101);
  8363                           	movlw	high(01D2h)
  8364  0034FA  0E01               	movwf	((c:Beep@frequency+1)),c
  8365  0034FC  6E4C               	movlw	low(01D2h)
  8366  0034FE  0ED2               	movwf	((c:Beep@frequency)),c
  8367  003500  6E4B               	movlw	high(063h)
  8368  003502  0E00               	movwf	((c:Beep@duration+1)),c
  8369  003504  6E4E               	movlw	low(063h)
  8370  003506  0E63               	movwf	((c:Beep@duration)),c
  8371  003508  6E4D               	call	_Beep	;wreg free
  8372  00350A  EC8E  F02B         	line	773
  8373                           ;main.c: 773:  sleep(139);
  8374                           	movlw	high(019h)
  8375  00350E  0E00               	movwf	((c:sleep@ms+1)),c
  8376  003510  6E03               	movlw	low(019h)
  8377  003512  0E19               	movwf	((c:sleep@ms)),c
  8378  003514  6E02               	call	_sleep	;wreg free
  8379  003516  ECF0  F02D         	line	774
  8380                           ;main.c: 774:  Beep(123, 108);
  8381                           	movlw	high(022Ah)
  8382  00351A  0E02               	movwf	((c:Beep@frequency+1)),c
  8383  00351C  6E4C               	movlw	low(022Ah)
  8384  00351E  0E2A               	movwf	((c:Beep@frequency)),c
  8385  003520  6E4B               	movlw	high(054h)
  8386  003522  0E00               	movwf	((c:Beep@duration+1)),c
  8387  003524  6E4E               	movlw	low(054h)
  8388  003526  0E54               	movwf	((c:Beep@duration)),c
  8389  003528  6E4D               	call	_Beep	;wreg free
  8390  00352A  EC8E  F02B         	line	775
  8391                           ;main.c: 775:  sleep(125);
  8392                           	movlw	high(02Bh)
  8393  00352E  0E00               	movwf	((c:sleep@ms+1)),c
  8394  003530  6E03               	movlw	low(02Bh)
  8395  003532  0E2B               	movwf	((c:sleep@ms)),c
  8396  003534  6E02               	call	_sleep	;wreg free
  8397  003536  ECF0  F02D         	line	776
  8398                           ;main.c: 776:  Beep(184, 128);
  8399                           	movlw	high(022Ah)
  8400  00353A  0E02               	movwf	((c:Beep@frequency+1)),c
  8401  00353C  6E4C               	movlw	low(022Ah)
  8402  00353E  0E2A               	movwf	((c:Beep@frequency)),c
  8403  003540  6E4B               	movlw	high(09Dh)
  8404  003542  0E00               	movwf	((c:Beep@duration+1)),c
  8405  003544  6E4E               	movlw	low(09Dh)
  8406  003546  0E9D               	movwf	((c:Beep@duration)),c
  8407  003548  6E4D               	call	_Beep	;wreg free
  8408  00354A  EC8E  F02B         	line	777
  8409                           ;main.c: 777:  Beep(587, 116);
  8410                           	movlw	high(05Ch)
  8411  00354E  0E00               	movwf	((c:sleep@ms+1)),c
  8412  003550  6E03               	movlw	low(05Ch)
  8413  003552  0E5C               	movwf	((c:sleep@ms)),c
  8414  003554  6E02               	call	_sleep	;wreg free
  8415  003556  ECF0  F02D         	line	778
  8416                           ;main.c: 778:  sleep(22);
  8417                           	movlw	high(024Bh)
  8418  00355A  0E02               	movwf	((c:Beep@frequency+1)),c
  8419  00355C  6E4C               	movlw	low(024Bh)
  8420  00355E  0E4B               	movwf	((c:Beep@frequency)),c
  8421  003560  6E4B               	movlw	high(059h)
  8422  003562  0E00               	movwf	((c:Beep@duration+1)),c
  8423  003564  6E4E               	movlw	low(059h)
  8424  003566  0E59               	movwf	((c:Beep@duration)),c
  8425  003568  6E4D               	call	_Beep	;wreg free
  8426  00356A  EC8E  F02B         	line	779
  8427                           ;main.c: 779:  Beep(554, 90);
  8428                           	movlw	high(014h)
  8429  00356E  0E00               	movwf	((c:sleep@ms+1)),c
  8430  003570  6E03               	movlw	low(014h)
  8431  003572  0E14               	movwf	((c:sleep@ms)),c
  8432  003574  6E02               	call	_sleep	;wreg free
  8433  003576  ECF0  F02D         	line	780
  8434                           ;main.c: 780:  sleep(20);
  8435                           	movlw	high(022Ah)
  8436  00357A  0E02               	movwf	((c:Beep@frequency+1)),c
  8437  00357C  6E4C               	movlw	low(022Ah)
  8438  00357E  0E2A               	movwf	((c:Beep@frequency)),c
  8439  003580  6E4B               	movlw	high(053h)
  8440  003582  0E00               	movwf	((c:Beep@duration+1)),c
  8441  003584  6E4E               	movlw	low(053h)
  8442  003586  0E53               	movwf	((c:Beep@duration)),c
  8443  003588  6E4D               	call	_Beep	;wreg free
  8444  00358A  EC8E  F02B         	line	781
  8445                           ;main.c: 781:  Beep(587, 73);
  8446                           	movlw	high(02Dh)
  8447  00358E  0E00               	movwf	((c:sleep@ms+1)),c
  8448  003590  6E03               	movlw	low(02Dh)
  8449  003592  0E2D               	movwf	((c:sleep@ms)),c
  8450  003594  6E02               	call	_sleep	;wreg free
  8451  003596  ECF0  F02D         	line	782
  8452                           ;main.c: 782:  sleep(68);
  8453                           	movlw	high(01EDh)
  8454  00359A  0E01               	movwf	((c:Beep@frequency+1)),c
  8455  00359C  6E4C               	movlw	low(01EDh)
  8456  00359E  0EED               	movwf	((c:Beep@frequency)),c
  8457  0035A0  6E4B               	movlw	high(0E2h)
  8458  0035A2  0E00               	movwf	((c:Beep@duration+1)),c
  8459  0035A4  6E4E               	movlw	low(0E2h)
  8460  0035A6  0EE2               	movwf	((c:Beep@duration)),c
  8461  0035A8  6E4D               	call	_Beep	;wreg free
  8462  0035AA  EC8E  F02B         	line	783
  8463                           ;main.c: 783:  Beep(554, 256);
  8464                           	movlw	high(01Eh)
  8465  0035AE  0E00               	movwf	((c:sleep@ms+1)),c
  8466  0035B0  6E03               	movlw	low(01Eh)
  8467  0035B2  0E1E               	movwf	((c:sleep@ms)),c
  8468  0035B4  6E02               	call	_sleep	;wreg free
  8469  0035B6  ECF0  F02D         	line	784
  8470                           ;main.c: 784:  sleep(241);
  8471                           	movlw	high(01EDh)
  8472  0035BA  0E01               	movwf	((c:Beep@frequency+1)),c
  8473  0035BC  6E4C               	movlw	low(01EDh)
  8474  0035BE  0EED               	movwf	((c:Beep@frequency)),c
  8475  0035C0  6E4B               	movlw	high(06Ch)
  8476  0035C2  0E00               	movwf	((c:Beep@duration+1)),c
  8477  0035C4  6E4E               	movlw	low(06Ch)
  8478  0035C6  0E6C               	movwf	((c:Beep@duration)),c
  8479  0035C8  6E4D               	call	_Beep	;wreg free
  8480  0035CA  EC8E  F02B         	line	785
  8481                           ;main.c: 785:  Beep(440, 156);
  8482                           	movlw	high(06h)
  8483  0035CE  0E00               	movwf	((c:sleep@ms+1)),c
  8484  0035D0  6E03               	movlw	low(06h)
  8485  0035D2  0E06               	movwf	((c:sleep@ms)),c
  8486  0035D4  6E02               	call	_sleep	;wreg free
  8487  0035D6  ECF0  F02D         	line	786
  8488                           ;main.c: 786:  sleep(108);
  8489                           	movlw	high(0F6h)
  8490  0035DA  0E00               	movwf	((c:Beep@frequency+1)),c
  8491  0035DC  6E4C               	movlw	low(0F6h)
  8492  0035DE  0EF6               	movwf	((c:Beep@frequency)),c
  8493  0035E0  6E4B               	movlw	high(051h)
  8494  0035E2  0E00               	movwf	((c:Beep@duration+1)),c
  8495  0035E4  6E4E               	movlw	low(051h)
  8496  0035E6  0E51               	movwf	((c:Beep@duration)),c
  8497  0035E8  6E4D               	call	_Beep	;wreg free
  8498  0035EA  EC8E  F02B         	line	787
  8499                           ;main.c: 787:  Beep(880, 85);
  8500                           	movlw	high(02Dh)
  8501  0035EE  0E00               	movwf	((c:sleep@ms+1)),c
  8502  0035F0  6E03               	movlw	low(02Dh)
  8503  0035F2  0E2D               	movwf	((c:sleep@ms)),c
  8504  0035F4  6E02               	call	_sleep	;wreg free
  8505  0035F6  ECF0  F02D         	line	788
  8506                           ;main.c: 788:  sleep(39);
  8507                           	movlw	high(02E3h)
  8508  0035FA  0E02               	movwf	((c:Beep@frequency+1)),c
  8509  0035FC  6E4C               	movlw	low(02E3h)
  8510  0035FE  0EE3               	movwf	((c:Beep@frequency)),c
  8511  003600  6E4B               	movlw	high(07Dh)
  8512  003602  0E00               	movwf	((c:Beep@duration+1)),c
  8513  003604  6E4E               	movlw	low(07Dh)
  8514  003606  0E7D               	movwf	((c:Beep@duration)),c
  8515  003608  6E4D               	call	_Beep	;wreg free
  8516  00360A  EC8E  F02B         	line	789
  8517                           ;main.c: 789:  Beep(739, 54);
  8518                           	movlw	high(06h)
  8519  00360E  0E00               	movwf	((c:sleep@ms+1)),c
  8520  003610  6E03               	movlw	low(06h)
  8521  003612  0E06               	movwf	((c:sleep@ms)),c
  8522  003614  6E02               	call	_sleep	;wreg free
  8523  003616  ECF0  F02D         	line	790
  8524                           ;main.c: 790:  sleep(41);
  8525                           	movlw	high(01EDh)
  8526  00361A  0E01               	movwf	((c:Beep@frequency+1)),c
  8527  00361C  6E4C               	movlw	low(01EDh)
  8528  00361E  0EED               	movwf	((c:Beep@frequency)),c
  8529  003620  6E4B               	movlw	high(057h)
  8530  003622  0E00               	movwf	((c:Beep@duration+1)),c
  8531  003624  6E4E               	movlw	low(057h)
  8532  003626  0E57               	movwf	((c:Beep@duration)),c
  8533  003628  6E4D               	call	_Beep	;wreg free
  8534  00362A  EC8E  F02B         	line	791
  8535                           ;main.c: 791:  Beep(369, 170);
  8536                           	movlw	high(025h)
  8537  00362E  0E00               	movwf	((c:sleep@ms+1)),c
  8538  003630  6E03               	movlw	low(025h)
  8539  003632  0E25               	movwf	((c:sleep@ms)),c
  8540  003634  6E02               	call	_sleep	;wreg free
  8541  003636  ECF0  F02D         	line	792
  8542                           ;main.c: 792:  sleep(81);
  8543                           	movlw	high(024Bh)
  8544  00363A  0E02               	movwf	((c:Beep@frequency+1)),c
  8545  00363C  6E4C               	movlw	low(024Bh)
  8546  00363E  0E4B               	movwf	((c:Beep@frequency)),c
  8547  003640  6E4B               	movlw	high(060h)
  8548  003642  0E00               	movwf	((c:Beep@duration+1)),c
  8549  003644  6E4E               	movlw	low(060h)
  8550  003646  0E60               	movwf	((c:Beep@duration)),c
  8551  003648  6E4D               	call	_Beep	;wreg free
  8552  00364A  EC8E  F02B         	line	793
  8553                           ;main.c: 793:  Beep(92, 105);
  8554                           	movlw	high(0Ch)
  8555  00364E  0E00               	movwf	((c:sleep@ms+1)),c
  8556  003650  6E03               	movlw	low(0Ch)
  8557  003652  0E0C               	movwf	((c:sleep@ms)),c
  8558  003654  6E02               	call	_sleep	;wreg free
  8559  003656  ECF0  F02D         	line	794
  8560                           ;main.c: 794:  sleep(37);
  8561                           	movlw	high(02E3h)
  8562  00365A  0E02               	movwf	((c:Beep@frequency+1)),c
  8563  00365C  6E4C               	movlw	low(02E3h)
  8564  00365E  0EE3               	movwf	((c:Beep@frequency)),c
  8565  003660  6E4B               	movlw	high(056h)
  8566  003662  0E00               	movwf	((c:Beep@duration+1)),c
  8567  003664  6E4E               	movlw	low(056h)
  8568  003666  0E56               	movwf	((c:Beep@duration)),c
  8569  003668  6E4D               	call	_Beep	;wreg free
  8570  00366A  EC8E  F02B         	line	795
  8571                           ;main.c: 795:  Beep(554, 85);
  8572                           	movlw	high(02Eh)
  8573  00366E  0E00               	movwf	((c:sleep@ms+1)),c
  8574  003670  6E03               	movlw	low(02Eh)
  8575  003672  0E2E               	movwf	((c:sleep@ms)),c
  8576  003674  6E02               	call	_sleep	;wreg free
  8577  003676  ECF0  F02D         	line	796
  8578                           ;main.c: 796:  sleep(20);
  8579                           	movlw	high(03DBh)
  8580  00367A  0E03               	movwf	((c:Beep@frequency+1)),c
  8581  00367C  6E4C               	movlw	low(03DBh)
  8582  00367E  0EDB               	movwf	((c:Beep@frequency)),c
  8583  003680  6E4B               	movlw	high(065h)
  8584  003682  0E00               	movwf	((c:Beep@duration+1)),c
  8585  003684  6E4E               	movlw	low(065h)
  8586  003686  0E65               	movwf	((c:Beep@duration)),c
  8587  003688  6E4D               	call	_Beep	;wreg free
  8588  00368A  EC8E  F02B         	line	797
  8589                           ;main.c: 797:  Beep(440, 181);
  8590                           	movlw	high(08Bh)
  8591  00368E  0E00               	movwf	((c:sleep@ms+1)),c
  8592  003690  6E03               	movlw	low(08Bh)
  8593  003692  0E8B               	movwf	((c:sleep@ms)),c
  8594  003694  6E02               	call	_sleep	;wreg free
  8595  003696  ECF0  F02D         	line	798
  8596                           ;main.c: 798:  sleep(72);
  8597                           	movlw	high(07Bh)
  8598  00369A  0E00               	movwf	((c:Beep@frequency+1)),c
  8599  00369C  6E4C               	movlw	low(07Bh)
  8600  00369E  0E7B               	movwf	((c:Beep@frequency)),c
  8601  0036A0  6E4B               	movlw	high(06Ch)
  8602  0036A2  0E00               	movwf	((c:Beep@duration+1)),c
  8603  0036A4  6E4E               	movlw	low(06Ch)
  8604  0036A6  0E6C               	movwf	((c:Beep@duration)),c
  8605  0036A8  6E4D               	call	_Beep	;wreg free
  8606  0036AA  EC8E  F02B         	line	799
  8607                           ;main.c: 799:  Beep(110, 109);
  8608                           	movlw	high(07Dh)
  8609  0036AE  0E00               	movwf	((c:sleep@ms+1)),c
  8610  0036B0  6E03               	movlw	low(07Dh)
  8611  0036B2  0E7D               	movwf	((c:sleep@ms)),c
  8612  0036B4  6E02               	call	_sleep	;wreg free
  8613  0036B6  ECF0  F02D         	line	800
  8614                           ;main.c: 800:  sleep(6);
  8615                           	movlw	high(0B8h)
  8616  0036BA  0E00               	movwf	((c:Beep@frequency+1)),c
  8617  0036BC  6E4C               	movlw	low(0B8h)
  8618  0036BE  0EB8               	movwf	((c:Beep@frequency)),c
  8619  0036C0  6E4B               	movlw	high(080h)
  8620  0036C2  0E00               	movwf	((c:Beep@duration+1)),c
  8621  0036C4  6E4E               	movlw	low(080h)
  8622  0036C6  0E80               	movwf	((c:Beep@duration)),c
  8623  0036C8  6E4D               	call	_Beep	;wreg free
  8624  0036CA  EC8E  F02B         	line	801
  8625                           ;main.c: 801:  Beep(440, 102);
  8626                           	movlw	high(024Bh)
  8627  0036CE  0E02               	movwf	((c:Beep@frequency+1)),c
  8628  0036D0  6E4C               	movlw	low(024Bh)
  8629  0036D2  0E4B               	movwf	((c:Beep@frequency)),c
  8630  0036D4  6E4B               	movlw	high(074h)
  8631  0036D6  0E00               	movwf	((c:Beep@duration+1)),c
  8632  0036D8  6E4E               	movlw	low(074h)
  8633  0036DA  0E74               	movwf	((c:Beep@duration)),c
  8634  0036DC  6E4D               	call	_Beep	;wreg free
  8635  0036DE  EC8E  F02B         	line	802
  8636                           ;main.c: 802:  sleep(29);
  8637                           	movlw	high(016h)
  8638  0036E2  0E00               	movwf	((c:sleep@ms+1)),c
  8639  0036E4  6E03               	movlw	low(016h)
  8640  0036E6  0E16               	movwf	((c:sleep@ms)),c
  8641  0036E8  6E02               	call	_sleep	;wreg free
  8642  0036EA  ECF0  F02D         	line	803
  8643                           ;main.c: 803:  Beep(220, 174);
  8644                           	movlw	high(022Ah)
  8645  0036EE  0E02               	movwf	((c:Beep@frequency+1)),c
  8646  0036F0  6E4C               	movlw	low(022Ah)
  8647  0036F2  0E2A               	movwf	((c:Beep@frequency)),c
  8648  0036F4  6E4B               	movlw	high(05Ah)
  8649  0036F6  0E00               	movwf	((c:Beep@duration+1)),c
  8650  0036F8  6E4E               	movlw	low(05Ah)
  8651  0036FA  0E5A               	movwf	((c:Beep@duration)),c
  8652  0036FC  6E4D               	call	_Beep	;wreg free
  8653  0036FE  EC8E  F02B         	line	804
  8654                           ;main.c: 804:  sleep(77);
  8655                           	movlw	high(014h)
  8656  003702  0E00               	movwf	((c:sleep@ms+1)),c
  8657  003704  6E03               	movlw	low(014h)
  8658  003706  0E14               	movwf	((c:sleep@ms)),c
  8659  003708  6E02               	call	_sleep	;wreg free
  8660  00370A  ECF0  F02D         	line	805
  8661                           ;main.c: 805:  Beep(220, 94);
  8662                           	movlw	high(024Bh)
  8663  00370E  0E02               	movwf	((c:Beep@frequency+1)),c
  8664  003710  6E4C               	movlw	low(024Bh)
  8665  003712  0E4B               	movwf	((c:Beep@frequency)),c
  8666  003714  6E4B               	movlw	high(049h)
  8667  003716  0E00               	movwf	((c:Beep@duration+1)),c
  8668  003718  6E4E               	movlw	low(049h)
  8669  00371A  0E49               	movwf	((c:Beep@duration)),c
  8670  00371C  6E4D               	call	_Beep	;wreg free
  8671  00371E  EC8E  F02B         	line	806
  8672                           ;main.c: 806:  Beep(184, 91);
  8673                           	movlw	high(044h)
  8674  003722  0E00               	movwf	((c:sleep@ms+1)),c
  8675  003724  6E03               	movlw	low(044h)
  8676  003726  0E44               	movwf	((c:sleep@ms)),c
  8677  003728  6E02               	call	_sleep	;wreg free
  8678  00372A  ECF0  F02D         	line	807
  8679                           ;main.c: 807:  sleep(56);
  8680                           	movlw	high(022Ah)
  8681  00372E  0E02               	movwf	((c:Beep@frequency+1)),c
  8682  003730  6E4C               	movlw	low(022Ah)
  8683  003732  0E2A               	movwf	((c:Beep@frequency)),c
  8684  003734  6E4B               	movlw	high(0100h)
  8685  003736  0E01               	movwf	((c:Beep@duration+1)),c
  8686  003738  6E4E               	movlw	low(0100h)
  8687  00373A  0E00               	movwf	((c:Beep@duration)),c
  8688  00373C  6E4D               	call	_Beep	;wreg free
  8689  00373E  EC8E  F02B         	line	808
  8690                           ;main.c: 808:  Beep(369, 186);
  8691                           	movlw	high(0F1h)
  8692  003742  0E00               	movwf	((c:sleep@ms+1)),c
  8693  003744  6E03               	movlw	low(0F1h)
  8694  003746  0EF1               	movwf	((c:sleep@ms)),c
  8695  003748  6E02               	call	_sleep	;wreg free
  8696  00374A  ECF0  F02D         	line	809
  8697                           ;main.c: 809:  sleep(60);
  8698                           	movlw	high(01B8h)
  8699  00374E  0E01               	movwf	((c:Beep@frequency+1)),c
  8700  003750  6E4C               	movlw	low(01B8h)
  8701  003752  0EB8               	movwf	((c:Beep@frequency)),c
  8702  003754  6E4B               	movlw	high(09Ch)
  8703  003756  0E00               	movwf	((c:Beep@duration+1)),c
  8704  003758  6E4E               	movlw	low(09Ch)
  8705  00375A  0E9C               	movwf	((c:Beep@duration)),c
  8706  00375C  6E4D               	call	_Beep	;wreg free
  8707  00375E  EC8E  F02B         	line	810
  8708                           ;main.c: 810:  Beep(493, 159);
  8709                           	movlw	high(06Ch)
  8710  003762  0E00               	movwf	((c:sleep@ms+1)),c
  8711  003764  6E03               	movlw	low(06Ch)
  8712  003766  0E6C               	movwf	((c:sleep@ms)),c
  8713  003768  6E02               	call	_sleep	;wreg free
  8714  00376A  ECF0  F02D         	line	811
  8715                           ;main.c: 811:  sleep(86);
  8716                           	movlw	high(0370h)
  8717  00376E  0E03               	movwf	((c:Beep@frequency+1)),c
  8718  003770  6E4C               	movlw	low(0370h)
  8719  003772  0E70               	movwf	((c:Beep@frequency)),c
  8720  003774  6E4B               	movlw	high(055h)
  8721  003776  0E00               	movwf	((c:Beep@duration+1)),c
  8722  003778  6E4E               	movlw	low(055h)
  8723  00377A  0E55               	movwf	((c:Beep@duration)),c
  8724  00377C  6E4D               	call	_Beep	;wreg free
  8725  00377E  EC8E  F02B         	line	812
  8726                           ;main.c: 812:  Beep(123, 218);
  8727                           	movlw	high(027h)
  8728  003782  0E00               	movwf	((c:sleep@ms+1)),c
  8729  003784  6E03               	movlw	low(027h)
  8730  003786  0E27               	movwf	((c:sleep@ms)),c
  8731  003788  6E02               	call	_sleep	;wreg free
  8732  00378A  ECF0  F02D         	line	813
  8733                           ;main.c: 813:  sleep(32);
  8734                           	movlw	high(02E3h)
  8735  00378E  0E02               	movwf	((c:Beep@frequency+1)),c
  8736  003790  6E4C               	movlw	low(02E3h)
  8737  003792  0EE3               	movwf	((c:Beep@frequency)),c
  8738  003794  6E4B               	movlw	high(036h)
  8739  003796  0E00               	movwf	((c:Beep@duration+1)),c
  8740  003798  6E4E               	movlw	low(036h)
  8741  00379A  0E36               	movwf	((c:Beep@duration)),c
  8742  00379C  6E4D               	call	_Beep	;wreg free
  8743  00379E  EC8E  F02B         	line	814
  8744                           ;main.c: 814:  Beep(123, 207);
  8745                           	movlw	high(029h)
  8746  0037A2  0E00               	movwf	((c:sleep@ms+1)),c
  8747  0037A4  6E03               	movlw	low(029h)
  8748  0037A6  0E29               	movwf	((c:sleep@ms)),c
  8749  0037A8  6E02               	call	_sleep	;wreg free
  8750  0037AA  ECF0  F02D         	line	815
  8751                           ;main.c: 815:  sleep(41);
  8752                           	movlw	high(0171h)
  8753  0037AE  0E01               	movwf	((c:Beep@frequency+1)),c
  8754  0037B0  6E4C               	movlw	low(0171h)
  8755  0037B2  0E71               	movwf	((c:Beep@frequency)),c
  8756  0037B4  6E4B               	movlw	high(0AAh)
  8757  0037B6  0E00               	movwf	((c:Beep@duration+1)),c
  8758  0037B8  6E4E               	movlw	low(0AAh)
  8759  0037BA  0EAA               	movwf	((c:Beep@duration)),c
  8760  0037BC  6E4D               	call	_Beep	;wreg free
  8761  0037BE  EC8E  F02B         	line	816
  8762                           ;main.c: 816:  Beep(123, 181);
  8763                           	movlw	high(051h)
  8764  0037C2  0E00               	movwf	((c:sleep@ms+1)),c
  8765  0037C4  6E03               	movlw	low(051h)
  8766  0037C6  0E51               	movwf	((c:sleep@ms)),c
  8767  0037C8  6E02               	call	_sleep	;wreg free
  8768  0037CA  ECF0  F02D         	line	817
  8769                           ;main.c: 817:  sleep(47);
  8770                           	movlw	high(05Ch)
  8771  0037CE  0E00               	movwf	((c:Beep@frequency+1)),c
  8772  0037D0  6E4C               	movlw	low(05Ch)
  8773  0037D2  0E5C               	movwf	((c:Beep@frequency)),c
  8774  0037D4  6E4B               	movlw	high(069h)
  8775  0037D6  0E00               	movwf	((c:Beep@duration+1)),c
  8776  0037D8  6E4E               	movlw	low(069h)
  8777  0037DA  0E69               	movwf	((c:Beep@duration)),c
  8778  0037DC  6E4D               	call	_Beep	;wreg free
  8779  0037DE  EC8E  F02B         	line	818
  8780                           ;main.c: 818:  Beep(123, 163);
  8781                           	movlw	high(025h)
  8782  0037E2  0E00               	movwf	((c:sleep@ms+1)),c
  8783  0037E4  6E03               	movlw	low(025h)
  8784  0037E6  0E25               	movwf	((c:sleep@ms)),c
  8785  0037E8  6E02               	call	_sleep	;wreg free
  8786  0037EA  ECF0  F02D         	line	819
  8787                           ;main.c: 819:  sleep(93);
  8788                           	movlw	high(022Ah)
  8789  0037EE  0E02               	movwf	((c:Beep@frequency+1)),c
  8790  0037F0  6E4C               	movlw	low(022Ah)
  8791  0037F2  0E2A               	movwf	((c:Beep@frequency)),c
  8792  0037F4  6E4B               	movlw	high(055h)
  8793  0037F6  0E00               	movwf	((c:Beep@duration+1)),c
  8794  0037F8  6E4E               	movlw	low(055h)
  8795  0037FA  0E55               	movwf	((c:Beep@duration)),c
  8796  0037FC  6E4D               	call	_Beep	;wreg free
  8797  0037FE  EC8E  F02B         	line	820
  8798                           ;main.c: 820:  Beep(164, 167);
  8799                           	movlw	high(014h)
  8800  003802  0E00               	movwf	((c:sleep@ms+1)),c
  8801  003804  6E03               	movlw	low(014h)
  8802  003806  0E14               	movwf	((c:sleep@ms)),c
  8803  003808  6E02               	call	_sleep	;wreg free
  8804  00380A  ECF0  F02D         	line	821
  8805                           ;main.c: 821:  sleep(74);
  8806                           	movlw	high(01B8h)
  8807  00380E  0E01               	movwf	((c:Beep@frequency+1)),c
  8808  003810  6E4C               	movlw	low(01B8h)
  8809  003812  0EB8               	movwf	((c:Beep@frequency)),c
  8810  003814  6E4B               	movlw	high(0B5h)
  8811  003816  0E00               	movwf	((c:Beep@duration+1)),c
  8812  003818  6E4E               	movlw	low(0B5h)
  8813  00381A  0EB5               	movwf	((c:Beep@duration)),c
  8814  00381C  6E4D               	call	_Beep	;wreg free
  8815  00381E  EC8E  F02B         	line	822
  8816                           ;main.c: 822:  Beep(246, 106);
  8817                           	movlw	high(048h)
  8818  003822  0E00               	movwf	((c:sleep@ms+1)),c
  8819  003824  6E03               	movlw	low(048h)
  8820  003826  0E48               	movwf	((c:sleep@ms)),c
  8821  003828  6E02               	call	_sleep	;wreg free
  8822  00382A  ECF0  F02D         	line	823
  8823                           ;main.c: 823:  sleep(6);
  8824                           	movlw	high(06Eh)
  8825  00382E  0E00               	movwf	((c:Beep@frequency+1)),c
  8826  003830  6E4C               	movlw	low(06Eh)
  8827  003832  0E6E               	movwf	((c:Beep@frequency)),c
  8828  003834  6E4B               	movlw	high(06Dh)
  8829  003836  0E00               	movwf	((c:Beep@duration+1)),c
  8830  003838  6E4E               	movlw	low(06Dh)
  8831  00383A  0E6D               	movwf	((c:Beep@duration)),c
  8832  00383C  6E4D               	call	_Beep	;wreg free
  8833  00383E  EC8E  F02B         	line	824
  8834                           ;main.c: 824:  Beep(195, 89);
  8835                           	movlw	high(06h)
  8836  003842  0E00               	movwf	((c:sleep@ms+1)),c
  8837  003844  6E03               	movlw	low(06h)
  8838  003846  0E06               	movwf	((c:sleep@ms)),c
  8839  003848  6E02               	call	_sleep	;wreg free
  8840  00384A  ECF0  F02D         	line	825
  8841                           ;main.c: 825:  sleep(45);
  8842                           	movlw	high(01B8h)
  8843  00384E  0E01               	movwf	((c:Beep@frequency+1)),c
  8844  003850  6E4C               	movlw	low(01B8h)
  8845  003852  0EB8               	movwf	((c:Beep@frequency)),c
  8846  003854  6E4B               	movlw	high(066h)
  8847  003856  0E00               	movwf	((c:Beep@duration+1)),c
  8848  003858  6E4E               	movlw	low(066h)
  8849  00385A  0E66               	movwf	((c:Beep@duration)),c
  8850  00385C  6E4D               	call	_Beep	;wreg free
  8851  00385E  EC8E  F02B         	line	826
  8852                           ;main.c: 826:  Beep(164, 187);
  8853                           	movlw	high(01Dh)
  8854  003862  0E00               	movwf	((c:sleep@ms+1)),c
  8855  003864  6E03               	movlw	low(01Dh)
  8856  003866  0E1D               	movwf	((c:sleep@ms)),c
  8857  003868  6E02               	call	_sleep	;wreg free
  8858  00386A  ECF0  F02D         	line	827
  8859                           ;main.c: 827:  sleep(63);
  8860                           	movlw	high(0DCh)
  8861  00386E  0E00               	movwf	((c:Beep@frequency+1)),c
  8862  003870  6E4C               	movlw	low(0DCh)
  8863  003872  0EDC               	movwf	((c:Beep@frequency)),c
  8864  003874  6E4B               	movlw	high(0AEh)
  8865  003876  0E00               	movwf	((c:Beep@duration+1)),c
  8866  003878  6E4E               	movlw	low(0AEh)
  8867  00387A  0EAE               	movwf	((c:Beep@duration)),c
  8868  00387C  6E4D               	call	_Beep	;wreg free
  8869  00387E  EC8E  F02B         	line	828
  8870                           ;main.c: 828:  Beep(195, 111);
  8871                           	movlw	high(04Dh)
  8872  003882  0E00               	movwf	((c:sleep@ms+1)),c
  8873  003884  6E03               	movlw	low(04Dh)
  8874  003886  0E4D               	movwf	((c:sleep@ms)),c
  8875  003888  6E02               	call	_sleep	;wreg free
  8876  00388A  ECF0  F02D         	line	829
  8877                           ;main.c: 829:  sleep(22);
  8878                           	movlw	high(0DCh)
  8879  00388E  0E00               	movwf	((c:Beep@frequency+1)),c
  8880  003890  6E4C               	movlw	low(0DCh)
  8881  003892  0EDC               	movwf	((c:Beep@frequency)),c
  8882  003894  6E4B               	movlw	high(05Eh)
  8883  003896  0E00               	movwf	((c:Beep@duration+1)),c
  8884  003898  6E4E               	movlw	low(05Eh)
  8885  00389A  0E5E               	movwf	((c:Beep@duration)),c
  8886  00389C  6E4D               	call	_Beep	;wreg free
  8887  00389E  EC8E  F02B         	line	830
  8888                           ;main.c: 830:  Beep(783, 70);
  8889                           	movlw	high(0B8h)
  8890  0038A2  0E00               	movwf	((c:Beep@frequency+1)),c
  8891  0038A4  6E4C               	movlw	low(0B8h)
  8892  0038A6  0EB8               	movwf	((c:Beep@frequency)),c
  8893  0038A8  6E4B               	movlw	high(05Bh)
  8894  0038AA  0E00               	movwf	((c:Beep@duration+1)),c
  8895  0038AC  6E4E               	movlw	low(05Bh)
  8896  0038AE  0E5B               	movwf	((c:Beep@duration)),c
  8897  0038B0  6E4D               	call	_Beep	;wreg free
  8898  0038B2  EC8E  F02B         	line	831
  8899                           ;main.c: 831:  sleep(54);
  8900                           	movlw	high(038h)
  8901  0038B6  0E00               	movwf	((c:sleep@ms+1)),c
  8902  0038B8  6E03               	movlw	low(038h)
  8903  0038BA  0E38               	movwf	((c:sleep@ms)),c
  8904  0038BC  6E02               	call	_sleep	;wreg free
  8905  0038BE  ECF0  F02D         	line	832
  8906                           ;main.c: 832:  Beep(138, 155);
  8907                           	movlw	high(0171h)
  8908  0038C2  0E01               	movwf	((c:Beep@frequency+1)),c
  8909  0038C4  6E4C               	movlw	low(0171h)
  8910  0038C6  0E71               	movwf	((c:Beep@frequency)),c
  8911  0038C8  6E4B               	movlw	high(0BAh)
  8912  0038CA  0E00               	movwf	((c:Beep@duration+1)),c
  8913  0038CC  6E4E               	movlw	low(0BAh)
  8914  0038CE  0EBA               	movwf	((c:Beep@duration)),c
  8915  0038D0  6E4D               	call	_Beep	;wreg free
  8916  0038D2  EC8E  F02B         	line	833
  8917                           ;main.c: 833:  sleep(109);
  8918                           	movlw	high(03Ch)
  8919  0038D6  0E00               	movwf	((c:sleep@ms+1)),c
  8920  0038D8  6E03               	movlw	low(03Ch)
  8921  0038DA  0E3C               	movwf	((c:sleep@ms)),c
  8922  0038DC  6E02               	call	_sleep	;wreg free
  8923  0038DE  ECF0  F02D         	line	834
  8924                           ;main.c: 834:  Beep(110, 143);
  8925                           	movlw	high(01EDh)
  8926  0038E2  0E01               	movwf	((c:Beep@frequency+1)),c
  8927  0038E4  6E4C               	movlw	low(01EDh)
  8928  0038E6  0EED               	movwf	((c:Beep@frequency)),c
  8929  0038E8  6E4B               	movlw	high(09Fh)
  8930  0038EA  0E00               	movwf	((c:Beep@duration+1)),c
  8931  0038EC  6E4E               	movlw	low(09Fh)
  8932  0038EE  0E9F               	movwf	((c:Beep@duration)),c
  8933  0038F0  6E4D               	call	_Beep	;wreg free
  8934  0038F2  EC8E  F02B         	line	835
  8935                           ;main.c: 835:  sleep(88);
  8936                           	movlw	high(056h)
  8937  0038F6  0E00               	movwf	((c:sleep@ms+1)),c
  8938  0038F8  6E03               	movlw	low(056h)
  8939  0038FA  0E56               	movwf	((c:sleep@ms)),c
  8940  0038FC  6E02               	call	_sleep	;wreg free
  8941  0038FE  ECF0  F02D         	line	836
  8942                           ;main.c: 836:  Beep(659, 183);
  8943                           	movlw	high(07Bh)
  8944  003902  0E00               	movwf	((c:Beep@frequency+1)),c
  8945  003904  6E4C               	movlw	low(07Bh)
  8946  003906  0E7B               	movwf	((c:Beep@frequency)),c
  8947  003908  6E4B               	movlw	high(0DAh)
  8948  00390A  0E00               	movwf	((c:Beep@duration+1)),c
  8949  00390C  6E4E               	movlw	low(0DAh)
  8950  00390E  0EDA               	movwf	((c:Beep@duration)),c
  8951  003910  6E4D               	call	_Beep	;wreg free
  8952  003912  EC8E  F02B         	line	837
  8953                           ;main.c: 837:  sleep(67);
  8954                           	movlw	high(020h)
  8955  003916  0E00               	movwf	((c:sleep@ms+1)),c
  8956  003918  6E03               	movlw	low(020h)
  8957  00391A  0E20               	movwf	((c:sleep@ms)),c
  8958  00391C  6E02               	call	_sleep	;wreg free
  8959  00391E  ECF0  F02D         	line	838
  8960                           ;main.c: 838:  Beep(138, 126);
  8961                           	movlw	high(07Bh)
  8962  003922  0E00               	movwf	((c:Beep@frequency+1)),c
  8963  003924  6E4C               	movlw	low(07Bh)
  8964  003926  0E7B               	movwf	((c:Beep@frequency)),c
  8965  003928  6E4B               	movlw	high(0CFh)
  8966  00392A  0E00               	movwf	((c:Beep@duration+1)),c
  8967  00392C  6E4E               	movlw	low(0CFh)
  8968  00392E  0ECF               	movwf	((c:Beep@duration)),c
  8969  003930  6E4D               	call	_Beep	;wreg free
  8970  003932  EC8E  F02B         	line	839
  8971                           ;main.c: 839:  sleep(132);
  8972                           	movlw	high(029h)
  8973  003936  0E00               	movwf	((c:sleep@ms+1)),c
  8974  003938  6E03               	movlw	low(029h)
  8975  00393A  0E29               	movwf	((c:sleep@ms)),c
  8976  00393C  6E02               	call	_sleep	;wreg free
  8977  00393E  ECF0  F02D         	line	840
  8978                           ;main.c: 840:  Beep(329, 196);
  8979                           	movlw	high(07Bh)
  8980  003942  0E00               	movwf	((c:Beep@frequency+1)),c
  8981  003944  6E4C               	movlw	low(07Bh)
  8982  003946  0E7B               	movwf	((c:Beep@frequency)),c
  8983  003948  6E4B               	movlw	high(0B5h)
  8984  00394A  0E00               	movwf	((c:Beep@duration+1)),c
  8985  00394C  6E4E               	movlw	low(0B5h)
  8986  00394E  0EB5               	movwf	((c:Beep@duration)),c
  8987  003950  6E4D               	call	_Beep	;wreg free
  8988  003952  EC8E  F02B         	line	841
  8989                           ;main.c: 841:  sleep(43);
  8990                           	movlw	high(02Fh)
  8991  003956  0E00               	movwf	((c:sleep@ms+1)),c
  8992  003958  6E03               	movlw	low(02Fh)
  8993  00395A  0E2F               	movwf	((c:sleep@ms)),c
  8994  00395C  6E02               	call	_sleep	;wreg free
  8995  00395E  ECF0  F02D         	line	842
  8996                           ;main.c: 842:  Beep(164, 170);
  8997                           	movlw	high(07Bh)
  8998  003962  0E00               	movwf	((c:Beep@frequency+1)),c
  8999  003964  6E4C               	movlw	low(07Bh)
  9000  003966  0E7B               	movwf	((c:Beep@frequency)),c
  9001  003968  6E4B               	movlw	high(0A3h)
  9002  00396A  0E00               	movwf	((c:Beep@duration+1)),c
  9003  00396C  6E4E               	movlw	low(0A3h)
  9004  00396E  0EA3               	movwf	((c:Beep@duration)),c
  9005  003970  6E4D               	call	_Beep	;wreg free
  9006  003972  EC8E  F02B         	line	843
  9007                           ;main.c: 843:  sleep(81);
  9008                           	movlw	high(05Dh)
  9009  003976  0E00               	movwf	((c:sleep@ms+1)),c
  9010  003978  6E03               	movlw	low(05Dh)
  9011  00397A  0E5D               	movwf	((c:sleep@ms)),c
  9012  00397C  6E02               	call	_sleep	;wreg free
  9013  00397E  ECF0  F02D         	line	844
  9014                           ;main.c: 844:  Beep(184, 150);
  9015                           	movlw	high(0A4h)
  9016  003982  0E00               	movwf	((c:Beep@frequency+1)),c
  9017  003984  6E4C               	movlw	low(0A4h)
  9018  003986  0EA4               	movwf	((c:Beep@frequency)),c
  9019  003988  6E4B               	movlw	high(0A7h)
  9020  00398A  0E00               	movwf	((c:Beep@duration+1)),c
  9021  00398C  6E4E               	movlw	low(0A7h)
  9022  00398E  0EA7               	movwf	((c:Beep@duration)),c
  9023  003990  6E4D               	call	_Beep	;wreg free
  9024  003992  EC8E  F02B         	line	845
  9025                           ;main.c: 845:  sleep(91);
  9026                           	movlw	high(04Ah)
  9027  003996  0E00               	movwf	((c:sleep@ms+1)),c
  9028  003998  6E03               	movlw	low(04Ah)
  9029  00399A  0E4A               	movwf	((c:sleep@ms)),c
  9030  00399C  6E02               	call	_sleep	;wreg free
  9031  00399E  ECF0  F02D         	line	846
  9032                           ;main.c: 846:  Beep(739, 62);
  9033                           	movlw	high(0F6h)
  9034  0039A2  0E00               	movwf	((c:Beep@frequency+1)),c
  9035  0039A4  6E4C               	movlw	low(0F6h)
  9036  0039A6  0EF6               	movwf	((c:Beep@frequency)),c
  9037  0039A8  6E4B               	movlw	high(06Ah)
  9038  0039AA  0E00               	movwf	((c:Beep@duration+1)),c
  9039  0039AC  6E4E               	movlw	low(06Ah)
  9040  0039AE  0E6A               	movwf	((c:Beep@duration)),c
  9041  0039B0  6E4D               	call	_Beep	;wreg free
  9042  0039B2  EC8E  F02B         	line	847
  9043                           ;main.c: 847:  sleep(58);
  9044                           	movlw	high(06h)
  9045  0039B6  0E00               	movwf	((c:sleep@ms+1)),c
  9046  0039B8  6E03               	movlw	low(06h)
  9047  0039BA  0E06               	movwf	((c:sleep@ms)),c
  9048  0039BC  6E02               	call	_sleep	;wreg free
  9049  0039BE  ECF0  F02D         	line	848
  9050                           ;main.c: 848:  Beep(587, 78);
  9051                           	movlw	high(0C3h)
  9052  0039C2  0E00               	movwf	((c:Beep@frequency+1)),c
  9053  0039C4  6E4C               	movlw	low(0C3h)
  9054  0039C6  0EC3               	movwf	((c:Beep@frequency)),c
  9055  0039C8  6E4B               	movlw	high(059h)
  9056  0039CA  0E00               	movwf	((c:Beep@duration+1)),c
  9057  0039CC  6E4E               	movlw	low(059h)
  9058  0039CE  0E59               	movwf	((c:Beep@duration)),c
  9059  0039D0  6E4D               	call	_Beep	;wreg free
  9060  0039D2  EC8E  F02B         	line	849
  9061                           ;main.c: 849:  sleep(47);
  9062                           	movlw	high(02Dh)
  9063  0039D6  0E00               	movwf	((c:sleep@ms+1)),c
  9064  0039D8  6E03               	movlw	low(02Dh)
  9065  0039DA  0E2D               	movwf	((c:sleep@ms)),c
  9066  0039DC  6E02               	call	_sleep	;wreg free
  9067  0039DE  ECF0  F02D         	line	850
  9068                           ;main.c: 850:  Beep(493, 113);
  9069                           	movlw	high(0A4h)
  9070  0039E2  0E00               	movwf	((c:Beep@frequency+1)),c
  9071  0039E4  6E4C               	movlw	low(0A4h)
  9072  0039E6  0EA4               	movwf	((c:Beep@frequency)),c
  9073  0039E8  6E4B               	movlw	high(0BBh)
  9074  0039EA  0E00               	movwf	((c:Beep@duration+1)),c
  9075  0039EC  6E4E               	movlw	low(0BBh)
  9076  0039EE  0EBB               	movwf	((c:Beep@duration)),c
  9077  0039F0  6E4D               	call	_Beep	;wreg free
  9078  0039F2  EC8E  F02B         	line	851
  9079                           ;main.c: 851:  sleep(18);
  9080                           	movlw	high(03Fh)
  9081  0039F6  0E00               	movwf	((c:sleep@ms+1)),c
  9082  0039F8  6E03               	movlw	low(03Fh)
  9083  0039FA  0E3F               	movwf	((c:sleep@ms)),c
  9084  0039FC  6E02               	call	_sleep	;wreg free
  9085  0039FE  ECF0  F02D         	line	852
  9086                           ;main.c: 852:  Beep(587, 78);
  9087                           	movlw	high(0C3h)
  9088  003A02  0E00               	movwf	((c:Beep@frequency+1)),c
  9089  003A04  6E4C               	movlw	low(0C3h)
  9090  003A06  0EC3               	movwf	((c:Beep@frequency)),c
  9091  003A08  6E4B               	movlw	high(06Fh)
  9092  003A0A  0E00               	movwf	((c:Beep@duration+1)),c
  9093  003A0C  6E4E               	movlw	low(06Fh)
  9094  003A0E  0E6F               	movwf	((c:Beep@duration)),c
  9095  003A10  6E4D               	call	_Beep	;wreg free
  9096  003A12  EC8E  F02B         	line	853
  9097                           ;main.c: 853:  sleep(27);
  9098                           	movlw	high(016h)
  9099  003A16  0E00               	movwf	((c:sleep@ms+1)),c
  9100  003A18  6E03               	movlw	low(016h)
  9101  003A1A  0E16               	movwf	((c:sleep@ms)),c
  9102  003A1C  6E02               	call	_sleep	;wreg free
  9103  003A1E  ECF0  F02D         	line	854
  9104                           ;main.c: 854:  Beep(391, 128);
  9105                           	movlw	high(030Fh)
  9106  003A22  0E03               	movwf	((c:Beep@frequency+1)),c
  9107  003A24  6E4C               	movlw	low(030Fh)
  9108  003A26  0E0F               	movwf	((c:Beep@frequency)),c
  9109  003A28  6E4B               	movlw	high(046h)
  9110  003A2A  0E00               	movwf	((c:Beep@duration+1)),c
  9111  003A2C  6E4E               	movlw	low(046h)
  9112  003A2E  0E46               	movwf	((c:Beep@duration)),c
  9113  003A30  6E4D               	call	_Beep	;wreg free
  9114  003A32  EC8E  F02B         	line	855
  9115                           ;main.c: 855:  sleep(4);
  9116                           	movlw	high(036h)
  9117  003A36  0E00               	movwf	((c:sleep@ms+1)),c
  9118  003A38  6E03               	movlw	low(036h)
  9119  003A3A  0E36               	movwf	((c:sleep@ms)),c
  9120  003A3C  6E02               	call	_sleep	;wreg free
  9121  003A3E  ECF0  F02D         	line	856
  9122                           ;main.c: 856:  Beep(587, 107);
  9123                           	movlw	high(08Ah)
  9124  003A42  0E00               	movwf	((c:Beep@frequency+1)),c
  9125  003A44  6E4C               	movlw	low(08Ah)
  9126  003A46  0E8A               	movwf	((c:Beep@frequency)),c
  9127  003A48  6E4B               	movlw	high(09Bh)
  9128  003A4A  0E00               	movwf	((c:Beep@duration+1)),c
  9129  003A4C  6E4E               	movlw	low(09Bh)
  9130  003A4E  0E9B               	movwf	((c:Beep@duration)),c
  9131  003A50  6E4D               	call	_Beep	;wreg free
  9132  003A52  EC8E  F02B         	line	857
  9133                           ;main.c: 857:  sleep(14);
  9134                           	movlw	high(06Dh)
  9135  003A56  0E00               	movwf	((c:sleep@ms+1)),c
  9136  003A58  6E03               	movlw	low(06Dh)
  9137  003A5A  0E6D               	movwf	((c:sleep@ms)),c
  9138  003A5C  6E02               	call	_sleep	;wreg free
  9139  003A5E  ECF0  F02D         	line	858
  9140                           ;main.c: 858:  Beep(220, 131);
  9141                           	movlw	high(06Eh)
  9142  003A62  0E00               	movwf	((c:Beep@frequency+1)),c
  9143  003A64  6E4C               	movlw	low(06Eh)
  9144  003A66  0E6E               	movwf	((c:Beep@frequency)),c
  9145  003A68  6E4B               	movlw	high(08Fh)
  9146  003A6A  0E00               	movwf	((c:Beep@duration+1)),c
  9147  003A6C  6E4E               	movlw	low(08Fh)
  9148  003A6E  0E8F               	movwf	((c:Beep@duration)),c
  9149  003A70  6E4D               	call	_Beep	;wreg free
  9150  003A72  EC8E  F02B         	line	859
  9151                           ;main.c: 859:  sleep(120);
  9152                           	movlw	high(058h)
  9153  003A76  0E00               	movwf	((c:sleep@ms+1)),c
  9154  003A78  6E03               	movlw	low(058h)
  9155  003A7A  0E58               	movwf	((c:sleep@ms)),c
  9156  003A7C  6E02               	call	_sleep	;wreg free
  9157  003A7E  ECF0  F02D         	line	860
  9158                           ;main.c: 860:  Beep(440, 133);
  9159                           	movlw	high(0293h)
  9160  003A82  0E02               	movwf	((c:Beep@frequency+1)),c
  9161  003A84  6E4C               	movlw	low(0293h)
  9162  003A86  0E93               	movwf	((c:Beep@frequency)),c
  9163  003A88  6E4B               	movlw	high(0B7h)
  9164  003A8A  0E00               	movwf	((c:Beep@duration+1)),c
  9165  003A8C  6E4E               	movlw	low(0B7h)
  9166  003A8E  0EB7               	movwf	((c:Beep@duration)),c
  9167  003A90  6E4D               	call	_Beep	;wreg free
  9168  003A92  EC8E  F02B         	line	861
  9169                           ;main.c: 861:  sleep(115);
  9170                           	movlw	high(043h)
  9171  003A96  0E00               	movwf	((c:sleep@ms+1)),c
  9172  003A98  6E03               	movlw	low(043h)
  9173  003A9A  0E43               	movwf	((c:sleep@ms)),c
  9174  003A9C  6E02               	call	_sleep	;wreg free
  9175  003A9E  ECF0  F02D         	line	862
  9176                           ;main.c: 862:  Beep(739, 84);
  9177                           	movlw	high(08Ah)
  9178  003AA2  0E00               	movwf	((c:Beep@frequency+1)),c
  9179  003AA4  6E4C               	movlw	low(08Ah)
  9180  003AA6  0E8A               	movwf	((c:Beep@frequency)),c
  9181  003AA8  6E4B               	movlw	high(07Eh)
  9182  003AAA  0E00               	movwf	((c:Beep@duration+1)),c
  9183  003AAC  6E4E               	movlw	low(07Eh)
  9184  003AAE  0E7E               	movwf	((c:Beep@duration)),c
  9185  003AB0  6E4D               	call	_Beep	;wreg free
  9186  003AB2  EC8E  F02B         	line	863
  9187                           ;main.c: 863:  sleep(29);
  9188                           	movlw	high(084h)
  9189  003AB6  0E00               	movwf	((c:sleep@ms+1)),c
  9190  003AB8  6E03               	movlw	low(084h)
  9191  003ABA  0E84               	movwf	((c:sleep@ms)),c
  9192  003ABC  6E02               	call	_sleep	;wreg free
  9193  003ABE  ECF0  F02D         	line	864
  9194                           ;main.c: 864:  Beep(659, 90);
  9195                           	movlw	high(0149h)
  9196  003AC2  0E01               	movwf	((c:Beep@frequency+1)),c
  9197  003AC4  6E4C               	movlw	low(0149h)
  9198  003AC6  0E49               	movwf	((c:Beep@frequency)),c
  9199  003AC8  6E4B               	movlw	high(0C4h)
  9200  003ACA  0E00               	movwf	((c:Beep@duration+1)),c
  9201  003ACC  6E4E               	movlw	low(0C4h)
  9202  003ACE  0EC4               	movwf	((c:Beep@duration)),c
  9203  003AD0  6E4D               	call	_Beep	;wreg free
  9204  003AD2  EC8E  F02B         	line	865
  9205                           ;main.c: 865:  sleep(33);
  9206                           	movlw	high(02Bh)
  9207  003AD6  0E00               	movwf	((c:sleep@ms+1)),c
  9208  003AD8  6E03               	movlw	low(02Bh)
  9209  003ADA  0E2B               	movwf	((c:sleep@ms)),c
  9210  003ADC  6E02               	call	_sleep	;wreg free
  9211  003ADE  ECF0  F02D         	line	866
  9212                           ;main.c: 866:  Beep(440, 125);
  9213                           	movlw	high(0A4h)
  9214  003AE2  0E00               	movwf	((c:Beep@frequency+1)),c
  9215  003AE4  6E4C               	movlw	low(0A4h)
  9216  003AE6  0EA4               	movwf	((c:Beep@frequency)),c
  9217  003AE8  6E4B               	movlw	high(0AAh)
  9218  003AEA  0E00               	movwf	((c:Beep@duration+1)),c
  9219  003AEC  6E4E               	movlw	low(0AAh)
  9220  003AEE  0EAA               	movwf	((c:Beep@duration)),c
  9221  003AF0  6E4D               	call	_Beep	;wreg free
  9222  003AF2  EC8E  F02B         	line	867
  9223                           ;main.c: 867:  sleep(6);
  9224                           	movlw	high(051h)
  9225  003AF6  0E00               	movwf	((c:sleep@ms+1)),c
  9226  003AF8  6E03               	movlw	low(051h)
  9227  003AFA  0E51               	movwf	((c:sleep@ms)),c
  9228  003AFC  6E02               	call	_sleep	;wreg free
  9229  003AFE  ECF0  F02D         	line	868
  9230                           ;main.c: 868:  Beep(659, 78);
  9231                           	movlw	high(0B8h)
  9232  003B02  0E00               	movwf	((c:Beep@frequency+1)),c
  9233  003B04  6E4C               	movlw	low(0B8h)
  9234  003B06  0EB8               	movwf	((c:Beep@frequency)),c
  9235  003B08  6E4B               	movlw	high(096h)
  9236  003B0A  0E00               	movwf	((c:Beep@duration+1)),c
  9237  003B0C  6E4E               	movlw	low(096h)
  9238  003B0E  0E96               	movwf	((c:Beep@duration)),c
  9239  003B10  6E4D               	call	_Beep	;wreg free
  9240  003B12  EC8E  F02B         	line	869
  9241                           ;main.c: 869:  sleep(43);
  9242                           	movlw	high(05Bh)
  9243  003B16  0E00               	movwf	((c:sleep@ms+1)),c
  9244  003B18  6E03               	movlw	low(05Bh)
  9245  003B1A  0E5B               	movwf	((c:sleep@ms)),c
  9246  003B1C  6E02               	call	_sleep	;wreg free
  9247  003B1E  ECF0  F02D         	line	870
  9248                           ;main.c: 870:  Beep(587, 93);
  9249                           	movlw	high(02E3h)
  9250  003B22  0E02               	movwf	((c:Beep@frequency+1)),c
  9251  003B24  6E4C               	movlw	low(02E3h)
  9252  003B26  0EE3               	movwf	((c:Beep@frequency)),c
  9253  003B28  6E4B               	movlw	high(03Eh)
  9254  003B2A  0E00               	movwf	((c:Beep@duration+1)),c
  9255  003B2C  6E4E               	movlw	low(03Eh)
  9256  003B2E  0E3E               	movwf	((c:Beep@duration)),c
  9257  003B30  6E4D               	call	_Beep	;wreg free
  9258  003B32  EC8E  F02B         	line	871
  9259                           ;main.c: 871:  sleep(22);
  9260                           	movlw	high(03Ah)
  9261  003B36  0E00               	movwf	((c:sleep@ms+1)),c
  9262  003B38  6E03               	movlw	low(03Ah)
  9263  003B3A  0E3A               	movwf	((c:sleep@ms)),c
  9264  003B3C  6E02               	call	_sleep	;wreg free
  9265  003B3E  ECF0  F02D         	line	872
  9266                           ;main.c: 872:  Beep(739, 64);
  9267                           	movlw	high(024Bh)
  9268  003B42  0E02               	movwf	((c:Beep@frequency+1)),c
  9269  003B44  6E4C               	movlw	low(024Bh)
  9270  003B46  0E4B               	movwf	((c:Beep@frequency)),c
  9271  003B48  6E4B               	movlw	high(04Eh)
  9272  003B4A  0E00               	movwf	((c:Beep@duration+1)),c
  9273  003B4C  6E4E               	movlw	low(04Eh)
  9274  003B4E  0E4E               	movwf	((c:Beep@duration)),c
  9275  003B50  6E4D               	call	_Beep	;wreg free
  9276  003B52  EC8E  F02B         	line	873
  9277                           ;main.c: 873:  sleep(51);
  9278                           	movlw	high(02Fh)
  9279  003B56  0E00               	movwf	((c:sleep@ms+1)),c
  9280  003B58  6E03               	movlw	low(02Fh)
  9281  003B5A  0E2F               	movwf	((c:sleep@ms)),c
  9282  003B5C  6E02               	call	_sleep	;wreg free
  9283  003B5E  ECF0  F02D         	line	874
  9284                           ;main.c: 874:  Beep(587, 150);
  9285                           	movlw	high(01EDh)
  9286  003B62  0E01               	movwf	((c:Beep@frequency+1)),c
  9287  003B64  6E4C               	movlw	low(01EDh)
  9288  003B66  0EED               	movwf	((c:Beep@frequency)),c
  9289  003B68  6E4B               	movlw	high(071h)
  9290  003B6A  0E00               	movwf	((c:Beep@duration+1)),c
  9291  003B6C  6E4E               	movlw	low(071h)
  9292  003B6E  0E71               	movwf	((c:Beep@duration)),c
  9293  003B70  6E4D               	call	_Beep	;wreg free
  9294  003B72  EC8E  F02B         	line	875
  9295                           ;main.c: 875:  sleep(110);
  9296                           	movlw	high(012h)
  9297  003B76  0E00               	movwf	((c:sleep@ms+1)),c
  9298  003B78  6E03               	movlw	low(012h)
  9299  003B7A  0E12               	movwf	((c:sleep@ms)),c
  9300  003B7C  6E02               	call	_sleep	;wreg free
  9301  003B7E  ECF0  F02D         	line	876
  9302                           ;main.c: 876:  Beep(587, 69);
  9303                           	movlw	high(024Bh)
  9304  003B82  0E02               	movwf	((c:Beep@frequency+1)),c
  9305  003B84  6E4C               	movlw	low(024Bh)
  9306  003B86  0E4B               	movwf	((c:Beep@frequency)),c
  9307  003B88  6E4B               	movlw	high(04Eh)
  9308  003B8A  0E00               	movwf	((c:Beep@duration+1)),c
  9309  003B8C  6E4E               	movlw	low(04Eh)
  9310  003B8E  0E4E               	movwf	((c:Beep@duration)),c
  9311  003B90  6E4D               	call	_Beep	;wreg free
  9312  003B92  EC8E  F02B         	line	877
  9313                           ;main.c: 877:  sleep(54);
  9314                           	movlw	high(01Bh)
  9315  003B96  0E00               	movwf	((c:sleep@ms+1)),c
  9316  003B98  6E03               	movlw	low(01Bh)
  9317  003B9A  0E1B               	movwf	((c:sleep@ms)),c
  9318  003B9C  6E02               	call	_sleep	;wreg free
  9319  003B9E  ECF0  F02D         	line	878
  9320                           ;main.c: 878:  Beep(783, 127);
  9321                           	movlw	high(0187h)
  9322  003BA2  0E01               	movwf	((c:Beep@frequency+1)),c
  9323  003BA4  6E4C               	movlw	low(0187h)
  9324  003BA6  0E87               	movwf	((c:Beep@frequency)),c
  9325  003BA8  6E4B               	movlw	high(080h)
  9326  003BAA  0E00               	movwf	((c:Beep@duration+1)),c
  9327  003BAC  6E4E               	movlw	low(080h)
  9328  003BAE  0E80               	movwf	((c:Beep@duration)),c
  9329  003BB0  6E4D               	call	_Beep	;wreg free
  9330  003BB2  EC8E  F02B         	line	879
  9331                           ;main.c: 879:  sleep(4);
  9332                           	movlw	high(04h)
  9333  003BB6  0E00               	movwf	((c:sleep@ms+1)),c
  9334  003BB8  6E03               	movlw	low(04h)
  9335  003BBA  0E04               	movwf	((c:sleep@ms)),c
  9336  003BBC  6E02               	call	_sleep	;wreg free
  9337  003BBE  ECF0  F02D         	line	880
  9338                           ;main.c: 880:  Beep(195, 126);
  9339                           	movlw	high(024Bh)
  9340  003BC2  0E02               	movwf	((c:Beep@frequency+1)),c
  9341  003BC4  6E4C               	movlw	low(024Bh)
  9342  003BC6  0E4B               	movwf	((c:Beep@frequency)),c
  9343  003BC8  6E4B               	movlw	high(06Bh)
  9344  003BCA  0E00               	movwf	((c:Beep@duration+1)),c
  9345  003BCC  6E4E               	movlw	low(06Bh)
  9346  003BCE  0E6B               	movwf	((c:Beep@duration)),c
  9347  003BD0  6E4D               	call	_Beep	;wreg free
  9348  003BD2  EC8E  F02B         	line	881
  9349                           ;main.c: 881:  sleep(118);
  9350                           	movlw	high(0Eh)
  9351  003BD6  0E00               	movwf	((c:sleep@ms+1)),c
  9352  003BD8  6E03               	movlw	low(0Eh)
  9353  003BDA  0E0E               	movwf	((c:sleep@ms)),c
  9354  003BDC  6E02               	call	_sleep	;wreg free
  9355  003BDE  ECF0  F02D         	line	882
  9356                           ;main.c: 882:  Beep(369, 177);
  9357                           	movlw	high(0DCh)
  9358  003BE2  0E00               	movwf	((c:Beep@frequency+1)),c
  9359  003BE4  6E4C               	movlw	low(0DCh)
  9360  003BE6  0EDC               	movwf	((c:Beep@frequency)),c
  9361  003BE8  6E4B               	movlw	high(083h)
  9362  003BEA  0E00               	movwf	((c:Beep@duration+1)),c
  9363  003BEC  6E4E               	movlw	low(083h)
  9364  003BEE  0E83               	movwf	((c:Beep@duration)),c
  9365  003BF0  6E4D               	call	_Beep	;wreg free
  9366  003BF2  EC8E  F02B         	line	883
  9367                           ;main.c: 883:  sleep(59);
  9368                           	movlw	high(078h)
  9369  003BF6  0E00               	movwf	((c:sleep@ms+1)),c
  9370  003BF8  6E03               	movlw	low(078h)
  9371  003BFA  0E78               	movwf	((c:sleep@ms)),c
  9372  003BFC  6E02               	call	_sleep	;wreg free
  9373  003BFE  ECF0  F02D         	line	884
  9374                           ;main.c: 884:  Beep(220, 126);
  9375                           	movlw	high(01B8h)
  9376  003C02  0E01               	movwf	((c:Beep@frequency+1)),c
  9377  003C04  6E4C               	movlw	low(01B8h)
  9378  003C06  0EB8               	movwf	((c:Beep@frequency)),c
  9379  003C08  6E4B               	movlw	high(085h)
  9380  003C0A  0E00               	movwf	((c:Beep@duration+1)),c
  9381  003C0C  6E4E               	movlw	low(085h)
  9382  003C0E  0E85               	movwf	((c:Beep@duration)),c
  9383  003C10  6E4D               	call	_Beep	;wreg free
  9384  003C12  EC8E  F02B         	line	885
  9385                           ;main.c: 885:  sleep(2);
  9386                           	movlw	high(073h)
  9387  003C16  0E00               	movwf	((c:sleep@ms+1)),c
  9388  003C18  6E03               	movlw	low(073h)
  9389  003C1A  0E73               	movwf	((c:sleep@ms)),c
  9390  003C1C  6E02               	call	_sleep	;wreg free
  9391  003C1E  ECF0  F02D         	line	886
  9392                           ;main.c: 886:  Beep(554, 132);
  9393                           	movlw	high(02E3h)
  9394  003C22  0E02               	movwf	((c:Beep@frequency+1)),c
  9395  003C24  6E4C               	movlw	low(02E3h)
  9396  003C26  0EE3               	movwf	((c:Beep@frequency)),c
  9397  003C28  6E4B               	movlw	high(054h)
  9398  003C2A  0E00               	movwf	((c:Beep@duration+1)),c
  9399  003C2C  6E4E               	movlw	low(054h)
  9400  003C2E  0E54               	movwf	((c:Beep@duration)),c
  9401  003C30  6E4D               	call	_Beep	;wreg free
  9402  003C32  EC8E  F02B         	line	887
  9403                           ;main.c: 887:  Beep(391, 193);
  9404                           	movlw	high(01Dh)
  9405  003C36  0E00               	movwf	((c:sleep@ms+1)),c
  9406  003C38  6E03               	movlw	low(01Dh)
  9407  003C3A  0E1D               	movwf	((c:sleep@ms)),c
  9408  003C3C  6E02               	call	_sleep	;wreg free
  9409  003C3E  ECF0  F02D         	line	888
  9410                           ;main.c: 888:  sleep(38);
  9411                           	movlw	high(0293h)
  9412  003C42  0E02               	movwf	((c:Beep@frequency+1)),c
  9413  003C44  6E4C               	movlw	low(0293h)
  9414  003C46  0E93               	movwf	((c:Beep@frequency)),c
  9415  003C48  6E4B               	movlw	high(05Ah)
  9416  003C4A  0E00               	movwf	((c:Beep@duration+1)),c
  9417  003C4C  6E4E               	movlw	low(05Ah)
  9418  003C4E  0E5A               	movwf	((c:Beep@duration)),c
  9419  003C50  6E4D               	call	_Beep	;wreg free
  9420  003C52  EC8E  F02B         	line	889
  9421                           ;main.c: 889:  Beep(246, 134);
  9422                           	movlw	high(021h)
  9423  003C56  0E00               	movwf	((c:sleep@ms+1)),c
  9424  003C58  6E03               	movlw	low(021h)
  9425  003C5A  0E21               	movwf	((c:sleep@ms)),c
  9426  003C5C  6E02               	call	_sleep	;wreg free
  9427  003C5E  ECF0  F02D         	line	890
  9428                           ;main.c: 890:  sleep(6);
  9429                           	movlw	high(01B8h)
  9430  003C62  0E01               	movwf	((c:Beep@frequency+1)),c
  9431  003C64  6E4C               	movlw	low(01B8h)
  9432  003C66  0EB8               	movwf	((c:Beep@frequency)),c
  9433  003C68  6E4B               	movlw	high(07Dh)
  9434  003C6A  0E00               	movwf	((c:Beep@duration+1)),c
  9435  003C6C  6E4E               	movlw	low(07Dh)
  9436  003C6E  0E7D               	movwf	((c:Beep@duration)),c
  9437  003C70  6E4D               	call	_Beep	;wreg free
  9438  003C72  EC8E  F02B         	line	891
  9439                           ;main.c: 891:  Beep(554, 128);
  9440                           	movlw	high(06h)
  9441  003C76  0E00               	movwf	((c:sleep@ms+1)),c
  9442  003C78  6E03               	movlw	low(06h)
  9443  003C7A  0E06               	movwf	((c:sleep@ms)),c
  9444  003C7C  6E02               	call	_sleep	;wreg free
  9445  003C7E  ECF0  F02D         	line	892
  9446                           ;main.c: 892:  sleep(2);
  9447                           	movlw	high(0293h)
  9448  003C82  0E02               	movwf	((c:Beep@frequency+1)),c
  9449  003C84  6E4C               	movlw	low(0293h)
  9450  003C86  0E93               	movwf	((c:Beep@frequency)),c
  9451  003C88  6E4B               	movlw	high(04Eh)
  9452  003C8A  0E00               	movwf	((c:Beep@duration+1)),c
  9453  003C8C  6E4E               	movlw	low(04Eh)
  9454  003C8E  0E4E               	movwf	((c:Beep@duration)),c
  9455  003C90  6E4D               	call	_Beep	;wreg free
  9456  003C92  EC8E  F02B         	line	893
  9457                           ;main.c: 893:  Beep(587, 72);
  9458                           	movlw	high(02Bh)
  9459  003C96  0E00               	movwf	((c:sleep@ms+1)),c
  9460  003C98  6E03               	movlw	low(02Bh)
  9461  003C9A  0E2B               	movwf	((c:sleep@ms)),c
  9462  003C9C  6E02               	call	_sleep	;wreg free
  9463  003C9E  ECF0  F02D         	line	894
  9464                           ;main.c: 894:  sleep(52);
  9465                           	movlw	high(024Bh)
  9466  003CA2  0E02               	movwf	((c:Beep@frequency+1)),c
  9467  003CA4  6E4C               	movlw	low(024Bh)
  9468  003CA6  0E4B               	movwf	((c:Beep@frequency)),c
  9469  003CA8  6E4B               	movlw	high(05Dh)
  9470  003CAA  0E00               	movwf	((c:Beep@duration+1)),c
  9471  003CAC  6E4E               	movlw	low(05Dh)
  9472  003CAE  0E5D               	movwf	((c:Beep@duration)),c
  9473  003CB0  6E4D               	call	_Beep	;wreg free
  9474  003CB2  EC8E  F02B         	line	895
  9475                           ;main.c: 895:  Beep(987, 83);
  9476                           	movlw	high(016h)
  9477  003CB6  0E00               	movwf	((c:sleep@ms+1)),c
  9478  003CB8  6E03               	movlw	low(016h)
  9479  003CBA  0E16               	movwf	((c:sleep@ms)),c
  9480  003CBC  6E02               	call	_sleep	;wreg free
  9481  003CBE  ECF0  F02D         	line	896
  9482                           ;main.c: 896:  sleep(14);
  9483                           	movlw	high(02E3h)
  9484  003CC2  0E02               	movwf	((c:Beep@frequency+1)),c
  9485  003CC4  6E4C               	movlw	low(02E3h)
  9486  003CC6  0EE3               	movwf	((c:Beep@frequency)),c
  9487  003CC8  6E4B               	movlw	high(040h)
  9488  003CCA  0E00               	movwf	((c:Beep@duration+1)),c
  9489  003CCC  6E4E               	movlw	low(040h)
  9490  003CCE  0E40               	movwf	((c:Beep@duration)),c
  9491  003CD0  6E4D               	call	_Beep	;wreg free
  9492  003CD2  EC8E  F02B         	line	897
  9493                           ;main.c: 897:  Beep(164, 130);
  9494                           	movlw	high(033h)
  9495  003CD6  0E00               	movwf	((c:sleep@ms+1)),c
  9496  003CD8  6E03               	movlw	low(033h)
  9497  003CDA  0E33               	movwf	((c:sleep@ms)),c
  9498  003CDC  6E02               	call	_sleep	;wreg free
  9499  003CDE  ECF0  F02D         	line	898
  9500                           ;main.c: 898:  sleep(26);
  9501                           	movlw	high(024Bh)
  9502  003CE2  0E02               	movwf	((c:Beep@frequency+1)),c
  9503  003CE4  6E4C               	movlw	low(024Bh)
  9504  003CE6  0E4B               	movwf	((c:Beep@frequency)),c
  9505  003CE8  6E4B               	movlw	high(096h)
  9506  003CEA  0E00               	movwf	((c:Beep@duration+1)),c
  9507  003CEC  6E4E               	movlw	low(096h)
  9508  003CEE  0E96               	movwf	((c:Beep@duration)),c
  9509  003CF0  6E4D               	call	_Beep	;wreg free
  9510  003CF2  EC8E  F02B         	line	899
  9511                           ;main.c: 899:  Beep(783, 66);
  9512                           	movlw	high(06Eh)
  9513  003CF6  0E00               	movwf	((c:sleep@ms+1)),c
  9514  003CF8  6E03               	movlw	low(06Eh)
  9515  003CFA  0E6E               	movwf	((c:sleep@ms)),c
  9516  003CFC  6E02               	call	_sleep	;wreg free
  9517  003CFE  ECF0  F02D         	line	900
  9518                           ;main.c: 900:  sleep(31);
  9519                           	movlw	high(024Bh)
  9520  003D02  0E02               	movwf	((c:Beep@frequency+1)),c
  9521  003D04  6E4C               	movlw	low(024Bh)
  9522  003D06  0E4B               	movwf	((c:Beep@frequency)),c
  9523  003D08  6E4B               	movlw	high(045h)
  9524  003D0A  0E00               	movwf	((c:Beep@duration+1)),c
  9525  003D0C  6E4E               	movlw	low(045h)
  9526  003D0E  0E45               	movwf	((c:Beep@duration)),c
  9527  003D10  6E4D               	call	_Beep	;wreg free
  9528  003D12  EC8E  F02B         	line	901
  9529                           ;main.c: 901:  Beep(369, 143);
  9530                           	movlw	high(036h)
  9531  003D16  0E00               	movwf	((c:sleep@ms+1)),c
  9532  003D18  6E03               	movlw	low(036h)
  9533  003D1A  0E36               	movwf	((c:sleep@ms)),c
  9534  003D1C  6E02               	call	_sleep	;wreg free
  9535  003D1E  ECF0  F02D         	line	902
  9536                           ;main.c: 902:  sleep(101);
  9537                           	movlw	high(030Fh)
  9538  003D22  0E03               	movwf	((c:Beep@frequency+1)),c
  9539  003D24  6E4C               	movlw	low(030Fh)
  9540  003D26  0E0F               	movwf	((c:Beep@frequency)),c
  9541  003D28  6E4B               	movlw	high(07Fh)
  9542  003D2A  0E00               	movwf	((c:Beep@duration+1)),c
  9543  003D2C  6E4E               	movlw	low(07Fh)
  9544  003D2E  0E7F               	movwf	((c:Beep@duration)),c
  9545  003D30  6E4D               	call	_Beep	;wreg free
  9546  003D32  EC8E  F02B         	line	903
  9547                           ;main.c: 903:  Beep(493, 139);
  9548                           	movlw	high(04h)
  9549  003D36  0E00               	movwf	((c:sleep@ms+1)),c
  9550  003D38  6E03               	movlw	low(04h)
  9551  003D3A  0E04               	movwf	((c:sleep@ms)),c
  9552  003D3C  6E02               	call	_sleep	;wreg free
  9553  003D3E  ECF0  F02D         	line	904
  9554                           ;main.c: 904:  sleep(104);
  9555                           	movlw	high(0C3h)
  9556  003D42  0E00               	movwf	((c:Beep@frequency+1)),c
  9557  003D44  6E4C               	movlw	low(0C3h)
  9558  003D46  0EC3               	movwf	((c:Beep@frequency)),c
  9559  003D48  6E4B               	movlw	high(07Eh)
  9560  003D4A  0E00               	movwf	((c:Beep@duration+1)),c
  9561  003D4C  6E4E               	movlw	low(07Eh)
  9562  003D4E  0E7E               	movwf	((c:Beep@duration)),c
  9563  003D50  6E4D               	call	_Beep	;wreg free
  9564  003D52  EC8E  F02B         	line	905
  9565                           ;main.c: 905:  Beep(440, 123);
  9566                           	movlw	high(076h)
  9567  003D56  0E00               	movwf	((c:sleep@ms+1)),c
  9568  003D58  6E03               	movlw	low(076h)
  9569  003D5A  0E76               	movwf	((c:sleep@ms)),c
  9570  003D5C  6E02               	call	_sleep	;wreg free
  9571  003D5E  ECF0  F02D         	line	906
  9572                           ;main.c: 906:  sleep(131);
  9573                           	movlw	high(0171h)
  9574  003D62  0E01               	movwf	((c:Beep@frequency+1)),c
  9575  003D64  6E4C               	movlw	low(0171h)
  9576  003D66  0E71               	movwf	((c:Beep@frequency)),c
  9577  003D68  6E4B               	movlw	high(0B1h)
  9578  003D6A  0E00               	movwf	((c:Beep@duration+1)),c
  9579  003D6C  6E4E               	movlw	low(0B1h)
  9580  003D6E  0EB1               	movwf	((c:Beep@duration)),c
  9581  003D70  6E4D               	call	_Beep	;wreg free
  9582  003D72  EC8E  F02B         	line	907
  9583                           ;main.c: 907:  Beep(391, 128);
  9584                           	movlw	high(03Bh)
  9585  003D76  0E00               	movwf	((c:sleep@ms+1)),c
  9586  003D78  6E03               	movlw	low(03Bh)
  9587  003D7A  0E3B               	movwf	((c:sleep@ms)),c
  9588  003D7C  6E02               	call	_sleep	;wreg free
  9589  003D7E  ECF0  F02D         	line	908
  9590                           ;main.c: 908:  sleep(43);
  9591                           	movlw	high(0DCh)
  9592  003D82  0E00               	movwf	((c:Beep@frequency+1)),c
  9593  003D84  6E4C               	movlw	low(0DCh)
  9594  003D86  0EDC               	movwf	((c:Beep@frequency)),c
  9595  003D88  6E4B               	movlw	high(07Eh)
  9596  003D8A  0E00               	movwf	((c:Beep@duration+1)),c
  9597  003D8C  6E4E               	movlw	low(07Eh)
  9598  003D8E  0E7E               	movwf	((c:Beep@duration)),c
  9599  003D90  6E4D               	call	_Beep	;wreg free
  9600  003D92  EC8E  F02B         	line	909
  9601                           ;main.c: 909:  Beep(659, 79);
  9602                           	movlw	high(02h)
  9603  003D96  0E00               	movwf	((c:sleep@ms+1)),c
  9604  003D98  6E03               	movlw	low(02h)
  9605  003D9A  0E02               	movwf	((c:sleep@ms)),c
  9606  003D9C  6E02               	call	_sleep	;wreg free
  9607  003D9E  ECF0  F02D         	line	910
  9608                           ;main.c: 910:  sleep(2);
  9609                           	movlw	high(022Ah)
  9610  003DA2  0E02               	movwf	((c:Beep@frequency+1)),c
  9611  003DA4  6E4C               	movlw	low(022Ah)
  9612  003DA6  0E2A               	movwf	((c:Beep@frequency)),c
  9613  003DA8  6E4B               	movlw	high(084h)
  9614  003DAA  0E00               	movwf	((c:Beep@duration+1)),c
  9615  003DAC  6E4E               	movlw	low(084h)
  9616  003DAE  0E84               	movwf	((c:Beep@duration)),c
  9617  003DB0  6E4D               	call	_Beep	;wreg free
  9618  003DB2  EC8E  F02B         	line	911
  9619                           ;main.c: 911:  Beep(146, 138);
  9620                           	movlw	high(0187h)
  9621  003DB6  0E01               	movwf	((c:Beep@frequency+1)),c
  9622  003DB8  6E4C               	movlw	low(0187h)
  9623  003DBA  0E87               	movwf	((c:Beep@frequency)),c
  9624  003DBC  6E4B               	movlw	high(0C1h)
  9625  003DBE  0E00               	movwf	((c:Beep@duration+1)),c
  9626  003DC0  6E4E               	movlw	low(0C1h)
  9627  003DC2  0EC1               	movwf	((c:Beep@duration)),c
  9628  003DC4  6E4D               	call	_Beep	;wreg free
  9629  003DC6  EC8E  F02B         	line	912
  9630                           ;main.c: 912:  sleep(122);
  9631                           	movlw	high(026h)
  9632  003DCA  0E00               	movwf	((c:sleep@ms+1)),c
  9633  003DCC  6E03               	movlw	low(026h)
  9634  003DCE  0E26               	movwf	((c:sleep@ms)),c
  9635  003DD0  6E02               	call	_sleep	;wreg free
  9636  003DD2  ECF0  F02D         	line	913
  9637                           ;main.c: 913:  Beep(110, 110);
  9638                           	movlw	high(0F6h)
  9639  003DD6  0E00               	movwf	((c:Beep@frequency+1)),c
  9640  003DD8  6E4C               	movlw	low(0F6h)
  9641  003DDA  0EF6               	movwf	((c:Beep@frequency)),c
  9642  003DDC  6E4B               	movlw	high(086h)
  9643  003DDE  0E00               	movwf	((c:Beep@duration+1)),c
  9644  003DE0  6E4E               	movlw	low(086h)
  9645  003DE2  0E86               	movwf	((c:Beep@duration)),c
  9646  003DE4  6E4D               	call	_Beep	;wreg free
  9647  003DE6  EC8E  F02B         	line	914
  9648                           ;main.c: 914:  sleep(120);
  9649                           	movlw	high(06h)
  9650  003DEA  0E00               	movwf	((c:sleep@ms+1)),c
  9651  003DEC  6E03               	movlw	low(06h)
  9652  003DEE  0E06               	movwf	((c:sleep@ms)),c
  9653  003DF0  6E02               	call	_sleep	;wreg free
  9654  003DF2  ECF0  F02D         	line	915
  9655                           ;main.c: 915:  Beep(73, 137);
  9656                           	movlw	high(022Ah)
  9657  003DF6  0E02               	movwf	((c:Beep@frequency+1)),c
  9658  003DF8  6E4C               	movlw	low(022Ah)
  9659  003DFA  0E2A               	movwf	((c:Beep@frequency)),c
  9660  003DFC  6E4B               	movlw	high(080h)
  9661  003DFE  0E00               	movwf	((c:Beep@duration+1)),c
  9662  003E00  6E4E               	movlw	low(080h)
  9663  003E02  0E80               	movwf	((c:Beep@duration)),c
  9664  003E04  6E4D               	call	_Beep	;wreg free
  9665  003E06  EC8E  F02B         	line	916
  9666                           ;main.c: 916:  sleep(113);
  9667                           	movlw	high(02h)
  9668  003E0A  0E00               	movwf	((c:sleep@ms+1)),c
  9669  003E0C  6E03               	movlw	low(02h)
  9670  003E0E  0E02               	movwf	((c:sleep@ms)),c
  9671  003E10  6E02               	call	_sleep	;wreg free
  9672  003E12  ECF0  F02D         	line	917
  9673                           ;main.c: 917:  Beep(739, 316);
  9674                           	movlw	high(024Bh)
  9675  003E16  0E02               	movwf	((c:Beep@frequency+1)),c
  9676  003E18  6E4C               	movlw	low(024Bh)
  9677  003E1A  0E4B               	movwf	((c:Beep@frequency)),c
  9678  003E1C  6E4B               	movlw	high(048h)
  9679  003E1E  0E00               	movwf	((c:Beep@duration+1)),c
  9680  003E20  6E4E               	movlw	low(048h)
  9681  003E22  0E48               	movwf	((c:Beep@duration)),c
  9682  003E24  6E4D               	call	_Beep	;wreg free
  9683  003E26  EC8E  F02B         	line	918
  9684                           ;main.c: 918:  sleep(49);
  9685                           	movlw	high(034h)
  9686  003E2A  0E00               	movwf	((c:sleep@ms+1)),c
  9687  003E2C  6E03               	movlw	low(034h)
  9688  003E2E  0E34               	movwf	((c:sleep@ms)),c
  9689  003E30  6E02               	call	_sleep	;wreg free
  9690  003E32  ECF0  F02D         	line	919
  9691                           ;main.c: 919:  Beep(659, 80);
  9692                           	movlw	high(03DBh)
  9693  003E36  0E03               	movwf	((c:Beep@frequency+1)),c
  9694  003E38  6E4C               	movlw	low(03DBh)
  9695  003E3A  0EDB               	movwf	((c:Beep@frequency)),c
  9696  003E3C  6E4B               	movlw	high(053h)
  9697  003E3E  0E00               	movwf	((c:Beep@duration+1)),c
  9698  003E40  6E4E               	movlw	low(053h)
  9699  003E42  0E53               	movwf	((c:Beep@duration)),c
  9700  003E44  6E4D               	call	_Beep	;wreg free
  9701  003E46  EC8E  F02B         	line	920
  9702                           ;main.c: 920:  sleep(50);
  9703                           	movlw	high(0Eh)
  9704  003E4A  0E00               	movwf	((c:sleep@ms+1)),c
  9705  003E4C  6E03               	movlw	low(0Eh)
  9706  003E4E  0E0E               	movwf	((c:sleep@ms)),c
  9707  003E50  6E02               	call	_sleep	;wreg free
  9708  003E52  ECF0  F02D         	line	921
  9709                           ;main.c: 921:  Beep(440, 119);
  9710                           	movlw	high(0A4h)
  9711  003E56  0E00               	movwf	((c:Beep@frequency+1)),c
  9712  003E58  6E4C               	movlw	low(0A4h)
  9713  003E5A  0EA4               	movwf	((c:Beep@frequency)),c
  9714  003E5C  6E4B               	movlw	high(082h)
  9715  003E5E  0E00               	movwf	((c:Beep@duration+1)),c
  9716  003E60  6E4E               	movlw	low(082h)
  9717  003E62  0E82               	movwf	((c:Beep@duration)),c
  9718  003E64  6E4D               	call	_Beep	;wreg free
  9719  003E66  EC8E  F02B         	line	922
  9720                           ;main.c: 922:  sleep(119);
  9721                           	movlw	high(01Ah)
  9722  003E6A  0E00               	movwf	((c:sleep@ms+1)),c
  9723  003E6C  6E03               	movlw	low(01Ah)
  9724  003E6E  0E1A               	movwf	((c:sleep@ms)),c
  9725  003E70  6E02               	call	_sleep	;wreg free
  9726  003E72  ECF0  F02D         	line	923
  9727                           ;main.c: 923:  Beep(146, 164);
  9728                           	movlw	high(030Fh)
  9729  003E76  0E03               	movwf	((c:Beep@frequency+1)),c
  9730  003E78  6E4C               	movlw	low(030Fh)
  9731  003E7A  0E0F               	movwf	((c:Beep@frequency)),c
  9732  003E7C  6E4B               	movlw	high(042h)
  9733  003E7E  0E00               	movwf	((c:Beep@duration+1)),c
  9734  003E80  6E4E               	movlw	low(042h)
  9735  003E82  0E42               	movwf	((c:Beep@duration)),c
  9736  003E84  6E4D               	call	_Beep	;wreg free
  9737  003E86  EC8E  F02B         	line	924
  9738                           ;main.c: 924:  sleep(79);
  9739                           	movlw	high(01Fh)
  9740  003E8A  0E00               	movwf	((c:sleep@ms+1)),c
  9741  003E8C  6E03               	movlw	low(01Fh)
  9742  003E8E  0E1F               	movwf	((c:sleep@ms)),c
  9743  003E90  6E02               	call	_sleep	;wreg free
  9744  003E92  ECF0  F02D         	line	925
  9745                           ;main.c: 925:  Beep(739, 195);
  9746                           	movlw	high(0171h)
  9747  003E96  0E01               	movwf	((c:Beep@frequency+1)),c
  9748  003E98  6E4C               	movlw	low(0171h)
  9749  003E9A  0E71               	movwf	((c:Beep@frequency)),c
  9750  003E9C  6E4B               	movlw	high(08Fh)
  9751  003E9E  0E00               	movwf	((c:Beep@duration+1)),c
  9752  003EA0  6E4E               	movlw	low(08Fh)
  9753  003EA2  0E8F               	movwf	((c:Beep@duration)),c
  9754  003EA4  6E4D               	call	_Beep	;wreg free
  9755  003EA6  EC8E  F02B         	line	926
  9756                           ;main.c: 926:  sleep(58);
  9757                           	movlw	high(065h)
  9758  003EAA  0E00               	movwf	((c:sleep@ms+1)),c
  9759  003EAC  6E03               	movlw	low(065h)
  9760  003EAE  0E65               	movwf	((c:sleep@ms)),c
  9761  003EB0  6E02               	call	_sleep	;wreg free
  9762  003EB2  ECF0  F02D         	line	927
  9763                           ;main.c: 927:  Beep(659, 74);
  9764                           	movlw	high(01EDh)
  9765  003EB6  0E01               	movwf	((c:Beep@frequency+1)),c
  9766  003EB8  6E4C               	movlw	low(01EDh)
  9767  003EBA  0EED               	movwf	((c:Beep@frequency)),c
  9768  003EBC  6E4B               	movlw	high(08Bh)
  9769  003EBE  0E00               	movwf	((c:Beep@duration+1)),c
  9770  003EC0  6E4E               	movlw	low(08Bh)
  9771  003EC2  0E8B               	movwf	((c:Beep@duration)),c
  9772  003EC4  6E4D               	call	_Beep	;wreg free
  9773  003EC6  EC8E  F02B         	line	928
  9774                           ;main.c: 928:  sleep(12);
  9775                           	movlw	high(068h)
  9776  003ECA  0E00               	movwf	((c:sleep@ms+1)),c
  9777  003ECC  6E03               	movlw	low(068h)
  9778  003ECE  0E68               	movwf	((c:sleep@ms)),c
  9779  003ED0  6E02               	call	_sleep	;wreg free
  9780  003ED2  ECF0  F02D         	line	929
  9781                           ;main.c: 929:  Beep(739, 65);
  9782                           	movlw	high(01B8h)
  9783  003ED6  0E01               	movwf	((c:Beep@frequency+1)),c
  9784  003ED8  6E4C               	movlw	low(01B8h)
  9785  003EDA  0EB8               	movwf	((c:Beep@frequency)),c
  9786  003EDC  6E4B               	movlw	high(07Bh)
  9787  003EDE  0E00               	movwf	((c:Beep@duration+1)),c
  9788  003EE0  6E4E               	movlw	low(07Bh)
  9789  003EE2  0E7B               	movwf	((c:Beep@duration)),c
  9790  003EE4  6E4D               	call	_Beep	;wreg free
  9791  003EE6  EC8E  F02B         	line	930
  9792                           ;main.c: 930:  Beep(587, 101);
  9793                           	movlw	high(083h)
  9794  003EEA  0E00               	movwf	((c:sleep@ms+1)),c
  9795  003EEC  6E03               	movlw	low(083h)
  9796  003EEE  0E83               	movwf	((c:sleep@ms)),c
  9797  003EF0  6E02               	call	_sleep	;wreg free
  9798  003EF2  ECF0  F02D         	line	931
  9799                           ;main.c: 931:  sleep(4);
  9800                           	movlw	high(0187h)
  9801  003EF6  0E01               	movwf	((c:Beep@frequency+1)),c
  9802  003EF8  6E4C               	movlw	low(0187h)
  9803  003EFA  0E87               	movwf	((c:Beep@frequency)),c
  9804  003EFC  6E4B               	movlw	high(080h)
  9805  003EFE  0E00               	movwf	((c:Beep@duration+1)),c
  9806  003F00  6E4E               	movlw	low(080h)
  9807  003F02  0E80               	movwf	((c:Beep@duration)),c
  9808  003F04  6E4D               	call	_Beep	;wreg free
  9809  003F06  EC8E  F02B         	line	932
  9810                           ;main.c: 932:  Beep(659, 143);
  9811                           	movlw	high(02Bh)
  9812  003F0A  0E00               	movwf	((c:sleep@ms+1)),c
  9813  003F0C  6E03               	movlw	low(02Bh)
  9814  003F0E  0E2B               	movwf	((c:sleep@ms)),c
  9815  003F10  6E02               	call	_sleep	;wreg free
  9816  003F12  ECF0  F02D         	line	933
  9817                           ;main.c: 933:  sleep(95);
  9818                           	movlw	high(0293h)
  9819  003F16  0E02               	movwf	((c:Beep@frequency+1)),c
  9820  003F18  6E4C               	movlw	low(0293h)
  9821  003F1A  0E93               	movwf	((c:Beep@frequency)),c
  9822  003F1C  6E4B               	movlw	high(04Fh)
  9823  003F1E  0E00               	movwf	((c:Beep@duration+1)),c
  9824  003F20  6E4E               	movlw	low(04Fh)
  9825  003F22  0E4F               	movwf	((c:Beep@duration)),c
  9826  003F24  6E4D               	call	_Beep	;wreg free
  9827  003F26  EC8E  F02B         	line	934
  9828                           ;main.c: 934:  Beep(116, 119);
  9829                           	movlw	high(02h)
  9830  003F2A  0E00               	movwf	((c:sleep@ms+1)),c
  9831  003F2C  6E03               	movlw	low(02h)
  9832  003F2E  0E02               	movwf	((c:sleep@ms)),c
  9833  003F30  6E02               	call	_sleep	;wreg free
  9834  003F32  ECF0  F02D         	line	935
  9835                           ;main.c: 935:  sleep(132);
  9836                           	movlw	high(092h)
  9837  003F36  0E00               	movwf	((c:Beep@frequency+1)),c
  9838  003F38  6E4C               	movlw	low(092h)
  9839  003F3A  0E92               	movwf	((c:Beep@frequency)),c
  9840  003F3C  6E4B               	movlw	high(08Ah)
  9841  003F3E  0E00               	movwf	((c:Beep@duration+1)),c
  9842  003F40  6E4E               	movlw	low(08Ah)
  9843  003F42  0E8A               	movwf	((c:Beep@duration)),c
  9844  003F44  6E4D               	call	_Beep	;wreg free
  9845  003F46  EC8E  F02B         	line	936
  9846                           ;main.c: 936:  Beep(659, 316);
  9847                           	movlw	high(07Ah)
  9848  003F4A  0E00               	movwf	((c:sleep@ms+1)),c
  9849  003F4C  6E03               	movlw	low(07Ah)
  9850  003F4E  0E7A               	movwf	((c:sleep@ms)),c
  9851  003F50  6E02               	call	_sleep	;wreg free
  9852  003F52  ECF0  F02D         	line	937
  9853                           ;main.c: 937:  sleep(41);
  9854                           	movlw	high(06Eh)
  9855  003F56  0E00               	movwf	((c:Beep@frequency+1)),c
  9856  003F58  6E4C               	movlw	low(06Eh)
  9857  003F5A  0E6E               	movwf	((c:Beep@frequency)),c
  9858  003F5C  6E4B               	movlw	high(06Eh)
  9859  003F5E  0E00               	movwf	((c:Beep@duration+1)),c
  9860  003F60  6E4E               	movlw	low(06Eh)
  9861  003F62  0E6E               	movwf	((c:Beep@duration)),c
  9862  003F64  6E4D               	call	_Beep	;wreg free
  9863  003F66  EC8E  F02B         	line	938
  9864                           ;main.c: 938:  Beep(587, 90);
  9865                           	movlw	high(078h)
  9866  003F6A  0E00               	movwf	((c:sleep@ms+1)),c
  9867  003F6C  6E03               	movlw	low(078h)
  9868  003F6E  0E78               	movwf	((c:sleep@ms)),c
  9869  003F70  6E02               	call	_sleep	;wreg free
  9870  003F72  ECF0  F02D         	line	939
  9871                           ;main.c: 939:  sleep(37);
  9872                           	movlw	high(049h)
  9873  003F76  0E00               	movwf	((c:Beep@frequency+1)),c
  9874  003F78  6E4C               	movlw	low(049h)
  9875  003F7A  0E49               	movwf	((c:Beep@frequency)),c
  9876  003F7C  6E4B               	movlw	high(089h)
  9877  003F7E  0E00               	movwf	((c:Beep@duration+1)),c
  9878  003F80  6E4E               	movlw	low(089h)
  9879  003F82  0E89               	movwf	((c:Beep@duration)),c
  9880  003F84  6E4D               	call	_Beep	;wreg free
  9881  003F86  EC8E  F02B         	line	940
  9882                           ;main.c: 940:  Beep(466, 105);
  9883                           	movlw	high(071h)
  9884  003F8A  0E00               	movwf	((c:sleep@ms+1)),c
  9885  003F8C  6E03               	movlw	low(071h)
  9886  003F8E  0E71               	movwf	((c:sleep@ms)),c
  9887  003F90  6E02               	call	_sleep	;wreg free
  9888  003F92  ECF0  F02D         	line	941
  9889                           ;main.c: 941:  sleep(4);
  9890                           	movlw	high(02E3h)
  9891  003F96  0E02               	movwf	((c:Beep@frequency+1)),c
  9892  003F98  6E4C               	movlw	low(02E3h)
  9893  003F9A  0EE3               	movwf	((c:Beep@frequency)),c
  9894  003F9C  6E4B               	movlw	high(013Ch)
  9895  003F9E  0E01               	movwf	((c:Beep@duration+1)),c
  9896  003FA0  6E4E               	movlw	low(013Ch)
  9897  003FA2  0E3C               	movwf	((c:Beep@duration)),c
  9898  003FA4  6E4D               	call	_Beep	;wreg free
  9899  003FA6  EC8E  F02B         	line	942
  9900                           ;main.c: 942:  Beep(233, 93);
  9901                           	movlw	high(031h)
  9902  003FAA  0E00               	movwf	((c:sleep@ms+1)),c
  9903  003FAC  6E03               	movlw	low(031h)
  9904  003FAE  0E31               	movwf	((c:sleep@ms)),c
  9905  003FB0  6E02               	call	_sleep	;wreg free
  9906  003FB2  ECF0  F02D         	line	943
  9907                           ;main.c: 943:  sleep(45);
  9908                           	movlw	high(0293h)
  9909  003FB6  0E02               	movwf	((c:Beep@frequency+1)),c
  9910  003FB8  6E4C               	movlw	low(0293h)
  9911  003FBA  0E93               	movwf	((c:Beep@frequency)),c
  9912  003FBC  6E4B               	movlw	high(050h)
  9913  003FBE  0E00               	movwf	((c:Beep@duration+1)),c
  9914  003FC0  6E4E               	movlw	low(050h)
  9915  003FC2  0E50               	movwf	((c:Beep@duration)),c
  9916  003FC4  6E4D               	call	_Beep	;wreg free
  9917  003FC6  EC8E  F02B         	line	944
  9918                           ;main.c: 944:  Beep(466, 115);
  9919                           	movlw	high(032h)
  9920  003FCA  0E00               	movwf	((c:sleep@ms+1)),c
  9921  003FCC  6E03               	movlw	low(032h)
  9922  003FCE  0E32               	movwf	((c:sleep@ms)),c
  9923  003FD0  6E02               	call	_sleep	;wreg free
  9924  003FD2  ECF0  F02D         	line	945
  9925                           ;main.c: 945:  sleep(14);
  9926                           	movlw	high(01B8h)
  9927  003FD6  0E01               	movwf	((c:Beep@frequency+1)),c
  9928  003FD8  6E4C               	movlw	low(01B8h)
  9929  003FDA  0EB8               	movwf	((c:Beep@frequency)),c
  9930  003FDC  6E4B               	movlw	high(077h)
  9931  003FDE  0E00               	movwf	((c:Beep@duration+1)),c
  9932  003FE0  6E4E               	movlw	low(077h)
  9933  003FE2  0E77               	movwf	((c:Beep@duration)),c
  9934  003FE4  6E4D               	call	_Beep	;wreg free
  9935  003FE6  EC8E  F02B         	line	946
  9936                           ;main.c: 946:  Beep(1108, 72);
  9937                           	movlw	high(077h)
  9938  003FEA  0E00               	movwf	((c:sleep@ms+1)),c
  9939  003FEC  6E03               	movlw	low(077h)
  9940  003FEE  0E77               	movwf	((c:sleep@ms)),c
  9941  003FF0  6E02               	call	_sleep	;wreg free
  9942  003FF2  ECF0  F02D         	line	947
  9943                           ;main.c: 947:  sleep(29);
  9944                           	movlw	high(092h)
  9945  003FF6  0E00               	movwf	((c:Beep@frequency+1)),c
  9946  003FF8  6E4C               	movlw	low(092h)
  9947  003FFA  0E92               	movwf	((c:Beep@frequency)),c
  9948  003FFC  6E4B               	movlw	high(0A4h)
  9949  003FFE  0E00               	movwf	((c:Beep@duration+1)),c
  9950  004000  6E4E               	movlw	low(0A4h)
  9951  004002  0EA4               	movwf	((c:Beep@duration)),c
  9952  004004  6E4D               	call	_Beep	;wreg free
  9953  004006  EC8E  F02B         	line	948
  9954                           ;main.c: 948:  Beep(233, 113);
  9955                           	movlw	high(04Fh)
  9956  00400A  0E00               	movwf	((c:sleep@ms+1)),c
  9957  00400C  6E03               	movlw	low(04Fh)
  9958  00400E  0E4F               	movwf	((c:sleep@ms)),c
  9959  004010  6E02               	call	_sleep	;wreg free
  9960  004012  ECF0  F02D         	line	949
  9961                           ;main.c: 949:  sleep(135);
  9962                           	movlw	high(02E3h)
  9963  004016  0E02               	movwf	((c:Beep@frequency+1)),c
  9964  004018  6E4C               	movlw	low(02E3h)
  9965  00401A  0EE3               	movwf	((c:Beep@frequency)),c
  9966  00401C  6E4B               	movlw	high(0C3h)
  9967  00401E  0E00               	movwf	((c:Beep@duration+1)),c
  9968  004020  6E4E               	movlw	low(0C3h)
  9969  004022  0EC3               	movwf	((c:Beep@duration)),c
  9970  004024  6E4D               	call	_Beep	;wreg free
  9971  004026  EC8E  F02B         	line	950
  9972                           ;main.c: 950:  Beep(739, 63);
  9973                           	movlw	high(03Ah)
  9974  00402A  0E00               	movwf	((c:sleep@ms+1)),c
  9975  00402C  6E03               	movlw	low(03Ah)
  9976  00402E  0E3A               	movwf	((c:sleep@ms)),c
  9977  004030  6E02               	call	_sleep	;wreg free
  9978  004032  ECF0  F02D         	line	951
  9979                           ;main.c: 951:  sleep(43);
  9980                           	movlw	high(0293h)
  9981  004036  0E02               	movwf	((c:Beep@frequency+1)),c
  9982  004038  6E4C               	movlw	low(0293h)
  9983  00403A  0E93               	movwf	((c:Beep@frequency)),c
  9984  00403C  6E4B               	movlw	high(04Ah)
  9985  00403E  0E00               	movwf	((c:Beep@duration+1)),c
  9986  004040  6E4E               	movlw	low(04Ah)
  9987  004042  0E4A               	movwf	((c:Beep@duration)),c
  9988  004044  6E4D               	call	_Beep	;wreg free
  9989  004046  EC8E  F02B         	line	952
  9990                           ;main.c: 952:  Beep(587, 94);
  9991                           	movlw	high(0Ch)
  9992  00404A  0E00               	movwf	((c:sleep@ms+1)),c
  9993  00404C  6E03               	movlw	low(0Ch)
  9994  00404E  0E0C               	movwf	((c:sleep@ms)),c
  9995  004050  6E02               	call	_sleep	;wreg free
  9996  004052  ECF0  F02D         	line	953
  9997                           ;main.c: 953:  sleep(27);
  9998                           	movlw	high(02E3h)
  9999  004056  0E02               	movwf	((c:Beep@frequency+1)),c
 10000  004058  6E4C               	movlw	low(02E3h)
 10001  00405A  0EE3               	movwf	((c:Beep@frequency)),c
 10002  00405C  6E4B               	movlw	high(041h)
 10003  00405E  0E00               	movwf	((c:Beep@duration+1)),c
 10004  004060  6E4E               	movlw	low(041h)
 10005  004062  0E41               	movwf	((c:Beep@duration)),c
 10006  004064  6E4D               	call	_Beep	;wreg free
 10007  004066  EC8E  F02B         	line	954
 10008                           ;main.c: 954:  Beep(587, 224);
 10009                           	movlw	high(024Bh)
 10010  00406A  0E02               	movwf	((c:Beep@frequency+1)),c
 10011  00406C  6E4C               	movlw	low(024Bh)
 10012  00406E  0E4B               	movwf	((c:Beep@frequency)),c
 10013  004070  6E4B               	movlw	high(065h)
 10014  004072  0E00               	movwf	((c:Beep@duration+1)),c
 10015  004074  6E4E               	movlw	low(065h)
 10016  004076  0E65               	movwf	((c:Beep@duration)),c
 10017  004078  6E4D               	call	_Beep	;wreg free
 10018  00407A  EC8E  F02B         	line	955
 10019                           ;main.c: 955:  sleep(57);
 10020                           	movlw	high(04h)
 10021  00407E  0E00               	movwf	((c:sleep@ms+1)),c
 10022  004080  6E03               	movlw	low(04h)
 10023  004082  0E04               	movwf	((c:sleep@ms)),c
 10024  004084  6E02               	call	_sleep	;wreg free
 10025  004086  ECF0  F02D         	line	956
 10026                           ;main.c: 956:  Beep(987, 116);
 10027                           	movlw	high(0293h)
 10028  00408A  0E02               	movwf	((c:Beep@frequency+1)),c
 10029  00408C  6E4C               	movlw	low(0293h)
 10030  00408E  0E93               	movwf	((c:Beep@frequency)),c
 10031  004090  6E4B               	movlw	high(08Fh)
 10032  004092  0E00               	movwf	((c:Beep@duration+1)),c
 10033  004094  6E4E               	movlw	low(08Fh)
 10034  004096  0E8F               	movwf	((c:Beep@duration)),c
 10035  004098  6E4D               	call	_Beep	;wreg free
 10036  00409A  EC8E  F02B         	line	957
 10037                           ;main.c: 957:  sleep(118);
 10038                           	movlw	high(05Fh)
 10039  00409E  0E00               	movwf	((c:sleep@ms+1)),c
 10040  0040A0  6E03               	movlw	low(05Fh)
 10041  0040A2  0E5F               	movwf	((c:sleep@ms)),c
 10042  0040A4  6E02               	call	_sleep	;wreg free
 10043  0040A6  ECF0  F02D         	line	958
 10044                           ;main.c: 958:  Beep(1174, 81);
 10045                           	movlw	high(074h)
 10046  0040AA  0E00               	movwf	((c:Beep@frequency+1)),c
 10047  0040AC  6E4C               	movlw	low(074h)
 10048  0040AE  0E74               	movwf	((c:Beep@frequency)),c
 10049  0040B0  6E4B               	movlw	high(077h)
 10050  0040B2  0E00               	movwf	((c:Beep@duration+1)),c
 10051  0040B4  6E4E               	movlw	low(077h)
 10052  0040B6  0E77               	movwf	((c:Beep@duration)),c
 10053  0040B8  6E4D               	call	_Beep	;wreg free
 10054  0040BA  EC8E  F02B         	line	959
 10055                           ;main.c: 959:  sleep(39);
 10056                           	movlw	high(084h)
 10057  0040BE  0E00               	movwf	((c:sleep@ms+1)),c
 10058  0040C0  6E03               	movlw	low(084h)
 10059  0040C2  0E84               	movwf	((c:sleep@ms)),c
 10060  0040C4  6E02               	call	_sleep	;wreg free
 10061  0040C6  ECF0  F02D         	line	960
 10062                           ;main.c: 960:  Beep(987, 65);
 10063                           	movlw	high(0293h)
 10064  0040CA  0E02               	movwf	((c:Beep@frequency+1)),c
 10065  0040CC  6E4C               	movlw	low(0293h)
 10066  0040CE  0E93               	movwf	((c:Beep@frequency)),c
 10067  0040D0  6E4B               	movlw	high(013Ch)
 10068  0040D2  0E01               	movwf	((c:Beep@duration+1)),c
 10069  0040D4  6E4E               	movlw	low(013Ch)
 10070  0040D6  0E3C               	movwf	((c:Beep@duration)),c
 10071  0040D8  6E4D               	call	_Beep	;wreg free
 10072  0040DA  EC8E  F02B         	line	961
 10073                           ;main.c: 961:  sleep(56);
 10074                           	movlw	high(029h)
 10075  0040DE  0E00               	movwf	((c:sleep@ms+1)),c
 10076  0040E0  6E03               	movlw	low(029h)
 10077  0040E2  0E29               	movwf	((c:sleep@ms)),c
 10078  0040E4  6E02               	call	_sleep	;wreg free
 10079  0040E6  ECF0  F02D         	line	962
 10080                           ;main.c: 962:  Beep(164, 461);
 10081                           	movlw	high(024Bh)
 10082  0040EA  0E02               	movwf	((c:Beep@frequency+1)),c
 10083  0040EC  6E4C               	movlw	low(024Bh)
 10084  0040EE  0E4B               	movwf	((c:Beep@frequency)),c
 10085  0040F0  6E4B               	movlw	high(05Ah)
 10086  0040F2  0E00               	movwf	((c:Beep@duration+1)),c
 10087  0040F4  6E4E               	movlw	low(05Ah)
 10088  0040F6  0E5A               	movwf	((c:Beep@duration)),c
 10089  0040F8  6E4D               	call	_Beep	;wreg free
 10090  0040FA  EC8E  F02B         	line	963
 10091                           ;main.c: 963:  sleep(42);
 10092                           	movlw	high(025h)
 10093  0040FE  0E00               	movwf	((c:sleep@ms+1)),c
 10094  004100  6E03               	movlw	low(025h)
 10095  004102  0E25               	movwf	((c:sleep@ms)),c
 10096  004104  6E02               	call	_sleep	;wreg free
 10097  004106  ECF0  F02D         	line	964
 10098                           ;main.c: 964:  Beep(391, 132);
 10099                           	movlw	high(01D2h)
 10100  00410A  0E01               	movwf	((c:Beep@frequency+1)),c
 10101  00410C  6E4C               	movlw	low(01D2h)
 10102  00410E  0ED2               	movwf	((c:Beep@frequency)),c
 10103  004110  6E4B               	movlw	high(069h)
 10104  004112  0E00               	movwf	((c:Beep@duration+1)),c
 10105  004114  6E4E               	movlw	low(069h)
 10106  004116  0E69               	movwf	((c:Beep@duration)),c
 10107  004118  6E4D               	call	_Beep	;wreg free
 10108  00411A  EC8E  F02B         	line	965
 10109                           ;main.c: 965:  sleep(130);
 10110                           	movlw	high(04h)
 10111  00411E  0E00               	movwf	((c:sleep@ms+1)),c
 10112  004120  6E03               	movlw	low(04h)
 10113  004122  0E04               	movwf	((c:sleep@ms)),c
 10114  004124  6E02               	call	_sleep	;wreg free
 10115  004126  ECF0  F02D         	line	966
 10116                           ;main.c: 966:  Beep(987, 111);
 10117                           	movlw	high(0E9h)
 10118  00412A  0E00               	movwf	((c:Beep@frequency+1)),c
 10119  00412C  6E4C               	movlw	low(0E9h)
 10120  00412E  0EE9               	movwf	((c:Beep@frequency)),c
 10121  004130  6E4B               	movlw	high(05Dh)
 10122  004132  0E00               	movwf	((c:Beep@duration+1)),c
 10123  004134  6E4E               	movlw	low(05Dh)
 10124  004136  0E5D               	movwf	((c:Beep@duration)),c
 10125  004138  6E4D               	call	_Beep	;wreg free
 10126  00413A  EC8E  F02B         	line	967
 10127                           ;main.c: 967:  sleep(10);
 10128                           	movlw	high(02Dh)
 10129  00413E  0E00               	movwf	((c:sleep@ms+1)),c
 10130  004140  6E03               	movlw	low(02Dh)
 10131  004142  0E2D               	movwf	((c:sleep@ms)),c
 10132  004144  6E02               	call	_sleep	;wreg free
 10133  004146  ECF0  F02D         	line	968
 10134                           ;main.c: 968:  Beep(783, 64);
 10135                           	movlw	high(01D2h)
 10136  00414A  0E01               	movwf	((c:Beep@frequency+1)),c
 10137  00414C  6E4C               	movlw	low(01D2h)
 10138  00414E  0ED2               	movwf	((c:Beep@frequency)),c
 10139  004150  6E4B               	movlw	high(073h)
 10140  004152  0E00               	movwf	((c:Beep@duration+1)),c
 10141  004154  6E4E               	movlw	low(073h)
 10142  004156  0E73               	movwf	((c:Beep@duration)),c
 10143  004158  6E4D               	call	_Beep	;wreg free
 10144  00415A  EC8E  F02B         	line	969
 10145                           ;main.c: 969:  sleep(64);
 10146                           	movlw	high(0Eh)
 10147  00415E  0E00               	movwf	((c:sleep@ms+1)),c
 10148  004160  6E03               	movlw	low(0Eh)
 10149  004162  0E0E               	movwf	((c:sleep@ms)),c
 10150  004164  6E02               	call	_sleep	;wreg free
 10151  004166  ECF0  F02D         	line	970
 10152                           ;main.c: 970:  Beep(164, 255);
 10153                           	movlw	high(0454h)
 10154  00416A  0E04               	movwf	((c:Beep@frequency+1)),c
 10155  00416C  6E4C               	movlw	low(0454h)
 10156  00416E  0E54               	movwf	((c:Beep@frequency)),c
 10157  004170  6E4B               	movlw	high(048h)
 10158  004172  0E00               	movwf	((c:Beep@duration+1)),c
 10159  004174  6E4E               	movlw	low(048h)
 10160  004176  0E48               	movwf	((c:Beep@duration)),c
 10161  004178  6E4D               	call	_Beep	;wreg free
 10162  00417A  EC8E  F02B         	line	971
 10163                           ;main.c: 971:  sleep(8);
 10164                           	movlw	high(01Dh)
 10165  00417E  0E00               	movwf	((c:sleep@ms+1)),c
 10166  004180  6E03               	movlw	low(01Dh)
 10167  004182  0E1D               	movwf	((c:sleep@ms)),c
 10168  004184  6E02               	call	_sleep	;wreg free
 10169  004186  ECF0  F02D         	line	972
 10170                           ;main.c: 972:  Beep(493, 107);
 10171                           	movlw	high(0E9h)
 10172  00418A  0E00               	movwf	((c:Beep@frequency+1)),c
 10173  00418C  6E4C               	movlw	low(0E9h)
 10174  00418E  0EE9               	movwf	((c:Beep@frequency)),c
 10175  004190  6E4B               	movlw	high(071h)
 10176  004192  0E00               	movwf	((c:Beep@duration+1)),c
 10177  004194  6E4E               	movlw	low(071h)
 10178  004196  0E71               	movwf	((c:Beep@duration)),c
 10179  004198  6E4D               	call	_Beep	;wreg free
 10180  00419A  EC8E  F02B         	line	973
 10181                           ;main.c: 973:  sleep(6);
 10182                           	movlw	high(087h)
 10183  00419E  0E00               	movwf	((c:sleep@ms+1)),c
 10184  0041A0  6E03               	movlw	low(087h)
 10185  0041A2  0E87               	movwf	((c:sleep@ms)),c
 10186  0041A4  6E02               	call	_sleep	;wreg free
 10187  0041A6  ECF0  F02D         	line	974
 10188                           ;main.c: 974:  Beep(391, 93);
 10189                           	movlw	high(02E3h)
 10190  0041AA  0E02               	movwf	((c:Beep@frequency+1)),c
 10191  0041AC  6E4C               	movlw	low(02E3h)
 10192  0041AE  0EE3               	movwf	((c:Beep@frequency)),c
 10193  0041B0  6E4B               	movlw	high(03Fh)
 10194  0041B2  0E00               	movwf	((c:Beep@duration+1)),c
 10195  0041B4  6E4E               	movlw	low(03Fh)
 10196  0041B6  0E3F               	movwf	((c:Beep@duration)),c
 10197  0041B8  6E4D               	call	_Beep	;wreg free
 10198  0041BA  EC8E  F02B         	line	975
 10199                           ;main.c: 975:  sleep(24);
 10200                           	movlw	high(02Bh)
 10201  0041BE  0E00               	movwf	((c:sleep@ms+1)),c
 10202  0041C0  6E03               	movlw	low(02Bh)
 10203  0041C2  0E2B               	movwf	((c:sleep@ms)),c
 10204  0041C4  6E02               	call	_sleep	;wreg free
 10205  0041C6  ECF0  F02D         	line	976
 10206                           ;main.c: 976:  Beep(329, 155);
 10207                           	movlw	high(024Bh)
 10208  0041CA  0E02               	movwf	((c:Beep@frequency+1)),c
 10209  0041CC  6E4C               	movlw	low(024Bh)
 10210  0041CE  0E4B               	movwf	((c:Beep@frequency)),c
 10211  0041D0  6E4B               	movlw	high(05Eh)
 10212  0041D2  0E00               	movwf	((c:Beep@duration+1)),c
 10213  0041D4  6E4E               	movlw	low(05Eh)
 10214  0041D6  0E5E               	movwf	((c:Beep@duration)),c
 10215  0041D8  6E4D               	call	_Beep	;wreg free
 10216  0041DA  EC8E  F02B         	line	977
 10217                           ;main.c: 977:  sleep(90);
 10218                           	movlw	high(01Bh)
 10219  0041DE  0E00               	movwf	((c:sleep@ms+1)),c
 10220  0041E0  6E03               	movlw	low(01Bh)
 10221  0041E2  0E1B               	movwf	((c:sleep@ms)),c
 10222  0041E4  6E02               	call	_sleep	;wreg free
 10223  0041E6  ECF0  F02D         	line	978
 10224                           ;main.c: 978:  Beep(783, 118);
 10225                           	movlw	high(024Bh)
 10226  0041EA  0E02               	movwf	((c:Beep@frequency+1)),c
 10227  0041EC  6E4C               	movlw	low(024Bh)
 10228  0041EE  0E4B               	movwf	((c:Beep@frequency)),c
 10229  0041F0  6E4B               	movlw	high(0E0h)
 10230  0041F2  0E00               	movwf	((c:Beep@duration+1)),c
 10231  0041F4  6E4E               	movlw	low(0E0h)
 10232  0041F6  0EE0               	movwf	((c:Beep@duration)),c
 10233  0041F8  6E4D               	call	_Beep	;wreg free
 10234  0041FA  EC8E  F02B         	line	979
 10235                           ;main.c: 979:  Beep(659, 73);
 10236                           	movlw	high(039h)
 10237  0041FE  0E00               	movwf	((c:sleep@ms+1)),c
 10238  004200  6E03               	movlw	low(039h)
 10239  004202  0E39               	movwf	((c:sleep@ms)),c
 10240  004204  6E02               	call	_sleep	;wreg free
 10241  004206  ECF0  F02D         	line	980
 10242                           ;main.c: 980:  sleep(70);
 10243                           	movlw	high(03DBh)
 10244  00420A  0E03               	movwf	((c:Beep@frequency+1)),c
 10245  00420C  6E4C               	movlw	low(03DBh)
 10246  00420E  0EDB               	movwf	((c:Beep@frequency)),c
 10247  004210  6E4B               	movlw	high(074h)
 10248  004212  0E00               	movwf	((c:Beep@duration+1)),c
 10249  004214  6E4E               	movlw	low(074h)
 10250  004216  0E74               	movwf	((c:Beep@duration)),c
 10251  004218  6E4D               	call	_Beep	;wreg free
 10252  00421A  EC8E  F02B         	line	981
 10253                           ;main.c: 981:  Beep(164, 237);
 10254                           	movlw	high(076h)
 10255  00421E  0E00               	movwf	((c:sleep@ms+1)),c
 10256  004220  6E03               	movlw	low(076h)
 10257  004222  0E76               	movwf	((c:sleep@ms)),c
 10258  004224  6E02               	call	_sleep	;wreg free
 10259  004226  ECF0  F02D         	line	982
 10260                           ;main.c: 982:  sleep(2);
 10261                           	movlw	high(0496h)
 10262  00422A  0E04               	movwf	((c:Beep@frequency+1)),c
 10263  00422C  6E4C               	movlw	low(0496h)
 10264  00422E  0E96               	movwf	((c:Beep@frequency)),c
 10265  004230  6E4B               	movlw	high(051h)
 10266  004232  0E00               	movwf	((c:Beep@duration+1)),c
 10267  004234  6E4E               	movlw	low(051h)
 10268  004236  0E51               	movwf	((c:Beep@duration)),c
 10269  004238  6E4D               	call	_Beep	;wreg free
 10270  00423A  EC8E  F02B         	line	983
 10271                           ;main.c: 983:  Beep(329, 99);
 10272                           	movlw	high(027h)
 10273  00423E  0E00               	movwf	((c:sleep@ms+1)),c
 10274  004240  6E03               	movlw	low(027h)
 10275  004242  0E27               	movwf	((c:sleep@ms)),c
 10276  004244  6E02               	call	_sleep	;wreg free
 10277  004246  ECF0  F02D         	line	984
 10278                           ;main.c: 984:  sleep(4);
 10279                           	movlw	high(03DBh)
 10280  00424A  0E03               	movwf	((c:Beep@frequency+1)),c
 10281  00424C  6E4C               	movlw	low(03DBh)
 10282  00424E  0EDB               	movwf	((c:Beep@frequency)),c
 10283  004250  6E4B               	movlw	high(041h)
 10284  004252  0E00               	movwf	((c:Beep@duration+1)),c
 10285  004254  6E4E               	movlw	low(041h)
 10286  004256  0E41               	movwf	((c:Beep@duration)),c
 10287  004258  6E4D               	call	_Beep	;wreg free
 10288  00425A  EC8E  F02B         	line	985
 10289                           ;main.c: 985:  Beep(659, 64);
 10290                           	movlw	high(038h)
 10291  00425E  0E00               	movwf	((c:sleep@ms+1)),c
 10292  004260  6E03               	movlw	low(038h)
 10293  004262  0E38               	movwf	((c:sleep@ms)),c
 10294  004264  6E02               	call	_sleep	;wreg free
 10295  004266  ECF0  F02D         	line	986
 10296                           ;main.c: 986:  sleep(58);
 10297                           	movlw	high(0A4h)
 10298  00426A  0E00               	movwf	((c:Beep@frequency+1)),c
 10299  00426C  6E4C               	movlw	low(0A4h)
 10300  00426E  0EA4               	movwf	((c:Beep@frequency)),c
 10301  004270  6E4B               	movlw	high(01CDh)
 10302  004272  0E01               	movwf	((c:Beep@duration+1)),c
 10303  004274  6E4E               	movlw	low(01CDh)
 10304  004276  0ECD               	movwf	((c:Beep@duration)),c
 10305  004278  6E4D               	call	_Beep	;wreg free
 10306  00427A  EC8E  F02B         	line	987
 10307                           ;main.c: 987:  Beep(523, 120);
 10308                           	movlw	high(02Ah)
 10309  00427E  0E00               	movwf	((c:sleep@ms+1)),c
 10310  004280  6E03               	movlw	low(02Ah)
 10311  004282  0E2A               	movwf	((c:sleep@ms)),c
 10312  004284  6E02               	call	_sleep	;wreg free
 10313  004286  ECF0  F02D         	line	988
 10314                           ;main.c: 988:  sleep(119);
 10315                           	movlw	high(0187h)
 10316  00428A  0E01               	movwf	((c:Beep@frequency+1)),c
 10317  00428C  6E4C               	movlw	low(0187h)
 10318  00428E  0E87               	movwf	((c:Beep@frequency)),c
 10319  004290  6E4B               	movlw	high(084h)
 10320  004292  0E00               	movwf	((c:Beep@duration+1)),c
 10321  004294  6E4E               	movlw	low(084h)
 10322  004296  0E84               	movwf	((c:Beep@duration)),c
 10323  004298  6E4D               	call	_Beep	;wreg free
 10324  00429A  EC8E  F02B         	line	989
 10325                           ;main.c: 989:  Beep(523, 126);
 10326                           	movlw	high(082h)
 10327  00429E  0E00               	movwf	((c:sleep@ms+1)),c
 10328  0042A0  6E03               	movlw	low(082h)
 10329  0042A2  0E82               	movwf	((c:sleep@ms)),c
 10330  0042A4  6E02               	call	_sleep	;wreg free
 10331  0042A6  ECF0  F02D         	line	990
 10332                           ;main.c: 990:  sleep(123);
 10333                           	movlw	high(03DBh)
 10334  0042AA  0E03               	movwf	((c:Beep@frequency+1)),c
 10335  0042AC  6E4C               	movlw	low(03DBh)
 10336  0042AE  0EDB               	movwf	((c:Beep@frequency)),c
 10337  0042B0  6E4B               	movlw	high(06Fh)
 10338  0042B2  0E00               	movwf	((c:Beep@duration+1)),c
 10339  0042B4  6E4E               	movlw	low(06Fh)
 10340  0042B6  0E6F               	movwf	((c:Beep@duration)),c
 10341  0042B8  6E4D               	call	_Beep	;wreg free
 10342  0042BA  EC8E  F02B         	line	991
 10343                           ;main.c: 991:  Beep(493, 236);
 10344                           	movlw	high(0Ah)
 10345  0042BE  0E00               	movwf	((c:sleep@ms+1)),c
 10346  0042C0  6E03               	movlw	low(0Ah)
 10347  0042C2  0E0A               	movwf	((c:sleep@ms)),c
 10348  0042C4  6E02               	call	_sleep	;wreg free
 10349  0042C6  ECF0  F02D         	line	992
 10350                           ;main.c: 992:  Beep(466, 158);
 10351                           	movlw	high(030Fh)
 10352  0042CA  0E03               	movwf	((c:Beep@frequency+1)),c
 10353  0042CC  6E4C               	movlw	low(030Fh)
 10354  0042CE  0E0F               	movwf	((c:Beep@frequency)),c
 10355  0042D0  6E4B               	movlw	high(040h)
 10356  0042D2  0E00               	movwf	((c:Beep@duration+1)),c
 10357  0042D4  6E4E               	movlw	low(040h)
 10358  0042D6  0E40               	movwf	((c:Beep@duration)),c
 10359  0042D8  6E4D               	call	_Beep	;wreg free
 10360  0042DA  EC8E  F02B         	line	993
 10361                           ;main.c: 993:  sleep(122);
 10362                           	movlw	high(040h)
 10363  0042DE  0E00               	movwf	((c:sleep@ms+1)),c
 10364  0042E0  6E03               	movlw	low(040h)
 10365  0042E2  0E40               	movwf	((c:sleep@ms)),c
 10366  0042E4  6E02               	call	_sleep	;wreg free
 10367  0042E6  ECF0  F02D         	line	994
 10368                           ;main.c: 994:  Beep(391, 228);
 10369                           	movlw	high(0A4h)
 10370  0042EA  0E00               	movwf	((c:Beep@frequency+1)),c
 10371  0042EC  6E4C               	movlw	low(0A4h)
 10372  0042EE  0EA4               	movwf	((c:Beep@frequency)),c
 10373  0042F0  6E4B               	movlw	high(0FFh)
 10374  0042F2  0E00               	movwf	((c:Beep@duration+1)),c
 10375  0042F4  6E4E               	setf	((c:Beep@duration)),c
 10376  0042F6  684D               	call	_Beep	;wreg free
 10377  0042F8  EC8E  F02B         	line	995
 10378                           ;main.c: 995:  sleep(27);
 10379                           	movlw	high(08h)
 10380  0042FC  0E00               	movwf	((c:sleep@ms+1)),c
 10381  0042FE  6E03               	movlw	low(08h)
 10382  004300  0E08               	movwf	((c:sleep@ms)),c
 10383  004302  6E02               	call	_sleep	;wreg free
 10384  004304  ECF0  F02D         	line	996
 10385                           ;main.c: 996:  Beep(277, 121);
 10386                           	movlw	high(01EDh)
 10387  004308  0E01               	movwf	((c:Beep@frequency+1)),c
 10388  00430A  6E4C               	movlw	low(01EDh)
 10389  00430C  0EED               	movwf	((c:Beep@frequency)),c
 10390  00430E  6E4B               	movlw	high(06Bh)
 10391  004310  0E00               	movwf	((c:Beep@duration+1)),c
 10392  004312  6E4E               	movlw	low(06Bh)
 10393  004314  0E6B               	movwf	((c:Beep@duration)),c
 10394  004316  6E4D               	call	_Beep	;wreg free
 10395  004318  EC8E  F02B         	line	997
 10396                           ;main.c: 997:  sleep(111);
 10397                           	movlw	high(06h)
 10398  00431C  0E00               	movwf	((c:sleep@ms+1)),c
 10399  00431E  6E03               	movlw	low(06h)
 10400  004320  0E06               	movwf	((c:sleep@ms)),c
 10401  004322  6E02               	call	_sleep	;wreg free
 10402  004324  ECF0  F02D         	line	998
 10403                           ;main.c: 998:  Beep(493, 187);
 10404                           	movlw	high(0187h)
 10405  004328  0E01               	movwf	((c:Beep@frequency+1)),c
 10406  00432A  6E4C               	movlw	low(0187h)
 10407  00432C  0E87               	movwf	((c:Beep@frequency)),c
 10408  00432E  6E4B               	movlw	high(05Dh)
 10409  004330  0E00               	movwf	((c:Beep@duration+1)),c
 10410  004332  6E4E               	movlw	low(05Dh)
 10411  004334  0E5D               	movwf	((c:Beep@duration)),c
 10412  004336  6E4D               	call	_Beep	;wreg free
 10413  004338  EC8E  F02B         	line	999
 10414                           ;main.c: 999:  sleep(49);
 10415                           	movlw	high(018h)
 10416  00433C  0E00               	movwf	((c:sleep@ms+1)),c
 10417  00433E  6E03               	movlw	low(018h)
 10418  004340  0E18               	movwf	((c:sleep@ms)),c
 10419  004342  6E02               	call	_sleep	;wreg free
 10420  004344  ECF0  F02D         	line	1000
 10421                           ;main.c: 1000:  Beep(466, 99);
 10422                           	movlw	high(0149h)
 10423  004348  0E01               	movwf	((c:Beep@frequency+1)),c
 10424  00434A  6E4C               	movlw	low(0149h)
 10425  00434C  0E49               	movwf	((c:Beep@frequency)),c
 10426  00434E  6E4B               	movlw	high(09Bh)
 10427  004350  0E00               	movwf	((c:Beep@duration+1)),c
 10428  004352  6E4E               	movlw	low(09Bh)
 10429  004354  0E9B               	movwf	((c:Beep@duration)),c
 10430  004356  6E4D               	call	_Beep	;wreg free
 10431  004358  EC8E  F02B         	line	1001
 10432                           ;main.c: 1001:  sleep(25);
 10433                           	movlw	high(05Ah)
 10434  00435C  0E00               	movwf	((c:sleep@ms+1)),c
 10435  00435E  6E03               	movlw	low(05Ah)
 10436  004360  0E5A               	movwf	((c:sleep@ms)),c
 10437  004362  6E02               	call	_sleep	;wreg free
 10438  004364  ECF0  F02D         	line	1002
 10439                           ;main.c: 1002:  Beep(554, 84);
 10440                           	movlw	high(030Fh)
 10441  004368  0E03               	movwf	((c:Beep@frequency+1)),c
 10442  00436A  6E4C               	movlw	low(030Fh)
 10443  00436C  0E0F               	movwf	((c:Beep@frequency)),c
 10444  00436E  6E4B               	movlw	high(076h)
 10445  004370  0E00               	movwf	((c:Beep@duration+1)),c
 10446  004372  6E4E               	movlw	low(076h)
 10447  004374  0E76               	movwf	((c:Beep@duration)),c
 10448  004376  6E4D               	call	_Beep	;wreg free
 10449  004378  EC8E  F02B         	line	1003
 10450                           ;main.c: 1003:  sleep(43);
 10451                           	movlw	high(0293h)
 10452  00437C  0E02               	movwf	((c:Beep@frequency+1)),c
 10453  00437E  6E4C               	movlw	low(0293h)
 10454  004380  0E93               	movwf	((c:Beep@frequency)),c
 10455  004382  6E4B               	movlw	high(049h)
 10456  004384  0E00               	movwf	((c:Beep@duration+1)),c
 10457  004386  6E4E               	movlw	low(049h)
 10458  004388  0E49               	movwf	((c:Beep@duration)),c
 10459  00438A  6E4D               	call	_Beep	;wreg free
 10460  00438C  EC8E  F02B         	line	1004
 10461                           ;main.c: 1004:  Beep(554, 157);
 10462                           	movlw	high(046h)
 10463  004390  0E00               	movwf	((c:sleep@ms+1)),c
 10464  004392  6E03               	movlw	low(046h)
 10465  004394  0E46               	movwf	((c:sleep@ms)),c
 10466  004396  6E02               	call	_sleep	;wreg free
 10467  004398  ECF0  F02D         	line	1005
 10468                           ;main.c: 1005:  sleep(92);
 10469                           	movlw	high(0A4h)
 10470  00439C  0E00               	movwf	((c:Beep@frequency+1)),c
 10471  00439E  6E4C               	movlw	low(0A4h)
 10472  0043A0  0EA4               	movwf	((c:Beep@frequency)),c
 10473  0043A2  6E4B               	movlw	high(0EDh)
 10474  0043A4  0E00               	movwf	((c:Beep@duration+1)),c
 10475  0043A6  6E4E               	movlw	low(0EDh)
 10476  0043A8  0EED               	movwf	((c:Beep@duration)),c
 10477  0043AA  6E4D               	call	_Beep	;wreg free
 10478  0043AC  EC8E  F02B         	line	1006
 10479                           ;main.c: 1006:  Beep(587, 89);
 10480                           	movlw	high(02h)
 10481  0043B0  0E00               	movwf	((c:sleep@ms+1)),c
 10482  0043B2  6E03               	movlw	low(02h)
 10483  0043B4  0E02               	movwf	((c:sleep@ms)),c
 10484  0043B6  6E02               	call	_sleep	;wreg free
 10485  0043B8  ECF0  F02D         	line	1007
 10486                           ;main.c: 1007:  sleep(20);
 10487                           	movlw	high(0149h)
 10488  0043BC  0E01               	movwf	((c:Beep@frequency+1)),c
 10489  0043BE  6E4C               	movlw	low(0149h)
 10490  0043C0  0E49               	movwf	((c:Beep@frequency)),c
 10491  0043C2  6E4B               	movlw	high(063h)
 10492  0043C4  0E00               	movwf	((c:Beep@duration+1)),c
 10493  0043C6  6E4E               	movlw	low(063h)
 10494  0043C8  0E63               	movwf	((c:Beep@duration)),c
 10495  0043CA  6E4D               	call	_Beep	;wreg free
 10496  0043CC  EC8E  F02B         	line	1008
 10497                           ;main.c: 1008:  Beep(554, 83);
 10498                           	movlw	high(04h)
 10499  0043D0  0E00               	movwf	((c:sleep@ms+1)),c
 10500  0043D2  6E03               	movlw	low(04h)
 10501  0043D4  0E04               	movwf	((c:sleep@ms)),c
 10502  0043D6  6E02               	call	_sleep	;wreg free
 10503  0043D8  ECF0  F02D         	line	1009
 10504                           ;main.c: 1009:  sleep(45);
 10505                           	movlw	high(0293h)
 10506  0043DC  0E02               	movwf	((c:Beep@frequency+1)),c
 10507  0043DE  6E4C               	movlw	low(0293h)
 10508  0043E0  0E93               	movwf	((c:Beep@frequency)),c
 10509  0043E2  6E4B               	movlw	high(040h)
 10510  0043E4  0E00               	movwf	((c:Beep@duration+1)),c
 10511  0043E6  6E4E               	movlw	low(040h)
 10512  0043E8  0E40               	movwf	((c:Beep@duration)),c
 10513  0043EA  6E4D               	call	_Beep	;wreg free
 10514  0043EC  EC8E  F02B         	line	1010
 10515                           ;main.c: 1010:  Beep(493, 226);
 10516                           	movlw	high(03Ah)
 10517  0043F0  0E00               	movwf	((c:sleep@ms+1)),c
 10518  0043F2  6E03               	movlw	low(03Ah)
 10519  0043F4  0E3A               	movwf	((c:sleep@ms)),c
 10520  0043F6  6E02               	call	_sleep	;wreg free
 10521  0043F8  ECF0  F02D         	line	1011
 10522                           ;main.c: 1011:  sleep(30);
 10523                           	movlw	high(020Bh)
 10524  0043FC  0E02               	movwf	((c:Beep@frequency+1)),c
 10525  0043FE  6E4C               	movlw	low(020Bh)
 10526  004400  0E0B               	movwf	((c:Beep@frequency)),c
 10527  004402  6E4B               	movlw	high(078h)
 10528  004404  0E00               	movwf	((c:Beep@duration+1)),c
 10529  004406  6E4E               	movlw	low(078h)
 10530  004408  0E78               	movwf	((c:Beep@duration)),c
 10531  00440A  6E4D               	call	_Beep	;wreg free
 10532  00440C  EC8E  F02B         	line	1012
 10533                           ;main.c: 1012:  Beep(493, 108);
 10534                           	movlw	high(077h)
 10535  004410  0E00               	movwf	((c:sleep@ms+1)),c
 10536  004412  6E03               	movlw	low(077h)
 10537  004414  0E77               	movwf	((c:sleep@ms)),c
 10538  004416  6E02               	call	_sleep	;wreg free
 10539  004418  ECF0  F02D         	line	1013
 10540                           ;main.c: 1013:  sleep(6);
 10541                           	movlw	high(020Bh)
 10542  00441C  0E02               	movwf	((c:Beep@frequency+1)),c
 10543  00441E  6E4C               	movlw	low(020Bh)
 10544  004420  0E0B               	movwf	((c:Beep@frequency)),c
 10545  004422  6E4B               	movlw	high(07Eh)
 10546  004424  0E00               	movwf	((c:Beep@duration+1)),c
 10547  004426  6E4E               	movlw	low(07Eh)
 10548  004428  0E7E               	movwf	((c:Beep@duration)),c
 10549  00442A  6E4D               	call	_Beep	;wreg free
 10550  00442C  EC8E  F02B         	line	1014
 10551                           ;main.c: 1014:  Beep(246, 81);
 10552                           	movlw	high(07Bh)
 10553  004430  0E00               	movwf	((c:sleep@ms+1)),c
 10554  004432  6E03               	movlw	low(07Bh)
 10555  004434  0E7B               	movwf	((c:sleep@ms)),c
 10556  004436  6E02               	call	_sleep	;wreg free
 10557  004438  ECF0  F02D         	line	1015
 10558                           ;main.c: 1015:  sleep(45);
 10559                           	movlw	high(01EDh)
 10560  00443C  0E01               	movwf	((c:Beep@frequency+1)),c
 10561  00443E  6E4C               	movlw	low(01EDh)
 10562  004440  0EED               	movwf	((c:Beep@frequency)),c
 10563  004442  6E4B               	movlw	high(0ECh)
 10564  004444  0E00               	movwf	((c:Beep@duration+1)),c
 10565  004446  6E4E               	movlw	low(0ECh)
 10566  004448  0EEC               	movwf	((c:Beep@duration)),c
 10567  00444A  6E4D               	call	_Beep	;wreg free
 10568  00444C  EC8E  F02B         	line	1016
 10569                           ;main.c: 1016:  Beep(739, 125);
 10570                           	movlw	high(01D2h)
 10571  004450  0E01               	movwf	((c:Beep@frequency+1)),c
 10572  004452  6E4C               	movlw	low(01D2h)
 10573  004454  0ED2               	movwf	((c:Beep@frequency)),c
 10574  004456  6E4B               	movlw	high(09Eh)
 10575  004458  0E00               	movwf	((c:Beep@duration+1)),c
 10576  00445A  6E4E               	movlw	low(09Eh)
 10577  00445C  0E9E               	movwf	((c:Beep@duration)),c
 10578  00445E  6E4D               	call	_Beep	;wreg free
 10579  004460  EC8E  F02B         	line	1017
 10580                           ;main.c: 1017:  sleep(6);
 10581                           	movlw	high(07Ah)
 10582  004464  0E00               	movwf	((c:sleep@ms+1)),c
 10583  004466  6E03               	movlw	low(07Ah)
 10584  004468  0E7A               	movwf	((c:sleep@ms)),c
 10585  00446A  6E02               	call	_sleep	;wreg free
 10586  00446C  ECF0  F02D         	line	1018
 10587                           ;main.c: 1018:  Beep(493, 87);
 10588                           	movlw	high(0187h)
 10589  004470  0E01               	movwf	((c:Beep@frequency+1)),c
 10590  004472  6E4C               	movlw	low(0187h)
 10591  004474  0E87               	movwf	((c:Beep@frequency)),c
 10592  004476  6E4B               	movlw	high(0E4h)
 10593  004478  0E00               	movwf	((c:Beep@duration+1)),c
 10594  00447A  6E4E               	movlw	low(0E4h)
 10595  00447C  0EE4               	movwf	((c:Beep@duration)),c
 10596  00447E  6E4D               	call	_Beep	;wreg free
 10597  004480  EC8E  F02B         	line	1019
 10598                           ;main.c: 1019:  sleep(37);
 10599                           	movlw	high(01Bh)
 10600  004484  0E00               	movwf	((c:sleep@ms+1)),c
 10601  004486  6E03               	movlw	low(01Bh)
 10602  004488  0E1B               	movwf	((c:sleep@ms)),c
 10603  00448A  6E02               	call	_sleep	;wreg free
 10604  00448C  ECF0  F02D         	line	1020
 10605                           ;main.c: 1020:  Beep(587, 96);
 10606                           	movlw	high(0115h)
 10607  004490  0E01               	movwf	((c:Beep@frequency+1)),c
 10608  004492  6E4C               	movlw	low(0115h)
 10609  004494  0E15               	movwf	((c:Beep@frequency)),c
 10610  004496  6E4B               	movlw	high(079h)
 10611  004498  0E00               	movwf	((c:Beep@duration+1)),c
 10612  00449A  6E4E               	movlw	low(079h)
 10613  00449C  0E79               	movwf	((c:Beep@duration)),c
 10614  00449E  6E4D               	call	_Beep	;wreg free
 10615  0044A0  EC8E  F02B         	line	1021
 10616                           ;main.c: 1021:  sleep(12);
 10617                           	movlw	high(06Fh)
 10618  0044A4  0E00               	movwf	((c:sleep@ms+1)),c
 10619  0044A6  6E03               	movlw	low(06Fh)
 10620  0044A8  0E6F               	movwf	((c:sleep@ms)),c
 10621  0044AA  6E02               	call	_sleep	;wreg free
 10622  0044AC  ECF0  F02D         	line	1022
 10623                           ;main.c: 1022:  Beep(739, 86);
 10624                           	movlw	high(01EDh)
 10625  0044B0  0E01               	movwf	((c:Beep@frequency+1)),c
 10626  0044B2  6E4C               	movlw	low(01EDh)
 10627  0044B4  0EED               	movwf	((c:Beep@frequency)),c
 10628  0044B6  6E4B               	movlw	high(0BBh)
 10629  0044B8  0E00               	movwf	((c:Beep@duration+1)),c
 10630  0044BA  6E4E               	movlw	low(0BBh)
 10631  0044BC  0EBB               	movwf	((c:Beep@duration)),c
 10632  0044BE  6E4D               	call	_Beep	;wreg free
 10633  0044C0  EC8E  F02B         	line	1023
 10634                           ;main.c: 1023:  sleep(46);
 10635                           	movlw	high(031h)
 10636  0044C4  0E00               	movwf	((c:sleep@ms+1)),c
 10637  0044C6  6E03               	movlw	low(031h)
 10638  0044C8  0E31               	movwf	((c:sleep@ms)),c
 10639  0044CA  6E02               	call	_sleep	;wreg free
 10640  0044CC  ECF0  F02D         	line	1024
 10641                           ;main.c: 1024:  Beep(987, 101);
 10642                           	movlw	high(01D2h)
 10643  0044D0  0E01               	movwf	((c:Beep@frequency+1)),c
 10644  0044D2  6E4C               	movlw	low(01D2h)
 10645  0044D4  0ED2               	movwf	((c:Beep@frequency)),c
 10646  0044D6  6E4B               	movlw	high(063h)
 10647  0044D8  0E00               	movwf	((c:Beep@duration+1)),c
 10648  0044DA  6E4E               	movlw	low(063h)
 10649  0044DC  0E63               	movwf	((c:Beep@duration)),c
 10650  0044DE  6E4D               	call	_Beep	;wreg free
 10651  0044E0  EC8E  F02B         	line	1025
 10652                           ;main.c: 1025:  sleep(139);
 10653                           	movlw	high(019h)
 10654  0044E4  0E00               	movwf	((c:sleep@ms+1)),c
 10655  0044E6  6E03               	movlw	low(019h)
 10656  0044E8  0E19               	movwf	((c:sleep@ms)),c
 10657  0044EA  6E02               	call	_sleep	;wreg free
 10658  0044EC  ECF0  F02D         	line	1026
 10659                           ;main.c: 1026:  Beep(123, 108);
 10660                           	movlw	high(022Ah)
 10661  0044F0  0E02               	movwf	((c:Beep@frequency+1)),c
 10662  0044F2  6E4C               	movlw	low(022Ah)
 10663  0044F4  0E2A               	movwf	((c:Beep@frequency)),c
 10664  0044F6  6E4B               	movlw	high(054h)
 10665  0044F8  0E00               	movwf	((c:Beep@duration+1)),c
 10666  0044FA  6E4E               	movlw	low(054h)
 10667  0044FC  0E54               	movwf	((c:Beep@duration)),c
 10668  0044FE  6E4D               	call	_Beep	;wreg free
 10669  004500  EC8E  F02B         	line	1027
 10670                           ;main.c: 1027:  sleep(125);
 10671                           	movlw	high(02Bh)
 10672  004504  0E00               	movwf	((c:sleep@ms+1)),c
 10673  004506  6E03               	movlw	low(02Bh)
 10674  004508  0E2B               	movwf	((c:sleep@ms)),c
 10675  00450A  6E02               	call	_sleep	;wreg free
 10676  00450C  ECF0  F02D         	line	1028
 10677                           ;main.c: 1028:  Beep(184, 129);
 10678                           	movlw	high(022Ah)
 10679  004510  0E02               	movwf	((c:Beep@frequency+1)),c
 10680  004512  6E4C               	movlw	low(022Ah)
 10681  004514  0E2A               	movwf	((c:Beep@frequency)),c
 10682  004516  6E4B               	movlw	high(09Dh)
 10683  004518  0E00               	movwf	((c:Beep@duration+1)),c
 10684  00451A  6E4E               	movlw	low(09Dh)
 10685  00451C  0E9D               	movwf	((c:Beep@duration)),c
 10686  00451E  6E4D               	call	_Beep	;wreg free
 10687  004520  EC8E  F02B         	line	1029
 10688                           ;main.c: 1029:  Beep(587, 125);
 10689                           	movlw	high(05Ch)
 10690  004524  0E00               	movwf	((c:sleep@ms+1)),c
 10691  004526  6E03               	movlw	low(05Ch)
 10692  004528  0E5C               	movwf	((c:sleep@ms)),c
 10693  00452A  6E02               	call	_sleep	;wreg free
 10694  00452C  ECF0  F02D         	line	1030
 10695                           ;main.c: 1030:  sleep(27);
 10696                           	movlw	high(024Bh)
 10697  004530  0E02               	movwf	((c:Beep@frequency+1)),c
 10698  004532  6E4C               	movlw	low(024Bh)
 10699  004534  0E4B               	movwf	((c:Beep@frequency)),c
 10700  004536  6E4B               	movlw	high(059h)
 10701  004538  0E00               	movwf	((c:Beep@duration+1)),c
 10702  00453A  6E4E               	movlw	low(059h)
 10703  00453C  0E59               	movwf	((c:Beep@duration)),c
 10704  00453E  6E4D               	call	_Beep	;wreg free
 10705  004540  EC8E  F02B         	line	1031
 10706                           ;main.c: 1031:  Beep(554, 113);
 10707                           	movlw	high(014h)
 10708  004544  0E00               	movwf	((c:sleep@ms+1)),c
 10709  004546  6E03               	movlw	low(014h)
 10710  004548  0E14               	movwf	((c:sleep@ms)),c
 10711  00454A  6E02               	call	_sleep	;wreg free
 10712  00454C  ECF0  F02D         	line	1032
 10713                           ;main.c: 1032:  sleep(25);
 10714                           	movlw	high(022Ah)
 10715  004550  0E02               	movwf	((c:Beep@frequency+1)),c
 10716  004552  6E4C               	movlw	low(022Ah)
 10717  004554  0E2A               	movwf	((c:Beep@frequency)),c
 10718  004556  6E4B               	movlw	high(053h)
 10719  004558  0E00               	movwf	((c:Beep@duration+1)),c
 10720  00455A  6E4E               	movlw	low(053h)
 10721  00455C  0E53               	movwf	((c:Beep@duration)),c
 10722  00455E  6E4D               	call	_Beep	;wreg free
 10723  004560  EC8E  F02B         	line	1033
 10724                           ;main.c: 1033:  Beep(587, 91);
 10725                           	movlw	high(02Dh)
 10726  004564  0E00               	movwf	((c:sleep@ms+1)),c
 10727  004566  6E03               	movlw	low(02Dh)
 10728  004568  0E2D               	movwf	((c:sleep@ms)),c
 10729  00456A  6E02               	call	_sleep	;wreg free
 10730  00456C  ECF0  F02D         	line	1034
 10731                           ;main.c: 1034:  sleep(85);
 10732                           	movlw	high(01EDh)
 10733  004570  0E01               	movwf	((c:Beep@frequency+1)),c
 10734  004572  6E4C               	movlw	low(01EDh)
 10735  004574  0EED               	movwf	((c:Beep@frequency)),c
 10736  004576  6E4B               	movlw	high(0E2h)
 10737  004578  0E00               	movwf	((c:Beep@duration+1)),c
 10738  00457A  6E4E               	movlw	low(0E2h)
 10739  00457C  0EE2               	movwf	((c:Beep@duration)),c
 10740  00457E  6E4D               	call	_Beep	;wreg free
 10741  004580  EC8E  F02B         	line	1035
 10742                           ;main.c: 1035:  Beep(554, 320);
 10743                           	movlw	high(01Eh)
 10744  004584  0E00               	movwf	((c:sleep@ms+1)),c
 10745  004586  6E03               	movlw	low(01Eh)
 10746  004588  0E1E               	movwf	((c:sleep@ms)),c
 10747  00458A  6E02               	call	_sleep	;wreg free
 10748  00458C  ECF0  F02D         	line	1036
 10749                           ;main.c: 1036: }
 10750                           	movlw	high(01EDh)
 10751  004590  0E01               	movwf	((c:Beep@frequency+1)),c
 10752  004592  6E4C               	movlw	low(01EDh)
 10753  004594  0EED               	movwf	((c:Beep@frequency)),c
 10754  004596  6E4B               	movlw	high(06Ch)
 10755  004598  0E00               	movwf	((c:Beep@duration+1)),c
 10756  00459A  6E4E               	movlw	low(06Ch)
 10757  00459C  0E6C               	movwf	((c:Beep@duration)),c
 10758  00459E  6E4D               	call	_Beep	;wreg free
 10759  0045A0  EC8E  F02B         	line	1037
 10760                           	movlw	high(06h)
 10761  0045A4  0E00               	movwf	((c:sleep@ms+1)),c
 10762  0045A6  6E03               	movlw	low(06h)
 10763  0045A8  0E06               	movwf	((c:sleep@ms)),c
 10764  0045AA  6E02               	call	_sleep	;wreg free
 10765  0045AC  ECF0  F02D         	line	1038
 10766                           	movlw	high(0F6h)
 10767  0045B0  0E00               	movwf	((c:Beep@frequency+1)),c
 10768  0045B2  6E4C               	movlw	low(0F6h)
 10769  0045B4  0EF6               	movwf	((c:Beep@frequency)),c
 10770  0045B6  6E4B               	movlw	high(051h)
 10771  0045B8  0E00               	movwf	((c:Beep@duration+1)),c
 10772  0045BA  6E4E               	movlw	low(051h)
 10773  0045BC  0E51               	movwf	((c:Beep@duration)),c
 10774  0045BE  6E4D               	call	_Beep	;wreg free
 10775  0045C0  EC8E  F02B         	line	1039
 10776                           	movlw	high(02Dh)
 10777  0045C4  0E00               	movwf	((c:sleep@ms+1)),c
 10778  0045C6  6E03               	movlw	low(02Dh)
 10779  0045C8  0E2D               	movwf	((c:sleep@ms)),c
 10780  0045CA  6E02               	call	_sleep	;wreg free
 10781  0045CC  ECF0  F02D         	line	1040
 10782                           	movlw	high(02E3h)
 10783  0045D0  0E02               	movwf	((c:Beep@frequency+1)),c
 10784  0045D2  6E4C               	movlw	low(02E3h)
 10785  0045D4  0EE3               	movwf	((c:Beep@frequency)),c
 10786  0045D6  6E4B               	movlw	high(07Dh)
 10787  0045D8  0E00               	movwf	((c:Beep@duration+1)),c
 10788  0045DA  6E4E               	movlw	low(07Dh)
 10789  0045DC  0E7D               	movwf	((c:Beep@duration)),c
 10790  0045DE  6E4D               	call	_Beep	;wreg free
 10791  0045E0  EC8E  F02B         	line	1041
 10792                           	movlw	high(06h)
 10793  0045E4  0E00               	movwf	((c:sleep@ms+1)),c
 10794  0045E6  6E03               	movlw	low(06h)
 10795  0045E8  0E06               	movwf	((c:sleep@ms)),c
 10796  0045EA  6E02               	call	_sleep	;wreg free
 10797  0045EC  ECF0  F02D         	line	1042
 10798                           	movlw	high(01EDh)
 10799  0045F0  0E01               	movwf	((c:Beep@frequency+1)),c
 10800  0045F2  6E4C               	movlw	low(01EDh)
 10801  0045F4  0EED               	movwf	((c:Beep@frequency)),c
 10802  0045F6  6E4B               	movlw	high(057h)
 10803  0045F8  0E00               	movwf	((c:Beep@duration+1)),c
 10804  0045FA  6E4E               	movlw	low(057h)
 10805  0045FC  0E57               	movwf	((c:Beep@duration)),c
 10806  0045FE  6E4D               	call	_Beep	;wreg free
 10807  004600  EC8E  F02B         	line	1043
 10808                           	movlw	high(025h)
 10809  004604  0E00               	movwf	((c:sleep@ms+1)),c
 10810  004606  6E03               	movlw	low(025h)
 10811  004608  0E25               	movwf	((c:sleep@ms)),c
 10812  00460A  6E02               	call	_sleep	;wreg free
 10813  00460C  ECF0  F02D         	line	1044
 10814                           	movlw	high(024Bh)
 10815  004610  0E02               	movwf	((c:Beep@frequency+1)),c
 10816  004612  6E4C               	movlw	low(024Bh)
 10817  004614  0E4B               	movwf	((c:Beep@frequency)),c
 10818  004616  6E4B               	movlw	high(060h)
 10819  004618  0E00               	movwf	((c:Beep@duration+1)),c
 10820  00461A  6E4E               	movlw	low(060h)
 10821  00461C  0E60               	movwf	((c:Beep@duration)),c
 10822  00461E  6E4D               	call	_Beep	;wreg free
 10823  004620  EC8E  F02B         	line	1045
 10824                           	movlw	high(0Ch)
 10825  004624  0E00               	movwf	((c:sleep@ms+1)),c
 10826  004626  6E03               	movlw	low(0Ch)
 10827  004628  0E0C               	movwf	((c:sleep@ms)),c
 10828  00462A  6E02               	call	_sleep	;wreg free
 10829  00462C  ECF0  F02D         	line	1046
 10830                           	movlw	high(02E3h)
 10831  004630  0E02               	movwf	((c:Beep@frequency+1)),c
 10832  004632  6E4C               	movlw	low(02E3h)
 10833  004634  0EE3               	movwf	((c:Beep@frequency)),c
 10834  004636  6E4B               	movlw	high(056h)
 10835  004638  0E00               	movwf	((c:Beep@duration+1)),c
 10836  00463A  6E4E               	movlw	low(056h)
 10837  00463C  0E56               	movwf	((c:Beep@duration)),c
 10838  00463E  6E4D               	call	_Beep	;wreg free
 10839  004640  EC8E  F02B         	line	1047
 10840                           	movlw	high(02Eh)
 10841  004644  0E00               	movwf	((c:sleep@ms+1)),c
 10842  004646  6E03               	movlw	low(02Eh)
 10843  004648  0E2E               	movwf	((c:sleep@ms)),c
 10844  00464A  6E02               	call	_sleep	;wreg free
 10845  00464C  ECF0  F02D         	line	1048
 10846                           	movlw	high(03DBh)
 10847  004650  0E03               	movwf	((c:Beep@frequency+1)),c
 10848  004652  6E4C               	movlw	low(03DBh)
 10849  004654  0EDB               	movwf	((c:Beep@frequency)),c
 10850  004656  6E4B               	movlw	high(065h)
 10851  004658  0E00               	movwf	((c:Beep@duration+1)),c
 10852  00465A  6E4E               	movlw	low(065h)
 10853  00465C  0E65               	movwf	((c:Beep@duration)),c
 10854  00465E  6E4D               	call	_Beep	;wreg free
 10855  004660  EC8E  F02B         	line	1049
 10856                           	movlw	high(08Bh)
 10857  004664  0E00               	movwf	((c:sleep@ms+1)),c
 10858  004666  6E03               	movlw	low(08Bh)
 10859  004668  0E8B               	movwf	((c:sleep@ms)),c
 10860  00466A  6E02               	call	_sleep	;wreg free
 10861  00466C  ECF0  F02D         	line	1050
 10862                           	movlw	high(07Bh)
 10863  004670  0E00               	movwf	((c:Beep@frequency+1)),c
 10864  004672  6E4C               	movlw	low(07Bh)
 10865  004674  0E7B               	movwf	((c:Beep@frequency)),c
 10866  004676  6E4B               	movlw	high(06Ch)
 10867  004678  0E00               	movwf	((c:Beep@duration+1)),c
 10868  00467A  6E4E               	movlw	low(06Ch)
 10869  00467C  0E6C               	movwf	((c:Beep@duration)),c
 10870  00467E  6E4D               	call	_Beep	;wreg free
 10871  004680  EC8E  F02B         	line	1051
 10872                           	movlw	high(07Dh)
 10873  004684  0E00               	movwf	((c:sleep@ms+1)),c
 10874  004686  6E03               	movlw	low(07Dh)
 10875  004688  0E7D               	movwf	((c:sleep@ms)),c
 10876  00468A  6E02               	call	_sleep	;wreg free
 10877  00468C  ECF0  F02D         	line	1052
 10878                           	movlw	high(0B8h)
 10879  004690  0E00               	movwf	((c:Beep@frequency+1)),c
 10880  004692  6E4C               	movlw	low(0B8h)
 10881  004694  0EB8               	movwf	((c:Beep@frequency)),c
 10882  004696  6E4B               	movlw	high(081h)
 10883  004698  0E00               	movwf	((c:Beep@duration+1)),c
 10884  00469A  6E4E               	movlw	low(081h)
 10885  00469C  0E81               	movwf	((c:Beep@duration)),c
 10886  00469E  6E4D               	call	_Beep	;wreg free
 10887  0046A0  EC8E  F02B         	line	1053
 10888                           	movlw	high(024Bh)
 10889  0046A4  0E02               	movwf	((c:Beep@frequency+1)),c
 10890  0046A6  6E4C               	movlw	low(024Bh)
 10891  0046A8  0E4B               	movwf	((c:Beep@frequency)),c
 10892  0046AA  6E4B               	movlw	high(07Dh)
 10893  0046AC  0E00               	movwf	((c:Beep@duration+1)),c
 10894  0046AE  6E4E               	movlw	low(07Dh)
 10895  0046B0  0E7D               	movwf	((c:Beep@duration)),c
 10896  0046B2  6E4D               	call	_Beep	;wreg free
 10897  0046B4  EC8E  F02B         	line	1054
 10898                           	movlw	high(01Bh)
 10899  0046B8  0E00               	movwf	((c:sleep@ms+1)),c
 10900  0046BA  6E03               	movlw	low(01Bh)
 10901  0046BC  0E1B               	movwf	((c:sleep@ms)),c
 10902  0046BE  6E02               	call	_sleep	;wreg free
 10903  0046C0  ECF0  F02D         	line	1055
 10904                           	movlw	high(022Ah)
 10905  0046C4  0E02               	movwf	((c:Beep@frequency+1)),c
 10906  0046C6  6E4C               	movlw	low(022Ah)
 10907  0046C8  0E2A               	movwf	((c:Beep@frequency)),c
 10908  0046CA  6E4B               	movlw	high(071h)
 10909  0046CC  0E00               	movwf	((c:Beep@duration+1)),c
 10910  0046CE  6E4E               	movlw	low(071h)
 10911  0046D0  0E71               	movwf	((c:Beep@duration)),c
 10912  0046D2  6E4D               	call	_Beep	;wreg free
 10913  0046D4  EC8E  F02B         	line	1056
 10914                           	movlw	high(019h)
 10915  0046D8  0E00               	movwf	((c:sleep@ms+1)),c
 10916  0046DA  6E03               	movlw	low(019h)
 10917  0046DC  0E19               	movwf	((c:sleep@ms)),c
 10918  0046DE  6E02               	call	_sleep	;wreg free
 10919  0046E0  ECF0  F02D         	line	1057
 10920                           	movlw	high(024Bh)
 10921  0046E4  0E02               	movwf	((c:Beep@frequency+1)),c
 10922  0046E6  6E4C               	movlw	low(024Bh)
 10923  0046E8  0E4B               	movwf	((c:Beep@frequency)),c
 10924  0046EA  6E4B               	movlw	high(05Bh)
 10925  0046EC  0E00               	movwf	((c:Beep@duration+1)),c
 10926  0046EE  6E4E               	movlw	low(05Bh)
 10927  0046F0  0E5B               	movwf	((c:Beep@duration)),c
 10928  0046F2  6E4D               	call	_Beep	;wreg free
 10929  0046F4  EC8E  F02B         	line	1058
 10930                           	movlw	high(055h)
 10931  0046F8  0E00               	movwf	((c:sleep@ms+1)),c
 10932  0046FA  6E03               	movlw	low(055h)
 10933  0046FC  0E55               	movwf	((c:sleep@ms)),c
 10934  0046FE  6E02               	call	_sleep	;wreg free
 10935  004700  ECF0  F02D         	line	1059
 10936                           	movlw	high(022Ah)
 10937  004704  0E02               	movwf	((c:Beep@frequency+1)),c
 10938  004706  6E4C               	movlw	low(022Ah)
 10939  004708  0E2A               	movwf	((c:Beep@frequency)),c
 10940  00470A  6E4B               	movlw	high(0140h)
 10941  00470C  0E01               	movwf	((c:Beep@duration+1)),c
 10942  00470E  6E4E               	movlw	low(0140h)
 10943  004710  0E40               	movwf	((c:Beep@duration)),c
 10944  004712  6E4D               	call	_Beep	;wreg free
 10945  004714  EC8E  F02B         	line	1060
 10946                           	
 10947                           l138:
 10948  004718                     	return	;funcret
 10949  004718  0012               	opt stack 0
 10950                           GLOBAL	__end_of_badineri
 10951                           	__end_of_badineri:
 10952  00471A                     	signat	_badineri,89
 10953                           	global	_sleep
 10954                           
 10955 ;; *************** function _sleep *****************
 10956 ;; Defined at:
 10957 ;;		line 167 in file "main.c"
 10958 ;; Parameters:    Size  Location     Type
 10959 ;;  ms              2    1[COMRAM] unsigned short 
 10960 ;; Auto vars:     Size  Location     Type
 10961 ;;  i               2    4[COMRAM] int 
 10962 ;; Return value:  Size  Location     Type
 10963 ;;                  1    wreg      void 
 10964 ;; Registers used:
 10965 ;;		wreg, status,2, status,0
 10966 ;; Tracked objects:
 10967 ;;		On entry : 0/0
 10968 ;;		On exit  : 0/0
 10969 ;;		Unchanged: 0/0
 10970 ;; Data sizes:     COMRAM   BANK0   BANK1   BANK2   BANK3   BANK4   BANK5   BANK6   BANK7   BANK8   BANK9  BANK10  BANK1
       1  BANK12  BANK13  BANK14  BANK15
 10971 ;;      Params:         2       0       0       0       0       0       0       0       0       0       0       0       
       0       0       0       0       0
 10972 ;;      Locals:         2       0       0       0       0       0       0       0       0       0       0       0       
       0       0       0       0       0
 10973 ;;      Temps:          1       0       0       0       0       0       0       0       0       0       0       0       
       0       0       0       0       0
 10974 ;;      Totals:         5       0       0       0       0       0       0       0       0       0       0       0       
       0       0       0       0       0
 10975 ;;Total ram usage:        5 bytes
 10976 ;; Hardware stack levels used:    1
 10977 ;; Hardware stack levels required when called:    1
 10978 ;; This function calls:
 10979 ;;		Nothing
 10980 ;; This function is called by:
 10981 ;;		_main
 10982 ;;		_badineri
 10983 ;; This function uses a non-reentrant model
 10984 ;;
 10985                           psect	text10,class=CODE,space=0,reloc=2,group=0
 10986                           	line	167
 10987                           global __ptext10
 10988                           __ptext10:
 10989  005BE0                     psect	text10
 10990                           	file	"main.c"
 10991                           	line	167
 10992                           	global	__size_of_sleep
 10993                           	__size_of_sleep	equ	__end_of_sleep-_sleep
 10994  0000                     	
 10995                           _sleep:
 10996  005BE0                     ;incstack = 0
 10997                           	opt	stack 29
 10998                           	line	169
 10999                           	
 11000                           l2196:
 11001  005BE0                     ;main.c: 168:  sleep(70);;main.c: 169:  Beep(146, 109);
 11002                           	movlw	high(0)
 11003  005BE0  0E00               	movwf	((c:sleep@i+1)),c
 11004  005BE2  6E06               	movlw	low(0)
 11005  005BE4  0E00               	movwf	((c:sleep@i)),c
 11006  005BE6  6E05               	goto	l125
 11007  005BE8  EF00  F02E         	
 11008                           l126:
 11009  005BEC                     	line	170
 11010                           	
 11011                           l2198:
 11012  005BEC                     ;main.c: 170:  sleep(134);
 11013                           	opt asmopt_push
 11014                           opt asmopt_off
 11015                           movlw	21
 11016  005BEC  0E15               movwf	(??_sleep+0+0)&0ffh,c,f
 11017  005BEE  6E04               	movlw	198
 11018  005BF0  0EC6               u2357:
 11019  005BF2                     decfsz	wreg,f
 11020  005BF2  2EE8               	bra	u2357
 11021  005BF4  D7FE               	decfsz	(??_sleep+0+0)&0ffh,c,f
 11022  005BF6  2E04               	bra	u2357
 11023  005BF8  D7FC               	nop2
 11024  005BFA  D000               opt asmopt_pop
 11025                           
 11026                           	line	171
 11027                           	
 11028                           l2200:
 11029  005BFC                     ;main.c: 171:  Beep(123, 125);
 11030                           	infsnz	((c:sleep@i)),c
 11031  005BFC  4A05               	incf	((c:sleep@i+1)),c
 11032  005BFE  2A06               	
 11033                           l125:
 11034  005C00                     		movf	((c:sleep@ms)),c,w
 11035  005C00  5002               	subwf	((c:sleep@i)),c,w
 11036  005C02  5C05               	movf	((c:sleep@ms+1)),c,w
 11037  005C04  5003               	subwfb	((c:sleep@i+1)),c,w
 11038  005C06  5806               	btfss	status,0
 11039  005C08  A0D8               	goto	u2061
 11040  005C0A  EF09  F02E         	goto	u2060
 11041  005C0E  EF0B  F02E         
 11042                           u2061:
 11043  005C12                     	goto	l2198
 11044  005C12  EFF6  F02D         u2060:
 11045  005C16                     	goto	l128
 11046  005C16  EF0D  F02E         	
 11047                           l127:
 11048  005C1A                     	line	172
 11049                           	
 11050                           l128:
 11051  005C1A                     	return	;funcret
 11052  005C1A  0012               	opt stack 0
 11053                           GLOBAL	__end_of_sleep
 11054                           	__end_of_sleep:
 11055  005C1C                     	signat	_sleep,4217
 11056                           	global	_Beep
 11057                           
 11058 ;; *************** function _Beep *****************
 11059 ;; Defined at:
 11060 ;;		line 155 in file "main.c"
 11061 ;; Parameters:    Size  Location     Type
 11062 ;;  frequency       2   74[COMRAM] unsigned short 
 11063 ;;  duration        2   76[COMRAM] unsigned short 
 11064 ;; Auto vars:     Size  Location     Type
 11065 ;;  i               2   79[COMRAM] int 
 11066 ;; Return value:  Size  Location     Type
 11067 ;;                  1    wreg      void 
 11068 ;; Registers used:
 11069 ;;		wreg, status,2, status,0, cstack
 11070 ;; Tracked objects:
 11071 ;;		On entry : 0/0
 11072 ;;		On exit  : 0/0
 11073 ;;		Unchanged: 0/0
 11074 ;; Data sizes:     COMRAM   BANK0   BANK1   BANK2   BANK3   BANK4   BANK5   BANK6   BANK7   BANK8   BANK9  BANK10  BANK1
       1  BANK12  BANK13  BANK14  BANK15
 11075 ;;      Params:         4       0       0       0       0       0       0       0       0       0       0       0       
       0       0       0       0       0
 11076 ;;      Locals:         2       0       0       0       0       0       0       0       0       0       0       0       
       0       0       0       0       0
 11077 ;;      Temps:          1       0       0       0       0       0       0       0       0       0       0       0       
       0       0       0       0       0
 11078 ;;      Totals:         7       0       0       0       0       0       0       0       0       0       0       0       
       0       0       0       0       0
 11079 ;;Total ram usage:        7 bytes
 11080 ;; Hardware stack levels used:    1
 11081 ;; Hardware stack levels required when called:    2
 11082 ;; This function calls:
 11083 ;;		___fladd
 11084 ;;		___fldiv
 11085 ;;		___flneg
 11086 ;;		___fltol
 11087 ;;		___xxtofl
 11088 ;; This function is called by:
 11089 ;;		_main
 11090 ;;		_badineri
 11091 ;; This function uses a non-reentrant model
 11092 ;;
 11093                           psect	text11,class=CODE,space=0,reloc=2,group=0
 11094                           	line	155
 11095                           global __ptext11
 11096                           __ptext11:
 11097  00571C                     psect	text11
 11098                           	file	"main.c"
 11099                           	line	155
 11100                           	global	__size_of_Beep
 11101                           	__size_of_Beep	equ	__end_of_Beep-_Beep
 11102  0000                     	
 11103                           _Beep:
 11104  00571C                     ;incstack = 0
 11105                           	opt	stack 27
 11106                           	line	157
 11107                           	
 11108                           l2184:
 11109  00571C                     ;main.c: 156:     };main.c: 157:     if (cnt == 140 && on == 1) {
 11110                           	movlw	low(normalize32(0x40800000))
 11111  00571C  0E00               	movwf	((c:___fldiv@a)),c
 11112  00571E  6E14               	movlw	high(normalize32(0x40800000))
 11113  005720  0E00               	movwf	((c:___fldiv@a+1)),c
 11114  005722  6E15               	movlw	low highword(normalize32(0x40800000))
 11115  005724  0E80               	movwf	((c:___fldiv@a+2)),c
 11116  005726  6E16               	movlw	high highword(normalize32(0x40800000))
 11117  005728  0E40               	movwf	((c:___fldiv@a+3)),c
 11118  00572A  6E17               	movff	(c:Beep@frequency),(c:___xxtofl@val)
 11119  00572C  C04B  F002         	movff	(c:Beep@frequency+1),(c:___xxtofl@val+1)
 11120  005730  C04C  F003         	clrf	((c:___xxtofl@val+2)),c
 11121  005734  6A04               	clrf	((c:___xxtofl@val+3)),c
 11122  005736  6A05               
 11123                           	movlw	(0)&0ffh
 11124  005738  0E00               	
 11125                           	call	___xxtofl
 11126  00573A  EC63  F029         	movff	0+?___xxtofl,(c:___fldiv@b)
 11127  00573E  C002  F010         	movff	1+?___xxtofl,(c:___fldiv@b+1)
 11128  005742  C003  F011         	movff	2+?___xxtofl,(c:___fldiv@b+2)
 11129  005746  C004  F012         	movff	3+?___xxtofl,(c:___fldiv@b+3)
 11130  00574A  C005  F013         	
 11131                           	call	___fldiv	;wreg free
 11132  00574E  EC4F  F026         	movff	0+?___fldiv,(c:___fltol@f1)
 11133  005752  C010  F041         	movff	1+?___fldiv,(c:___fltol@f1+1)
 11134  005756  C011  F042         	movff	2+?___fldiv,(c:___fltol@f1+2)
 11135  00575A  C012  F043         	movff	3+?___fldiv,(c:___fltol@f1+3)
 11136  00575E  C013  F044         	
 11137                           	call	___fltol	;wreg free
 11138  005762  EC51  F02A         	movff	0+?___fltol,(c:Beep@frequency)
 11139  005766  C041  F04B         	movff	1+?___fltol,(c:Beep@frequency+1)
 11140  00576A  C042  F04C         	line	158
 11141                           ;main.c: 158:         cnt = 0;
 11142                           	movlw	low(normalize32(0x477fff00))
 11143  00576E  0E00               	movwf	((c:___fladd@a)),c
 11144  005770  6E31               	movlw	high(normalize32(0x477fff00))
 11145  005772  0EFF               	movwf	((c:___fladd@a+1)),c
 11146  005774  6E32               	movlw	low highword(normalize32(0x477fff00))
 11147  005776  0E7F               	movwf	((c:___fladd@a+2)),c
 11148  005778  6E33               	movlw	high highword(normalize32(0x477fff00))
 11149  00577A  0E47               	movwf	((c:___fladd@a+3)),c
 11150  00577C  6E34               	movff	(c:Beep@frequency),(c:___xxtofl@val)
 11151  00577E  C04B  F002         	movff	(c:Beep@frequency+1),(c:___xxtofl@val+1)
 11152  005782  C04C  F003         	clrf	((c:___xxtofl@val+2)),c
 11153  005786  6A04               	clrf	((c:___xxtofl@val+3)),c
 11154  005788  6A05               
 11155                           	movlw	(0)&0ffh
 11156  00578A  0E00               	
 11157                           	call	___xxtofl
 11158  00578C  EC63  F029         	movff	0+?___xxtofl,(c:___fldiv@a)
 11159  005790  C002  F014         	movff	1+?___xxtofl,(c:___fldiv@a+1)
 11160  005794  C003  F015         	movff	2+?___xxtofl,(c:___fldiv@a+2)
 11161  005798  C004  F016         	movff	3+?___xxtofl,(c:___fldiv@a+3)
 11162  00579C  C005  F017         	
 11163                           	movlw	low(normalize32(0x49742400))
 11164  0057A0  0E00               	movwf	((c:___fldiv@b)),c
 11165  0057A2  6E10               	movlw	high(normalize32(0x49742400))
 11166  0057A4  0E24               	movwf	((c:___fldiv@b+1)),c
 11167  0057A6  6E11               	movlw	low highword(normalize32(0x49742400))
 11168  0057A8  0E74               	movwf	((c:___fldiv@b+2)),c
 11169  0057AA  6E12               	movlw	high highword(normalize32(0x49742400))
 11170  0057AC  0E49               	movwf	((c:___fldiv@b+3)),c
 11171  0057AE  6E13               	call	___fldiv	;wreg free
 11172  0057B0  EC4F  F026         	movff	0+?___fldiv,(c:___flneg@f1)
 11173  0057B4  C010  F029         	movff	1+?___fldiv,(c:___flneg@f1+1)
 11174  0057B8  C011  F02A         	movff	2+?___fldiv,(c:___flneg@f1+2)
 11175  0057BC  C012  F02B         	movff	3+?___fldiv,(c:___flneg@f1+3)
 11176  0057C0  C013  F02C         	
 11177                           	call	___flneg	;wreg free
 11178  0057C4  ECD0  F02D         	movff	0+?___flneg,(c:___fladd@b)
 11179  0057C8  C029  F02D         	movff	1+?___flneg,(c:___fladd@b+1)
 11180  0057CC  C02A  F02E         	movff	2+?___flneg,(c:___fladd@b+2)
 11181  0057D0  C02B  F02F         	movff	3+?___flneg,(c:___fladd@b+3)
 11182  0057D4  C02C  F030         	
 11183                           	call	___fladd	;wreg free
 11184  0057D8  EC8D  F023         	movff	0+?___fladd,(c:___fltol@f1)
 11185  0057DC  C02D  F041         	movff	1+?___fladd,(c:___fltol@f1+1)
 11186  0057E0  C02E  F042         	movff	2+?___fladd,(c:___fltol@f1+2)
 11187  0057E4  C02F  F043         	movff	3+?___fladd,(c:___fltol@f1+3)
 11188  0057E8  C030  F044         	
 11189                           	call	___fltol	;wreg free
 11190  0057EC  EC51  F02A         	movff	0+?___fltol,(c:_offset)
 11191  0057F0  C041  F05B         	movff	1+?___fltol,(c:_offset+1)
 11192  0057F4  C042  F05C         	line	159
 11193                           	
 11194                           l2186:
 11195  0057F8                     ;main.c: 159:         LATAbits.LA1 = ~LATAbits.LA1;
 11196                           	movff	(c:_offset),(c:4046)	;volatile
 11197  0057F8  C05B  FFCE         	movff	(c:_offset+1),(c:4046+1)	;volatile
 11198  0057FC  C05C  FFCF         	line	160
 11199                           	
 11200                           l2188:
 11201  005800                     ;main.c: 160:     }
 11202                           	bsf	((c:4045)),c,0	;volatile
 11203  005800  80CD               	line	161
 11204                           	
 11205                           l2190:
 11206  005802                     ;main.c: 161: }
 11207                           	movlw	high(0)
 11208  005802  0E00               	movwf	((c:Beep@i+1)),c
 11209  005804  6E51               	movlw	low(0)
 11210  005806  0E00               	movwf	((c:Beep@i)),c
 11211  005808  6E50               	goto	l119
 11212  00580A  EF11  F02C         	
 11213                           l120:
 11214  00580E                     	line	162
 11215                           	
 11216                           l2192:
 11217  00580E                     ;main.c: 162: void badineri() {
 11218                           	opt asmopt_push
 11219                           opt asmopt_off
 11220                           movlw	21
 11221  00580E  0E15               movwf	(??_Beep+0+0)&0ffh,c,f
 11222  005810  6E4F               	movlw	198
 11223  005812  0EC6               u2367:
 11224  005814                     decfsz	wreg,f
 11225  005814  2EE8               	bra	u2367
 11226  005816  D7FE               	decfsz	(??_Beep+0+0)&0ffh,c,f
 11227  005818  2E4F               	bra	u2367
 11228  00581A  D7FC               	nop2
 11229  00581C  D000               opt asmopt_pop
 11230                           
 11231                           	line	163
 11232                           	
 11233                           l2194:
 11234  00581E                     ;main.c: 163:  Beep(123, 122);
 11235                           	infsnz	((c:Beep@i)),c
 11236  00581E  4A50               	incf	((c:Beep@i+1)),c
 11237  005820  2A51               	
 11238                           l119:
 11239  005822                     		movf	((c:Beep@duration)),c,w
 11240  005822  504D               	subwf	((c:Beep@i)),c,w
 11241  005824  5C50               	movf	((c:Beep@duration+1)),c,w
 11242  005826  504E               	subwfb	((c:Beep@i+1)),c,w
 11243  005828  5851               	btfss	status,0
 11244  00582A  A0D8               	goto	u2051
 11245  00582C  EF1A  F02C         	goto	u2050
 11246  005830  EF1C  F02C         
 11247                           u2051:
 11248  005834                     	goto	l2192
 11249  005834  EF07  F02C         u2050:
 11250  005838                     	
 11251                           l121:
 11252  005838                     	line	164
 11253                           ;main.c: 164:  sleep(120);
 11254                           	bcf	((c:4045)),c,0	;volatile
 11255  005838  90CD               	line	165
 11256                           	
 11257                           l122:
 11258  00583A                     	return	;funcret
 11259  00583A  0012               	opt stack 0
 11260                           GLOBAL	__end_of_Beep
 11261                           	__end_of_Beep:
 11262  00583C                     	signat	_Beep,8313
 11263                           	global	___xxtofl
 11264                           
 11265 ;; *************** function ___xxtofl *****************
 11266 ;; Defined at:
 11267 ;;		line 10 in file "C:\Program Files (x86)\Microchip\xc8\v2.00\pic\sources\c99\common\xxtofl.c"
 11268 ;; Parameters:    Size  Location     Type
 11269 ;;  sign            1    wreg     unsigned char 
 11270 ;;  val             4    1[COMRAM] long 
 11271 ;; Auto vars:     Size  Location     Type
 11272 ;;  sign            1    9[COMRAM] unsigned char 
 11273 ;;  arg             4   11[COMRAM] unsigned long 
 11274 ;;  exp             1   10[COMRAM] unsigned char 
 11275 ;; Return value:  Size  Location     Type
 11276 ;;                  4    1[COMRAM] unsigned char 
 11277 ;; Registers used:
 11278 ;;		wreg, status,2, status,0
 11279 ;; Tracked objects:
 11280 ;;		On entry : 0/0
 11281 ;;		On exit  : 0/0
 11282 ;;		Unchanged: 0/0
 11283 ;; Data sizes:     COMRAM   BANK0   BANK1   BANK2   BANK3   BANK4   BANK5   BANK6   BANK7   BANK8   BANK9  BANK10  BANK1
       1  BANK12  BANK13  BANK14  BANK15
 11284 ;;      Params:         4       0       0       0       0       0       0       0       0       0       0       0       
       0       0       0       0       0
 11285 ;;      Locals:         6       0       0       0       0       0       0       0       0       0       0       0       
       0       0       0       0       0
 11286 ;;      Temps:          4       0       0       0       0       0       0       0       0       0       0       0       
       0       0       0       0       0
 11287 ;;      Totals:        14       0       0       0       0       0       0       0       0       0       0       0       
       0       0       0       0       0
 11288 ;;Total ram usage:       14 bytes
 11289 ;; Hardware stack levels used:    1
 11290 ;; Hardware stack levels required when called:    1
 11291 ;; This function calls:
 11292 ;;		Nothing
 11293 ;; This function is called by:
 11294 ;;		_Beep
 11295 ;; This function uses a non-reentrant model
 11296 ;;
 11297                           psect	text12,class=CODE,space=0,reloc=2,group=1
 11298                           	file	"C:\Program Files (x86)\Microchip\xc8\v2.00\pic\sources\c99\common\xxtofl.c"
 11299                           	line	10
 11300                           global __ptext12
 11301                           __ptext12:
 11302  0052C6                     psect	text12
 11303                           	file	"C:\Program Files (x86)\Microchip\xc8\v2.00\pic\sources\c99\common\xxtofl.c"
 11304                           	line	10
 11305                           	global	__size_of___xxtofl
 11306                           	__size_of___xxtofl	equ	__end_of___xxtofl-___xxtofl
 11307  0000                     	
 11308                           ___xxtofl:
 11309  0052C6                     ;incstack = 0
 11310                           	opt	stack 27
 11311                           ;___xxtofl@sign stored from wreg
 11312                           	movwf	((c:___xxtofl@sign)),c
 11313  0052C6  6E0A               	line	15
 11314                           	
 11315                           l2138:
 11316  0052C8                     	movf	((c:___xxtofl@sign)),c,w
 11317  0052C8  500A               	btfsc	status,2
 11318  0052CA  B4D8               	goto	u1951
 11319  0052CC  EF6A  F029         	goto	u1950
 11320  0052D0  EF6C  F029         u1951:
 11321  0052D4                     	goto	l835
 11322  0052D4  EF8E  F029         u1950:
 11323  0052D8                     	
 11324                           l2140:
 11325  0052D8                     	btfsc	((c:___xxtofl@val+3)),c,7
 11326  0052D8  BE05               	goto	u1960
 11327  0052DA  EF73  F029         	goto	u1961
 11328  0052DE  EF71  F029         
 11329                           u1961:
 11330  0052E2                     	goto	l835
 11331  0052E2  EF8E  F029         u1960:
 11332  0052E6                     	line	16
 11333                           	
 11334                           l2142:
 11335  0052E6                     	movff	(c:___xxtofl@val),??___xxtofl+0+0
 11336  0052E6  C002  F006         	movff	(c:___xxtofl@val+1),??___xxtofl+0+0+1
 11337  0052EA  C003  F007         	movff	(c:___xxtofl@val+2),??___xxtofl+0+0+2
 11338  0052EE  C004  F008         	movff	(c:___xxtofl@val+3),??___xxtofl+0+0+3
 11339  0052F2  C005  F009         	comf	(??___xxtofl+0+0),c
 11340  0052F6  1E06               	comf	(??___xxtofl+0+1),c
 11341  0052F8  1E07               	comf	(??___xxtofl+0+2),c
 11342  0052FA  1E08               	comf	(??___xxtofl+0+3),c
 11343  0052FC  1E09               	incf	(??___xxtofl+0+0),c
 11344  0052FE  2A06               	movlw	0
 11345  005300  0E00               	addwfc	(??___xxtofl+0+1),c
 11346  005302  2207               	addwfc	(??___xxtofl+0+2),c
 11347  005304  2208               	addwfc	(??___xxtofl+0+3),c
 11348  005306  2209               	movff	??___xxtofl+0+0,(c:___xxtofl@arg)
 11349  005308  C006  F00C         	movff	??___xxtofl+0+1,(c:___xxtofl@arg+1)
 11350  00530C  C007  F00D         	movff	??___xxtofl+0+2,(c:___xxtofl@arg+2)
 11351  005310  C008  F00E         	movff	??___xxtofl+0+3,(c:___xxtofl@arg+3)
 11352  005314  C009  F00F         	line	17
 11353                           	goto	l2144
 11354  005318  EF98  F029         	line	18
 11355                           	
 11356                           l835:
 11357  00531C                     	line	19
 11358                           	movff	(c:___xxtofl@val),(c:___xxtofl@arg)
 11359  00531C  C002  F00C         	movff	(c:___xxtofl@val+1),(c:___xxtofl@arg+1)
 11360  005320  C003  F00D         	movff	(c:___xxtofl@val+2),(c:___xxtofl@arg+2)
 11361  005324  C004  F00E         	movff	(c:___xxtofl@val+3),(c:___xxtofl@arg+3)
 11362  005328  C005  F00F         	goto	l2144
 11363  00532C  EF98  F029         	line	20
 11364                           	
 11365                           l836:
 11366  005330                     	line	21
 11367                           	
 11368                           l2144:
 11369  005330                     	movf	((c:___xxtofl@val)),c,w
 11370  005330  5002               iorwf	((c:___xxtofl@val+1)),c,w
 11371  005332  1003               iorwf	((c:___xxtofl@val+2)),c,w
 11372  005334  1004               iorwf	((c:___xxtofl@val+3)),c,w
 11373  005336  1005               	btfss	status,2
 11374  005338  A4D8               	goto	u1971
 11375  00533A  EFA1  F029         	goto	u1970
 11376  00533E  EFA3  F029         
 11377                           u1971:
 11378  005342                     	goto	l2150
 11379  005342  EFAF  F029         u1970:
 11380  005346                     	line	22
 11381                           	
 11382                           l2146:
 11383  005346                     	movlw	low(normalize32(0x0))
 11384  005346  0E00               	movwf	((c:?___xxtofl)),c
 11385  005348  6E02               	movlw	high(normalize32(0x0))
 11386  00534A  0E00               	movwf	((c:?___xxtofl+1)),c
 11387  00534C  6E03               	movlw	low highword(normalize32(0x0))
 11388  00534E  0E00               	movwf	((c:?___xxtofl+2)),c
 11389  005350  6E04               	movlw	high highword(normalize32(0x0))
 11390  005352  0E00               	movwf	((c:?___xxtofl+3)),c
 11391  005354  6E05               	goto	l838
 11392  005356  EF50  F02A         	
 11393                           l2148:
 11394  00535A                     	goto	l838
 11395  00535A  EF50  F02A         	
 11396                           l837:
 11397  00535E                     	line	23
 11398                           	
 11399                           l2150:
 11400  00535E                     	movlw	low(096h)
 11401  00535E  0E96               	movwf	((c:___xxtofl@exp)),c
 11402  005360  6E0B               	line	24
 11403                           	goto	l2154
 11404  005362  EFBB  F029         	
 11405                           l840:
 11406  005366                     	line	25
 11407                           	
 11408                           l2152:
 11409  005366                     	incf	((c:___xxtofl@exp)),c
 11410  005366  2A0B               	line	26
 11411                           	bcf	status,0
 11412  005368  90D8               	rrcf	((c:___xxtofl@arg+3)),c
 11413  00536A  320F               	rrcf	((c:___xxtofl@arg+2)),c
 11414  00536C  320E               	rrcf	((c:___xxtofl@arg+1)),c
 11415  00536E  320D               	rrcf	((c:___xxtofl@arg)),c
 11416  005370  320C               	goto	l2154
 11417  005372  EFBB  F029         	line	27
 11418                           	
 11419                           l839:
 11420  005376                     	line	24
 11421                           	
 11422                           l2154:
 11423  005376                     	movlw	0
 11424  005376  0E00               	andwf	((c:___xxtofl@arg)),c,w
 11425  005378  140C               	movwf	(??___xxtofl+0+0)&0ffh,c
 11426  00537A  6E06               	movlw	0
 11427  00537C  0E00               	andwf	((c:___xxtofl@arg+1)),c,w
 11428  00537E  140D               	movwf	1+(??___xxtofl+0+0)&0ffh,c
 11429  005380  6E07               	
 11430                           	movlw	0
 11431  005382  0E00               	andwf	((c:___xxtofl@arg+2)),c,w
 11432  005384  140E               	movwf	2+(??___xxtofl+0+0)&0ffh,c
 11433  005386  6E08               	
 11434                           	movlw	0FEh
 11435  005388  0EFE               	andwf	((c:___xxtofl@arg+3)),c,w
 11436  00538A  140F               	movwf	3+(??___xxtofl+0+0)&0ffh,c
 11437  00538C  6E09               	movf	(??___xxtofl+0+0),c,w
 11438  00538E  5006               iorwf	(??___xxtofl+0+1),c,w
 11439  005390  1007               iorwf	(??___xxtofl+0+2),c,w
 11440  005392  1008               iorwf	(??___xxtofl+0+3),c,w
 11441  005394  1009               	btfss	status,2
 11442  005396  A4D8               	goto	u1981
 11443  005398  EFD0  F029         	goto	u1980
 11444  00539C  EFD2  F029         
 11445                           u1981:
 11446  0053A0                     	goto	l2152
 11447  0053A0  EFB3  F029         u1980:
 11448  0053A4                     	goto	l842
 11449  0053A4  EFE2  F029         	
 11450                           l841:
 11451  0053A8                     	line	28
 11452                           	goto	l842
 11453  0053A8  EFE2  F029         	
 11454                           l843:
 11455  0053AC                     	line	29
 11456                           	
 11457                           l2156:
 11458  0053AC                     	incf	((c:___xxtofl@exp)),c
 11459  0053AC  2A0B               	line	30
 11460                           	
 11461                           l2158:
 11462  0053AE                     	movlw	low(01h)
 11463  0053AE  0E01               	addwf	((c:___xxtofl@arg)),c
 11464  0053B0  260C               	movlw	0
 11465  0053B2  0E00               	addwfc	((c:___xxtofl@arg+1)),c
 11466  0053B4  220D               	addwfc	((c:___xxtofl@arg+2)),c
 11467  0053B6  220E               	addwfc	((c:___xxtofl@arg+3)),c
 11468  0053B8  220F               	line	31
 11469                           	
 11470                           l2160:
 11471  0053BA                     	bcf	status,0
 11472  0053BA  90D8               	rrcf	((c:___xxtofl@arg+3)),c
 11473  0053BC  320F               	rrcf	((c:___xxtofl@arg+2)),c
 11474  0053BE  320E               	rrcf	((c:___xxtofl@arg+1)),c
 11475  0053C0  320D               	rrcf	((c:___xxtofl@arg)),c
 11476  0053C2  320C               	line	32
 11477                           	
 11478                           l842:
 11479  0053C4                     	line	28
 11480                           	movlw	0
 11481  0053C4  0E00               	andwf	((c:___xxtofl@arg)),c,w
 11482  0053C6  140C               	movwf	(??___xxtofl+0+0)&0ffh,c
 11483  0053C8  6E06               	movlw	0
 11484  0053CA  0E00               	andwf	((c:___xxtofl@arg+1)),c,w
 11485  0053CC  140D               	movwf	1+(??___xxtofl+0+0)&0ffh,c
 11486  0053CE  6E07               	
 11487                           	movlw	0
 11488  0053D0  0E00               	andwf	((c:___xxtofl@arg+2)),c,w
 11489  0053D2  140E               	movwf	2+(??___xxtofl+0+0)&0ffh,c
 11490  0053D4  6E08               	
 11491                           	movlw	0FFh
 11492  0053D6  0EFF               	andwf	((c:___xxtofl@arg+3)),c,w
 11493  0053D8  140F               	movwf	3+(??___xxtofl+0+0)&0ffh,c
 11494  0053DA  6E09               	movf	(??___xxtofl+0+0),c,w
 11495  0053DC  5006               iorwf	(??___xxtofl+0+1),c,w
 11496  0053DE  1007               iorwf	(??___xxtofl+0+2),c,w
 11497  0053E0  1008               iorwf	(??___xxtofl+0+3),c,w
 11498  0053E2  1009               	btfss	status,2
 11499  0053E4  A4D8               	goto	u1991
 11500  0053E6  EFF7  F029         	goto	u1990
 11501  0053EA  EFF9  F029         
 11502                           u1991:
 11503  0053EE                     	goto	l2156
 11504  0053EE  EFD6  F029         u1990:
 11505  0053F2                     	goto	l2164
 11506  0053F2  EF05  F02A         	
 11507                           l844:
 11508  0053F6                     	line	33
 11509                           	goto	l2164
 11510  0053F6  EF05  F02A         	
 11511                           l846:
 11512  0053FA                     	line	34
 11513                           	
 11514                           l2162:
 11515  0053FA                     	decf	((c:___xxtofl@exp)),c
 11516  0053FA  060B               	line	35
 11517                           	bcf	status,0
 11518  0053FC  90D8               	rlcf	((c:___xxtofl@arg)),c
 11519  0053FE  360C               	rlcf	((c:___xxtofl@arg+1)),c
 11520  005400  360D               	rlcf	((c:___xxtofl@arg+2)),c
 11521  005402  360E               	rlcf	((c:___xxtofl@arg+3)),c
 11522  005404  360F               	goto	l2164
 11523  005406  EF05  F02A         	line	36
 11524                           	
 11525                           l845:
 11526  00540A                     	line	33
 11527                           	
 11528                           l2164:
 11529  00540A                     	
 11530                           	btfsc	((c:___xxtofl@arg+2)),c,(23)&7
 11531  00540A  BE0E               	goto	u2001
 11532  00540C  EF0A  F02A         	goto	u2000
 11533  005410  EF0C  F02A         u2001:
 11534  005414                     	goto	l849
 11535  005414  EF16  F02A         u2000:
 11536  005418                     	
 11537                           l2166:
 11538  005418                     		movlw	02h-0
 11539  005418  0E02               	cpfslt	((c:___xxtofl@exp)),c
 11540  00541A  600B               	goto	u2011
 11541  00541C  EF12  F02A         	goto	u2010
 11542  005420  EF14  F02A         
 11543                           u2011:
 11544  005424                     	goto	l2162
 11545  005424  EFFD  F029         u2010:
 11546  005428                     	goto	l849
 11547  005428  EF16  F02A         	
 11548                           l848:
 11549  00542C                     	
 11550                           l849:
 11551  00542C                     	line	37
 11552                           	
 11553                           	btfsc	((c:___xxtofl@exp)),c,(0)&7
 11554  00542C  B00B               	goto	u2021
 11555  00542E  EF1B  F02A         	goto	u2020
 11556  005432  EF1D  F02A         u2021:
 11557  005436                     	goto	l2170
 11558  005436  EF20  F02A         u2020:
 11559  00543A                     	line	38
 11560                           	
 11561                           l2168:
 11562  00543A                     	bcf	(0+(23/8)+(c:___xxtofl@arg)),c,(23)&7
 11563  00543A  9E0E               	goto	l2170
 11564  00543C  EF20  F02A         	
 11565                           l850:
 11566  005440                     	line	39
 11567                           	
 11568                           l2170:
 11569  005440                     	bcf status,0
 11570  005440  90D8               	rrcf	((c:___xxtofl@exp)),c
 11571  005442  320B               
 11572                           	line	40
 11573                           	
 11574                           l2172:
 11575  005444                     	movff	(c:___xxtofl@exp),??___xxtofl+0+0
 11576  005444  C00B  F006         	clrf	(??___xxtofl+0+0+1)&0ffh,c
 11577  005448  6A07               	clrf	(??___xxtofl+0+0+2)&0ffh,c
 11578  00544A  6A08               	clrf	(??___xxtofl+0+0+3)&0ffh,c
 11579  00544C  6A09               	movff	??___xxtofl+0+0,??___xxtofl+0+3
 11580  00544E  C006  F009         	clrf	(??___xxtofl+0+2),c
 11581  005452  6A08               	clrf	(??___xxtofl+0+1),c
 11582  005454  6A07               	clrf	(??___xxtofl+0+0),c
 11583  005456  6A06               	movf	(??___xxtofl+0+0),c,w
 11584  005458  5006               	iorwf	((c:___xxtofl@arg)),c
 11585  00545A  120C               	movf	(??___xxtofl+0+1),c,w
 11586  00545C  5007               	iorwf	((c:___xxtofl@arg+1)),c
 11587  00545E  120D               	movf	(??___xxtofl+0+2),c,w
 11588  005460  5008               	iorwf	((c:___xxtofl@arg+2)),c
 11589  005462  120E               	movf	(??___xxtofl+0+3),c,w
 11590  005464  5009               	iorwf	((c:___xxtofl@arg+3)),c
 11591  005466  120F               
 11592                           	line	41
 11593                           	
 11594                           l2174:
 11595  005468                     	movf	((c:___xxtofl@sign)),c,w
 11596  005468  500A               	btfsc	status,2
 11597  00546A  B4D8               	goto	u2031
 11598  00546C  EF3A  F02A         	goto	u2030
 11599  005470  EF3C  F02A         u2031:
 11600  005474                     	goto	l2180
 11601  005474  EF46  F02A         u2030:
 11602  005478                     	
 11603                           l2176:
 11604  005478                     	btfsc	((c:___xxtofl@val+3)),c,7
 11605  005478  BE05               	goto	u2040
 11606  00547A  EF43  F02A         	goto	u2041
 11607  00547E  EF41  F02A         
 11608                           u2041:
 11609  005482                     	goto	l2180
 11610  005482  EF46  F02A         u2040:
 11611  005486                     	line	42
 11612                           	
 11613                           l2178:
 11614  005486                     	bsf	(0+(31/8)+(c:___xxtofl@arg)),c,(31)&7
 11615  005486  8E0F               	goto	l2180
 11616  005488  EF46  F02A         	
 11617                           l851:
 11618  00548C                     	line	43
 11619                           	
 11620                           l2180:
 11621  00548C                     	movff	(c:___xxtofl@arg),(c:?___xxtofl)
 11622  00548C  C00C  F002         	movff	(c:___xxtofl@arg+1),(c:?___xxtofl+1)
 11623  005490  C00D  F003         	movff	(c:___xxtofl@arg+2),(c:?___xxtofl+2)
 11624  005494  C00E  F004         	movff	(c:___xxtofl@arg+3),(c:?___xxtofl+3)
 11625  005498  C00F  F005         	goto	l838
 11626  00549C  EF50  F02A         	
 11627                           l2182:
 11628  0054A0                     	line	44
 11629                           	
 11630                           l838:
 11631  0054A0                     	return	;funcret
 11632  0054A0  0012               	opt stack 0
 11633                           GLOBAL	__end_of___xxtofl
 11634                           	__end_of___xxtofl:
 11635  0054A2                     	signat	___xxtofl,8316
 11636                           	global	___fltol
 11637                           
 11638 ;; *************** function ___fltol *****************
 11639 ;; Defined at:
 11640 ;;		line 43 in file "C:\Program Files (x86)\Microchip\xc8\v2.00\pic\sources\c99\common\fltol.c"
 11641 ;; Parameters:    Size  Location     Type
 11642 ;;  f1              4   64[COMRAM] unsigned char 
 11643 ;; Auto vars:     Size  Location     Type
 11644 ;;  exp1            1   73[COMRAM] unsigned char 
 11645 ;;  sign1           1   72[COMRAM] unsigned char 
 11646 ;; Return value:  Size  Location     Type
 11647 ;;                  4   64[COMRAM] long 
 11648 ;; Registers used:
 11649 ;;		wreg, status,2, status,0
 11650 ;; Tracked objects:
 11651 ;;		On entry : 0/0
 11652 ;;		On exit  : 0/0
 11653 ;;		Unchanged: 0/0
 11654 ;; Data sizes:     COMRAM   BANK0   BANK1   BANK2   BANK3   BANK4   BANK5   BANK6   BANK7   BANK8   BANK9  BANK10  BANK1
       1  BANK12  BANK13  BANK14  BANK15
 11655 ;;      Params:         4       0       0       0       0       0       0       0       0       0       0       0       
       0       0       0       0       0
 11656 ;;      Locals:         2       0       0       0       0       0       0       0       0       0       0       0       
       0       0       0       0       0
 11657 ;;      Temps:          4       0       0       0       0       0       0       0       0       0       0       0       
       0       0       0       0       0
 11658 ;;      Totals:        10       0       0       0       0       0       0       0       0       0       0       0       
       0       0       0       0       0
 11659 ;;Total ram usage:       10 bytes
 11660 ;; Hardware stack levels used:    1
 11661 ;; Hardware stack levels required when called:    1
 11662 ;; This function calls:
 11663 ;;		Nothing
 11664 ;; This function is called by:
 11665 ;;		_Beep
 11666 ;; This function uses a non-reentrant model
 11667 ;;
 11668                           psect	text13,class=CODE,space=0,reloc=2,group=1
 11669                           	file	"C:\Program Files (x86)\Microchip\xc8\v2.00\pic\sources\c99\common\fltol.c"
 11670                           	line	43
 11671                           global __ptext13
 11672                           __ptext13:
 11673  0054A2                     psect	text13
 11674                           	file	"C:\Program Files (x86)\Microchip\xc8\v2.00\pic\sources\c99\common\fltol.c"
 11675                           	line	43
 11676                           	global	__size_of___fltol
 11677                           	__size_of___fltol	equ	__end_of___fltol-___fltol
 11678  0000                     	
 11679                           ___fltol:
 11680  0054A2                     ;incstack = 0
 11681                           	opt	stack 27
 11682                           	line	47
 11683                           	
 11684                           l2094:
 11685  0054A2                     	rlcf	((c:___fltol@f1+2)),c,w
 11686  0054A2  3443               	rlcf	((c:___fltol@f1+3)),c,w
 11687  0054A4  3444               	movwf	((c:___fltol@exp1)),c
 11688  0054A6  6E4A               	movf	((c:___fltol@exp1)),c,w
 11689  0054A8  504A               	btfss	status,2
 11690  0054AA  A4D8               	goto	u1881
 11691  0054AC  EF5A  F02A         	goto	u1880
 11692  0054B0  EF5C  F02A         u1881:
 11693  0054B4                     	goto	l2100
 11694  0054B4  EF68  F02A         u1880:
 11695  0054B8                     	line	48
 11696                           	
 11697                           l2096:
 11698  0054B8                     	movlw	low(0)
 11699  0054B8  0E00               	movwf	((c:?___fltol)),c
 11700  0054BA  6E41               	movlw	high(0)
 11701  0054BC  0E00               	movwf	((c:?___fltol+1)),c
 11702  0054BE  6E42               	movlw	low highword(0)
 11703  0054C0  0E00               	movwf	((c:?___fltol+2)),c
 11704  0054C2  6E43               	movlw	high highword(0)
 11705  0054C4  0E00               	movwf	((c:?___fltol+3)),c
 11706  0054C6  6E44               	goto	l477
 11707  0054C8  EFF9  F02A         	
 11708                           l2098:
 11709  0054CC                     	goto	l477
 11710  0054CC  EFF9  F02A         	
 11711                           l476:
 11712  0054D0                     	line	49
 11713                           	
 11714                           l2100:
 11715  0054D0                     	movff	(c:___fltol@f1),??___fltol+0+0
 11716  0054D0  C041  F045         	movff	(c:___fltol@f1+1),??___fltol+0+0+1
 11717  0054D4  C042  F046         	movff	(c:___fltol@f1+2),??___fltol+0+0+2
 11718  0054D8  C043  F047         	movff	(c:___fltol@f1+3),??___fltol+0+0+3
 11719  0054DC  C044  F048         	movlw	01Fh+1
 11720  0054E0  0E20               	goto	u1890
 11721  0054E2  EF78  F02A         u1895:
 11722  0054E6                     	bcf	status,0
 11723  0054E6  90D8               	rrcf	(??___fltol+0+3),c
 11724  0054E8  3248               	rrcf	(??___fltol+0+2),c
 11725  0054EA  3247               	rrcf	(??___fltol+0+1),c
 11726  0054EC  3246               	rrcf	(??___fltol+0+0),c
 11727  0054EE  3245               u1890:
 11728  0054F0                     	decfsz	wreg
 11729  0054F0  2EE8               	goto	u1895
 11730  0054F2  EF73  F02A         	movf	(??___fltol+0+0),c,w
 11731  0054F6  5045               	movwf	((c:___fltol@sign1)),c
 11732  0054F8  6E49               	line	50
 11733                           	
 11734                           l2102:
 11735  0054FA                     	bsf	(0+(23/8)+(c:___fltol@f1)),c,(23)&7
 11736  0054FA  8E43               	line	51
 11737                           	
 11738                           l2104:
 11739  0054FC                     	movlw	0FFh
 11740  0054FC  0EFF               	andwf	((c:___fltol@f1)),c
 11741  0054FE  1641               	movlw	0FFh
 11742  005500  0EFF               	andwf	((c:___fltol@f1+1)),c
 11743  005502  1642               	movlw	0FFh
 11744  005504  0EFF               	andwf	((c:___fltol@f1+2)),c
 11745  005506  1643               	movlw	0
 11746  005508  0E00               	andwf	((c:___fltol@f1+3)),c
 11747  00550A  1644               	line	52
 11748                           	
 11749                           l2106:
 11750  00550C                     	movlw	(096h)&0ffh
 11751  00550C  0E96               	subwf	((c:___fltol@exp1)),c
 11752  00550E  5E4A               	line	53
 11753                           	
 11754                           l2108:
 11755  005510                     	btfsc	((c:___fltol@exp1)),c,7
 11756  005510  BE4A               	goto	u1900
 11757  005512  EF8F  F02A         	goto	u1901
 11758  005516  EF8D  F02A         
 11759                           u1901:
 11760  00551A                     	goto	l2120
 11761  00551A  EFB3  F02A         u1900:
 11762  00551E                     	line	54
 11763                           	
 11764                           l2110:
 11765  00551E                     		movf	((c:___fltol@exp1)),c,w
 11766  00551E  504A               	xorlw	80h
 11767  005520  0A80               	addlw	-(80h^-23)
 11768  005522  0F97               	btfsc	status,0
 11769  005524  B0D8               	goto	u1911
 11770  005526  EF97  F02A         	goto	u1910
 11771  00552A  EF99  F02A         
 11772                           u1911:
 11773  00552E                     	goto	l2116
 11774  00552E  EFA7  F02A         u1910:
 11775  005532                     	line	55
 11776                           	
 11777                           l2112:
 11778  005532                     	movlw	low(0)
 11779  005532  0E00               	movwf	((c:?___fltol)),c
 11780  005534  6E41               	movlw	high(0)
 11781  005536  0E00               	movwf	((c:?___fltol+1)),c
 11782  005538  6E42               	movlw	low highword(0)
 11783  00553A  0E00               	movwf	((c:?___fltol+2)),c
 11784  00553C  6E43               	movlw	high highword(0)
 11785  00553E  0E00               	movwf	((c:?___fltol+3)),c
 11786  005540  6E44               	goto	l477
 11787  005542  EFF9  F02A         	
 11788                           l2114:
 11789  005546                     	goto	l477
 11790  005546  EFF9  F02A         	
 11791                           l479:
 11792  00554A                     	goto	l2116
 11793  00554A  EFA7  F02A         	line	56
 11794                           	
 11795                           l480:
 11796  00554E                     	line	57
 11797                           	
 11798                           l2116:
 11799  00554E                     	bcf	status,0
 11800  00554E  90D8               	rrcf	((c:___fltol@f1+3)),c
 11801  005550  3244               	rrcf	((c:___fltol@f1+2)),c
 11802  005552  3243               	rrcf	((c:___fltol@f1+1)),c
 11803  005554  3242               	rrcf	((c:___fltol@f1)),c
 11804  005556  3241               	
 11805                           l2118:
 11806  005558                     	incfsz	((c:___fltol@exp1)),c
 11807  005558  3E4A               	
 11808                           	goto	l2116
 11809  00555A  EFA7  F02A         	goto	l2130
 11810  00555E  EFDD  F02A         	
 11811                           l481:
 11812  005562                     	line	59
 11813                           	goto	l2130
 11814  005562  EFDD  F02A         	
 11815                           l478:
 11816  005566                     	line	60
 11817                           	
 11818                           l2120:
 11819  005566                     		movlw	020h-1
 11820  005566  0E1F               	cpfsgt	((c:___fltol@exp1)),c
 11821  005568  644A               	goto	u1921
 11822  00556A  EFB9  F02A         	goto	u1920
 11823  00556E  EFBB  F02A         
 11824                           u1921:
 11825  005572                     	goto	l2128
 11826  005572  EFD1  F02A         u1920:
 11827  005576                     	line	61
 11828                           	
 11829                           l2122:
 11830  005576                     	movlw	low(0)
 11831  005576  0E00               	movwf	((c:?___fltol)),c
 11832  005578  6E41               	movlw	high(0)
 11833  00557A  0E00               	movwf	((c:?___fltol+1)),c
 11834  00557C  6E42               	movlw	low highword(0)
 11835  00557E  0E00               	movwf	((c:?___fltol+2)),c
 11836  005580  6E43               	movlw	high highword(0)
 11837  005582  0E00               	movwf	((c:?___fltol+3)),c
 11838  005584  6E44               	goto	l477
 11839  005586  EFF9  F02A         	
 11840                           l2124:
 11841  00558A                     	goto	l477
 11842  00558A  EFF9  F02A         	
 11843                           l483:
 11844  00558E                     	line	62
 11845                           	goto	l2128
 11846  00558E  EFD1  F02A         	
 11847                           l485:
 11848  005592                     	line	63
 11849                           	
 11850                           l2126:
 11851  005592                     	bcf	status,0
 11852  005592  90D8               	rlcf	((c:___fltol@f1)),c
 11853  005594  3641               	rlcf	((c:___fltol@f1+1)),c
 11854  005596  3642               	rlcf	((c:___fltol@f1+2)),c
 11855  005598  3643               	rlcf	((c:___fltol@f1+3)),c
 11856  00559A  3644               	line	64
 11857                           	decf	((c:___fltol@exp1)),c
 11858  00559C  064A               	goto	l2128
 11859  00559E  EFD1  F02A         	line	65
 11860                           	
 11861                           l484:
 11862  0055A2                     	line	62
 11863                           	
 11864                           l2128:
 11865  0055A2                     	movf	((c:___fltol@exp1)),c,w
 11866  0055A2  504A               	btfss	status,2
 11867  0055A4  A4D8               	goto	u1931
 11868  0055A6  EFD7  F02A         	goto	u1930
 11869  0055AA  EFD9  F02A         u1931:
 11870  0055AE                     	goto	l2126
 11871  0055AE  EFC9  F02A         u1930:
 11872  0055B2                     	goto	l2130
 11873  0055B2  EFDD  F02A         	
 11874                           l486:
 11875  0055B6                     	goto	l2130
 11876  0055B6  EFDD  F02A         	line	66
 11877                           	
 11878                           l482:
 11879  0055BA                     	line	67
 11880                           	
 11881                           l2130:
 11882  0055BA                     	movf	((c:___fltol@sign1)),c,w
 11883  0055BA  5049               	btfsc	status,2
 11884  0055BC  B4D8               	goto	u1941
 11885  0055BE  EFE3  F02A         	goto	u1940
 11886  0055C2  EFE5  F02A         u1941:
 11887  0055C6                     	goto	l2134
 11888  0055C6  EFEF  F02A         u1940:
 11889  0055CA                     	line	68
 11890                           	
 11891                           l2132:
 11892  0055CA                     	comf	((c:___fltol@f1+3)),c
 11893  0055CA  1E44               	comf	((c:___fltol@f1+2)),c
 11894  0055CC  1E43               	comf	((c:___fltol@f1+1)),c
 11895  0055CE  1E42               	negf	((c:___fltol@f1)),c
 11896  0055D0  6C41               	movlw	0
 11897  0055D2  0E00               	addwfc	((c:___fltol@f1+1)),c
 11898  0055D4  2242               	addwfc	((c:___fltol@f1+2)),c
 11899  0055D6  2243               	addwfc	((c:___fltol@f1+3)),c
 11900  0055D8  2244               	goto	l2134
 11901  0055DA  EFEF  F02A         	
 11902                           l487:
 11903  0055DE                     	line	69
 11904                           	
 11905                           l2134:
 11906  0055DE                     	movff	(c:___fltol@f1),(c:?___fltol)
 11907  0055DE  C041  F041         	movff	(c:___fltol@f1+1),(c:?___fltol+1)
 11908  0055E2  C042  F042         	movff	(c:___fltol@f1+2),(c:?___fltol+2)
 11909  0055E6  C043  F043         	movff	(c:___fltol@f1+3),(c:?___fltol+3)
 11910  0055EA  C044  F044         	goto	l477
 11911  0055EE  EFF9  F02A         	
 11912                           l2136:
 11913  0055F2                     	line	70
 11914                           	
 11915                           l477:
 11916  0055F2                     	return	;funcret
 11917  0055F2  0012               	opt stack 0
 11918                           GLOBAL	__end_of___fltol
 11919                           	__end_of___fltol:
 11920  0055F4                     	signat	___fltol,4220
 11921                           	global	___flneg
 11922                           
 11923 ;; *************** function ___flneg *****************
 11924 ;; Defined at:
 11925 ;;		line 15 in file "C:\Program Files (x86)\Microchip\xc8\v2.00\pic\sources\c99\common\flneg.c"
 11926 ;; Parameters:    Size  Location     Type
 11927 ;;  f1              4   40[COMRAM] long 
 11928 ;; Auto vars:     Size  Location     Type
 11929 ;;		None
 11930 ;; Return value:  Size  Location     Type
 11931 ;;                  4   40[COMRAM] long 
 11932 ;; Registers used:
 11933 ;;		wreg, status,2, status,0
 11934 ;; Tracked objects:
 11935 ;;		On entry : 0/0
 11936 ;;		On exit  : 0/0
 11937 ;;		Unchanged: 0/0
 11938 ;; Data sizes:     COMRAM   BANK0   BANK1   BANK2   BANK3   BANK4   BANK5   BANK6   BANK7   BANK8   BANK9  BANK10  BANK1
       1  BANK12  BANK13  BANK14  BANK15
 11939 ;;      Params:         4       0       0       0       0       0       0       0       0       0       0       0       
       0       0       0       0       0
 11940 ;;      Locals:         0       0       0       0       0       0       0       0       0       0       0       0       
       0       0       0       0       0
 11941 ;;      Temps:          0       0       0       0       0       0       0       0       0       0       0       0       
       0       0       0       0       0
 11942 ;;      Totals:         4       0       0       0       0       0       0       0       0       0       0       0       
       0       0       0       0       0
 11943 ;;Total ram usage:        4 bytes
 11944 ;; Hardware stack levels used:    1
 11945 ;; Hardware stack levels required when called:    1
 11946 ;; This function calls:
 11947 ;;		Nothing
 11948 ;; This function is called by:
 11949 ;;		_Beep
 11950 ;; This function uses a non-reentrant model
 11951 ;;
 11952                           psect	text14,class=CODE,space=0,reloc=2,group=1
 11953                           	file	"C:\Program Files (x86)\Microchip\xc8\v2.00\pic\sources\c99\common\flneg.c"
 11954                           	line	15
 11955                           global __ptext14
 11956                           __ptext14:
 11957  005BA0                     psect	text14
 11958                           	file	"C:\Program Files (x86)\Microchip\xc8\v2.00\pic\sources\c99\common\flneg.c"
 11959                           	line	15
 11960                           	global	__size_of___flneg
 11961                           	__size_of___flneg	equ	__end_of___flneg-___flneg
 11962  0000                     	
 11963                           ___flneg:
 11964  005BA0                     ;incstack = 0
 11965                           	opt	stack 27
 11966                           	line	17
 11967                           	
 11968                           l2086:
 11969  005BA0                     	movf	((c:___flneg@f1)),c,w
 11970  005BA0  5029               iorwf	((c:___flneg@f1+1)),c,w
 11971  005BA2  102A               iorwf	((c:___flneg@f1+2)),c,w
 11972  005BA4  102B               iorwf	((c:___flneg@f1+3)),c,w
 11973  005BA6  102C               	btfsc	status,2
 11974  005BA8  B4D8               	goto	u1871
 11975  005BAA  EFD9  F02D         	goto	u1870
 11976  005BAE  EFDB  F02D         
 11977                           u1871:
 11978  005BB2                     	goto	l2090
 11979  005BB2  EFE5  F02D         u1870:
 11980  005BB6                     	line	18
 11981                           	
 11982                           l2088:
 11983  005BB6                     	movlw	0
 11984  005BB6  0E00               	xorwf	((c:___flneg@f1)),c
 11985  005BB8  1A29               	movlw	0
 11986  005BBA  0E00               	xorwf	((c:___flneg@f1+1)),c
 11987  005BBC  1A2A               	movlw	0
 11988  005BBE  0E00               	xorwf	((c:___flneg@f1+2)),c
 11989  005BC0  1A2B               	movlw	080h
 11990  005BC2  0E80               	xorwf	((c:___flneg@f1+3)),c
 11991  005BC4  1A2C               	goto	l2090
 11992  005BC6  EFE5  F02D         	
 11993                           l453:
 11994  005BCA                     	line	19
 11995                           	
 11996                           l2090:
 11997  005BCA                     	movff	(c:___flneg@f1),(c:?___flneg)
 11998  005BCA  C029  F029         	movff	(c:___flneg@f1+1),(c:?___flneg+1)
 11999  005BCE  C02A  F02A         	movff	(c:___flneg@f1+2),(c:?___flneg+2)
 12000  005BD2  C02B  F02B         	movff	(c:___flneg@f1+3),(c:?___flneg+3)
 12001  005BD6  C02C  F02C         	goto	l454
 12002  005BDA  EFEF  F02D         	
 12003                           l2092:
 12004  005BDE                     	line	20
 12005                           	
 12006                           l454:
 12007  005BDE                     	return	;funcret
 12008  005BDE  0012               	opt stack 0
 12009                           GLOBAL	__end_of___flneg
 12010                           	__end_of___flneg:
 12011  005BE0                     	signat	___flneg,4220
 12012                           	global	___fldiv
 12013                           
 12014 ;; *************** function ___fldiv *****************
 12015 ;; Defined at:
 12016 ;;		line 11 in file "C:\Program Files (x86)\Microchip\xc8\v2.00\pic\sources\c99\common\sprcdiv.c"
 12017 ;; Parameters:    Size  Location     Type
 12018 ;;  b               4   15[COMRAM] long 
 12019 ;;  a               4   19[COMRAM] long 
 12020 ;; Auto vars:     Size  Location     Type
 12021 ;;  grs             4   34[COMRAM] unsigned long 
 12022 ;;  rem             4   27[COMRAM] unsigned long 
 12023 ;;  new_exp         2   32[COMRAM] short 
 12024 ;;  aexp            1   39[COMRAM] unsigned char 
 12025 ;;  bexp            1   38[COMRAM] unsigned char 
 12026 ;;  sign            1   31[COMRAM] unsigned char 
 12027 ;; Return value:  Size  Location     Type
 12028 ;;                  4   15[COMRAM] unsigned char 
 12029 ;; Registers used:
 12030 ;;		wreg, status,2, status,0
 12031 ;; Tracked objects:
 12032 ;;		On entry : 0/0
 12033 ;;		On exit  : 0/0
 12034 ;;		Unchanged: 0/0
 12035 ;; Data sizes:     COMRAM   BANK0   BANK1   BANK2   BANK3   BANK4   BANK5   BANK6   BANK7   BANK8   BANK9  BANK10  BANK1
       1  BANK12  BANK13  BANK14  BANK15
 12036 ;;      Params:         8       0       0       0       0       0       0       0       0       0       0       0       
       0       0       0       0       0
 12037 ;;      Locals:        13       0       0       0       0       0       0       0       0       0       0       0       
       0       0       0       0       0
 12038 ;;      Temps:          4       0       0       0       0       0       0       0       0       0       0       0       
       0       0       0       0       0
 12039 ;;      Totals:        25       0       0       0       0       0       0       0       0       0       0       0       
       0       0       0       0       0
 12040 ;;Total ram usage:       25 bytes
 12041 ;; Hardware stack levels used:    1
 12042 ;; Hardware stack levels required when called:    1
 12043 ;; This function calls:
 12044 ;;		Nothing
 12045 ;; This function is called by:
 12046 ;;		_Beep
 12047 ;; This function uses a non-reentrant model
 12048 ;;
 12049                           psect	text15,class=CODE,space=0,reloc=2,group=1
 12050                           	file	"C:\Program Files (x86)\Microchip\xc8\v2.00\pic\sources\c99\common\sprcdiv.c"
 12051                           	line	11
 12052                           global __ptext15
 12053                           __ptext15:
 12054  004C9E                     psect	text15
 12055                           	file	"C:\Program Files (x86)\Microchip\xc8\v2.00\pic\sources\c99\common\sprcdiv.c"
 12056                           	line	11
 12057                           	global	__size_of___fldiv
 12058                           	__size_of___fldiv	equ	__end_of___fldiv-___fldiv
 12059  0000                     	
 12060                           ___fldiv:
 12061  004C9E                     ;incstack = 0
 12062                           	opt	stack 27
 12063                           	line	26
 12064                           	
 12065                           l1948:
 12066  004C9E                     	movf	(0+((c:___fldiv@b)+03h)),c,w
 12067  004C9E  5013               	andlw	low(080h)
 12068  004CA0  0B80               	movwf	((c:___fldiv@sign)),c
 12069  004CA2  6E20               	line	27
 12070                           	movf	(0+((c:___fldiv@b)+03h)),c,w
 12071  004CA4  5013               	addwf	(0+((c:___fldiv@b)+03h)),c,w
 12072  004CA6  2413               	movwf	((c:___fldiv@bexp)),c
 12073  004CA8  6E27               	line	28
 12074                           	
 12075                           l1950:
 12076  004CAA                     	
 12077                           	btfss	(0+((c:___fldiv@b)+02h)),c,(7)&7
 12078  004CAA  AE12               	goto	u1641
 12079  004CAC  EF5A  F026         	goto	u1640
 12080  004CB0  EF5C  F026         u1641:
 12081  004CB4                     	goto	l1954
 12082  004CB4  EF5F  F026         u1640:
 12083  004CB8                     	line	29
 12084                           	
 12085                           l1952:
 12086  004CB8                     	bsf	(0+(0/8)+(c:___fldiv@bexp)),c,(0)&7
 12087  004CB8  8027               	goto	l1954
 12088  004CBA  EF5F  F026         	line	30
 12089                           	
 12090                           l753:
 12091  004CBE                     	line	33
 12092                           	
 12093                           l1954:
 12094  004CBE                     	movf	((c:___fldiv@bexp)),c,w
 12095  004CBE  5027               	btfsc	status,2
 12096  004CC0  B4D8               	goto	u1651
 12097  004CC2  EF65  F026         	goto	u1650
 12098  004CC6  EF67  F026         u1651:
 12099  004CCA                     	goto	l1964
 12100  004CCA  EF7E  F026         u1650:
 12101  004CCE                     	line	35
 12102                           	
 12103                           l1956:
 12104  004CCE                     		incf	((c:___fldiv@bexp)),c,w
 12105  004CCE  2827               	btfss	status,2
 12106  004CD0  A4D8               	goto	u1661
 12107  004CD2  EF6D  F026         	goto	u1660
 12108  004CD6  EF6F  F026         
 12109                           u1661:
 12110  004CDA                     	goto	l1960
 12111  004CDA  EF79  F026         u1660:
 12112  004CDE                     	line	37
 12113                           	
 12114                           l1958:
 12115  004CDE                     	movlw	low(normalize32(0x0))
 12116  004CDE  0E00               	movwf	((c:___fldiv@b)),c
 12117  004CE0  6E10               	movlw	high(normalize32(0x0))
 12118  004CE2  0E00               	movwf	((c:___fldiv@b+1)),c
 12119  004CE4  6E11               	movlw	low highword(normalize32(0x0))
 12120  004CE6  0E00               	movwf	((c:___fldiv@b+2)),c
 12121  004CE8  6E12               	movlw	high highword(normalize32(0x0))
 12122  004CEA  0E00               	movwf	((c:___fldiv@b+3)),c
 12123  004CEC  6E13               	goto	l1960
 12124  004CEE  EF79  F026         	line	38
 12125                           	
 12126                           l755:
 12127  004CF2                     	line	40
 12128                           	
 12129                           l1960:
 12130  004CF2                     	bsf	(0+(23/8)+(c:___fldiv@b)),c,(23)&7
 12131  004CF2  8E12               	line	42
 12132                           	
 12133                           l1962:
 12134  004CF4                     	movlw	low(0)
 12135  004CF4  0E00               	movwf	(0+((c:___fldiv@b)+03h)),c
 12136  004CF6  6E13               	line	43
 12137                           	goto	l1966
 12138  004CF8  EF88  F026         	line	44
 12139                           	
 12140                           l754:
 12141  004CFC                     	line	46
 12142                           	
 12143                           l1964:
 12144  004CFC                     	movlw	low(normalize32(0x0))
 12145  004CFC  0E00               	movwf	((c:___fldiv@b)),c
 12146  004CFE  6E10               	movlw	high(normalize32(0x0))
 12147  004D00  0E00               	movwf	((c:___fldiv@b+1)),c
 12148  004D02  6E11               	movlw	low highword(normalize32(0x0))
 12149  004D04  0E00               	movwf	((c:___fldiv@b+2)),c
 12150  004D06  6E12               	movlw	high highword(normalize32(0x0))
 12151  004D08  0E00               	movwf	((c:___fldiv@b+3)),c
 12152  004D0A  6E13               	goto	l1966
 12153  004D0C  EF88  F026         	line	47
 12154                           	
 12155                           l756:
 12156  004D10                     	line	49
 12157                           	
 12158                           l1966:
 12159  004D10                     	movf	(0+((c:___fldiv@a)+03h)),c,w
 12160  004D10  5017               	andlw	low(080h)
 12161  004D12  0B80               	xorwf	((c:___fldiv@sign)),c
 12162  004D14  1A20               	line	50
 12163                           	
 12164                           l1968:
 12165  004D16                     	movf	(0+((c:___fldiv@a)+03h)),c,w
 12166  004D16  5017               	addwf	(0+((c:___fldiv@a)+03h)),c,w
 12167  004D18  2417               	movwf	((c:___fldiv@aexp)),c
 12168  004D1A  6E28               	line	51
 12169                           	
 12170                           l1970:
 12171  004D1C                     	
 12172                           	btfss	(0+((c:___fldiv@a)+02h)),c,(7)&7
 12173  004D1C  AE16               	goto	u1671
 12174  004D1E  EF93  F026         	goto	u1670
 12175  004D22  EF95  F026         u1671:
 12176  004D26                     	goto	l1974
 12177  004D26  EF98  F026         u1670:
 12178  004D2A                     	line	52
 12179                           	
 12180                           l1972:
 12181  004D2A                     	bsf	(0+(0/8)+(c:___fldiv@aexp)),c,(0)&7
 12182  004D2A  8028               	goto	l1974
 12183  004D2C  EF98  F026         	line	53
 12184                           	
 12185                           l757:
 12186  004D30                     	line	56
 12187                           	
 12188                           l1974:
 12189  004D30                     	movf	((c:___fldiv@aexp)),c,w
 12190  004D30  5028               	btfsc	status,2
 12191  004D32  B4D8               	goto	u1681
 12192  004D34  EF9E  F026         	goto	u1680
 12193  004D38  EFA0  F026         u1681:
 12194  004D3C                     	goto	l1984
 12195  004D3C  EFB7  F026         u1680:
 12196  004D40                     	line	58
 12197                           	
 12198                           l1976:
 12199  004D40                     		incf	((c:___fldiv@aexp)),c,w
 12200  004D40  2828               	btfss	status,2
 12201  004D42  A4D8               	goto	u1691
 12202  004D44  EFA6  F026         	goto	u1690
 12203  004D48  EFA8  F026         
 12204                           u1691:
 12205  004D4C                     	goto	l1980
 12206  004D4C  EFB2  F026         u1690:
 12207  004D50                     	line	60
 12208                           	
 12209                           l1978:
 12210  004D50                     	movlw	low(normalize32(0x0))
 12211  004D50  0E00               	movwf	((c:___fldiv@a)),c
 12212  004D52  6E14               	movlw	high(normalize32(0x0))
 12213  004D54  0E00               	movwf	((c:___fldiv@a+1)),c
 12214  004D56  6E15               	movlw	low highword(normalize32(0x0))
 12215  004D58  0E00               	movwf	((c:___fldiv@a+2)),c
 12216  004D5A  6E16               	movlw	high highword(normalize32(0x0))
 12217  004D5C  0E00               	movwf	((c:___fldiv@a+3)),c
 12218  004D5E  6E17               	goto	l1980
 12219  004D60  EFB2  F026         	line	61
 12220                           	
 12221                           l759:
 12222  004D64                     	line	63
 12223                           	
 12224                           l1980:
 12225  004D64                     	bsf	(0+(23/8)+(c:___fldiv@a)),c,(23)&7
 12226  004D64  8E16               	line	65
 12227                           	
 12228                           l1982:
 12229  004D66                     	movlw	low(0)
 12230  004D66  0E00               	movwf	(0+((c:___fldiv@a)+03h)),c
 12231  004D68  6E17               	line	66
 12232                           	goto	l1986
 12233  004D6A  EFC1  F026         	line	67
 12234                           	
 12235                           l758:
 12236  004D6E                     	line	69
 12237                           	
 12238                           l1984:
 12239  004D6E                     	movlw	low(normalize32(0x0))
 12240  004D6E  0E00               	movwf	((c:___fldiv@a)),c
 12241  004D70  6E14               	movlw	high(normalize32(0x0))
 12242  004D72  0E00               	movwf	((c:___fldiv@a+1)),c
 12243  004D74  6E15               	movlw	low highword(normalize32(0x0))
 12244  004D76  0E00               	movwf	((c:___fldiv@a+2)),c
 12245  004D78  6E16               	movlw	high highword(normalize32(0x0))
 12246  004D7A  0E00               	movwf	((c:___fldiv@a+3)),c
 12247  004D7C  6E17               	goto	l1986
 12248  004D7E  EFC1  F026         	line	70
 12249                           	
 12250                           l760:
 12251  004D82                     	line	75
 12252                           	
 12253                           l1986:
 12254  004D82                     	movf	((c:___fldiv@a)),c,w
 12255  004D82  5014               iorwf	((c:___fldiv@a+1)),c,w
 12256  004D84  1015               iorwf	((c:___fldiv@a+2)),c,w
 12257  004D86  1016               iorwf	((c:___fldiv@a+3)),c,w
 12258  004D88  1017               	btfss	status,2
 12259  004D8A  A4D8               	goto	u1701
 12260  004D8C  EFCA  F026         	goto	u1700
 12261  004D90  EFCC  F026         
 12262                           u1701:
 12263  004D94                     	goto	l1998
 12264  004D94  EFE6  F026         u1700:
 12265  004D98                     	line	76
 12266                           	
 12267                           l1988:
 12268  004D98                     	movlw	low(0)
 12269  004D98  0E00               	movwf	((c:___fldiv@b)),c
 12270  004D9A  6E10               	movlw	high(0)
 12271  004D9C  0E00               	movwf	((c:___fldiv@b+1)),c
 12272  004D9E  6E11               	movlw	low highword(0)
 12273  004DA0  0E00               	movwf	((c:___fldiv@b+2)),c
 12274  004DA2  6E12               	movlw	high highword(0)
 12275  004DA4  0E00               	movwf	((c:___fldiv@b+3)),c
 12276  004DA6  6E13               	line	77
 12277                           	
 12278                           l1990:
 12279  004DA8                     	movlw	low(07F80h)
 12280  004DA8  0E80               	iorwf	(0+((c:___fldiv@b)+02h)),c
 12281  004DAA  1212               	movlw	high(07F80h)
 12282  004DAC  0E7F               	iorwf	(1+((c:___fldiv@b)+02h)),c
 12283  004DAE  1213               	line	78
 12284                           	
 12285                           l1992:
 12286  004DB0                     	movf	((c:___fldiv@sign)),c,w
 12287  004DB0  5020               	iorwf	(0+((c:___fldiv@b)+03h)),c
 12288  004DB2  1213               	line	79
 12289                           	
 12290                           l1994:
 12291  004DB4                     	movff	(c:___fldiv@b),(c:?___fldiv)
 12292  004DB4  C010  F010         	movff	(c:___fldiv@b+1),(c:?___fldiv+1)
 12293  004DB8  C011  F011         	movff	(c:___fldiv@b+2),(c:?___fldiv+2)
 12294  004DBC  C012  F012         	movff	(c:___fldiv@b+3),(c:?___fldiv+3)
 12295  004DC0  C013  F013         	goto	l762
 12296  004DC4  EF5E  F028         	
 12297                           l1996:
 12298  004DC8                     	goto	l762
 12299  004DC8  EF5E  F028         	line	80
 12300                           	
 12301                           l761:
 12302  004DCC                     	line	83
 12303                           	
 12304                           l1998:
 12305  004DCC                     	movf	((c:___fldiv@bexp)),c,w
 12306  004DCC  5027               	btfss	status,2
 12307  004DCE  A4D8               	goto	u1711
 12308  004DD0  EFEC  F026         	goto	u1710
 12309  004DD4  EFEE  F026         u1711:
 12310  004DD8                     	goto	l2006
 12311  004DD8  EF02  F027         u1710:
 12312  004DDC                     	line	84
 12313                           	
 12314                           l2000:
 12315  004DDC                     	movlw	low(0)
 12316  004DDC  0E00               	movwf	((c:___fldiv@b)),c
 12317  004DDE  6E10               	movlw	high(0)
 12318  004DE0  0E00               	movwf	((c:___fldiv@b+1)),c
 12319  004DE2  6E11               	movlw	low highword(0)
 12320  004DE4  0E00               	movwf	((c:___fldiv@b+2)),c
 12321  004DE6  6E12               	movlw	high highword(0)
 12322  004DE8  0E00               	movwf	((c:___fldiv@b+3)),c
 12323  004DEA  6E13               	line	85
 12324                           	
 12325                           l2002:
 12326  004DEC                     	movff	(c:___fldiv@b),(c:?___fldiv)
 12327  004DEC  C010  F010         	movff	(c:___fldiv@b+1),(c:?___fldiv+1)
 12328  004DF0  C011  F011         	movff	(c:___fldiv@b+2),(c:?___fldiv+2)
 12329  004DF4  C012  F012         	movff	(c:___fldiv@b+3),(c:?___fldiv+3)
 12330  004DF8  C013  F013         	goto	l762
 12331  004DFC  EF5E  F028         	
 12332                           l2004:
 12333  004E00                     	goto	l762
 12334  004E00  EF5E  F028         	line	86
 12335                           	
 12336                           l763:
 12337  004E04                     	line	89
 12338                           	
 12339                           l2006:
 12340  004E04                     	movf	((c:___fldiv@aexp)),c,w
 12341  004E04  5028               	movwf	(??___fldiv+0+0)&0ffh,c
 12342  004E06  6E18               	clrf	(??___fldiv+0+0+1)&0ffh,c
 12343  004E08  6A19               
 12344                           	comf	(??___fldiv+0+0),c
 12345  004E0A  1E18               	comf	(??___fldiv+0+1),c
 12346  004E0C  1E19               	infsnz	(??___fldiv+0+0),c
 12347  004E0E  4A18               	incf	(??___fldiv+0+1),c
 12348  004E10  2A19               	movf	((c:___fldiv@bexp)),c,w
 12349  004E12  5027               	movwf	(??___fldiv+2+0)&0ffh,c
 12350  004E14  6E1A               	clrf	(??___fldiv+2+0+1)&0ffh,c
 12351  004E16  6A1B               
 12352                           	movf	(??___fldiv+0+0),c,w
 12353  004E18  5018               	addwf	(??___fldiv+2+0),c
 12354  004E1A  261A               	movf	(??___fldiv+0+1),c,w
 12355  004E1C  5019               	addwfc	(??___fldiv+2+1),c
 12356  004E1E  221B               	movlw	low(07Fh)
 12357  004E20  0E7F               	addwf	(??___fldiv+2+0),c,w
 12358  004E22  241A               	movwf	((c:___fldiv@new_exp)),c
 12359  004E24  6E21               	movlw	high(07Fh)
 12360  004E26  0E00               	addwfc	(??___fldiv+2+1),c,w
 12361  004E28  201B               	movwf	1+((c:___fldiv@new_exp)),c
 12362  004E2A  6E22               	line	92
 12363                           	
 12364                           l2008:
 12365  004E2C                     	movff	(c:___fldiv@b),(c:___fldiv@rem)
 12366  004E2C  C010  F01C         	movff	(c:___fldiv@b+1),(c:___fldiv@rem+1)
 12367  004E30  C011  F01D         	movff	(c:___fldiv@b+2),(c:___fldiv@rem+2)
 12368  004E34  C012  F01E         	movff	(c:___fldiv@b+3),(c:___fldiv@rem+3)
 12369  004E38  C013  F01F         	line	93
 12370                           	
 12371                           l2010:
 12372  004E3C                     	movlw	low(0)
 12373  004E3C  0E00               	movwf	((c:___fldiv@b)),c
 12374  004E3E  6E10               	movlw	high(0)
 12375  004E40  0E00               	movwf	((c:___fldiv@b+1)),c
 12376  004E42  6E11               	movlw	low highword(0)
 12377  004E44  0E00               	movwf	((c:___fldiv@b+2)),c
 12378  004E46  6E12               	movlw	high highword(0)
 12379  004E48  0E00               	movwf	((c:___fldiv@b+3)),c
 12380  004E4A  6E13               	line	94
 12381                           	
 12382                           l2012:
 12383  004E4C                     	movlw	low(0)
 12384  004E4C  0E00               	movwf	((c:___fldiv@grs)),c
 12385  004E4E  6E23               	movlw	high(0)
 12386  004E50  0E00               	movwf	((c:___fldiv@grs+1)),c
 12387  004E52  6E24               	movlw	low highword(0)
 12388  004E54  0E00               	movwf	((c:___fldiv@grs+2)),c
 12389  004E56  6E25               	movlw	high highword(0)
 12390  004E58  0E00               	movwf	((c:___fldiv@grs+3)),c
 12391  004E5A  6E26               	line	96
 12392                           	
 12393                           l2014:
 12394  004E5C                     	movlw	low(0)
 12395  004E5C  0E00               	movwf	((c:___fldiv@aexp)),c
 12396  004E5E  6E28               	line	97
 12397                           	goto	l764
 12398  004E60  EF6E  F027         	
 12399                           l765:
 12400  004E64                     	line	100
 12401                           	
 12402                           l2016:
 12403  004E64                     	movf	((c:___fldiv@aexp)),c,w
 12404  004E64  5028               	btfsc	status,2
 12405  004E66  B4D8               	goto	u1721
 12406  004E68  EF38  F027         	goto	u1720
 12407  004E6C  EF3A  F027         u1721:
 12408  004E70                     	goto	l2024
 12409  004E70  EF53  F027         u1720:
 12410  004E74                     	line	101
 12411                           	
 12412                           l2018:
 12413  004E74                     	bcf	status,0
 12414  004E74  90D8               	rlcf	((c:___fldiv@rem)),c
 12415  004E76  361C               	rlcf	((c:___fldiv@rem+1)),c
 12416  004E78  361D               	rlcf	((c:___fldiv@rem+2)),c
 12417  004E7A  361E               	rlcf	((c:___fldiv@rem+3)),c
 12418  004E7C  361F               	line	102
 12419                           	bcf	status,0
 12420  004E7E  90D8               	rlcf	((c:___fldiv@b)),c
 12421  004E80  3610               	rlcf	((c:___fldiv@b+1)),c
 12422  004E82  3611               	rlcf	((c:___fldiv@b+2)),c
 12423  004E84  3612               	rlcf	((c:___fldiv@b+3)),c
 12424  004E86  3613               	line	103
 12425                           	
 12426                           l2020:
 12427  004E88                     	
 12428                           	btfss	((c:___fldiv@grs+3)),c,(31)&7
 12429  004E88  AE26               	goto	u1731
 12430  004E8A  EF49  F027         	goto	u1730
 12431  004E8E  EF4B  F027         u1731:
 12432  004E92                     	goto	l767
 12433  004E92  EF4C  F027         u1730:
 12434  004E96                     	line	104
 12435                           	
 12436                           l2022:
 12437  004E96                     	bsf	(0+(0/8)+(c:___fldiv@b)),c,(0)&7
 12438  004E96  8010               	line	105
 12439                           	
 12440                           l767:
 12441  004E98                     	line	106
 12442                           	bcf	status,0
 12443  004E98  90D8               	rlcf	((c:___fldiv@grs)),c
 12444  004E9A  3623               	rlcf	((c:___fldiv@grs+1)),c
 12445  004E9C  3624               	rlcf	((c:___fldiv@grs+2)),c
 12446  004E9E  3625               	rlcf	((c:___fldiv@grs+3)),c
 12447  004EA0  3626               	goto	l2024
 12448  004EA2  EF53  F027         	line	107
 12449                           	
 12450                           l766:
 12451  004EA6                     	line	112
 12452                           	
 12453                           l2024:
 12454  004EA6                     		movf	((c:___fldiv@a)),c,w
 12455  004EA6  5014               	subwf	((c:___fldiv@rem)),c,w
 12456  004EA8  5C1C               	movf	((c:___fldiv@a+1)),c,w
 12457  004EAA  5015               	subwfb	((c:___fldiv@rem+1)),c,w
 12458  004EAC  581D               	movf	((c:___fldiv@a+2)),c,w
 12459  004EAE  5016               	subwfb	((c:___fldiv@rem+2)),c,w
 12460  004EB0  581E               	movf	((c:___fldiv@a+3)),c,w
 12461  004EB2  5017               	subwfb	((c:___fldiv@rem+3)),c,w
 12462  004EB4  581F               	btfss	status,0
 12463  004EB6  A0D8               	goto	u1741
 12464  004EB8  EF60  F027         	goto	u1740
 12465  004EBC  EF62  F027         
 12466                           u1741:
 12467  004EC0                     	goto	l2030
 12468  004EC0  EF6D  F027         u1740:
 12469  004EC4                     	line	115
 12470                           	
 12471                           l2026:
 12472  004EC4                     	bsf	(0+(30/8)+(c:___fldiv@grs)),c,(30)&7
 12473  004EC4  8C26               	line	116
 12474                           	
 12475                           l2028:
 12476  004EC6                     	movf	((c:___fldiv@a)),c,w
 12477  004EC6  5014               	subwf	((c:___fldiv@rem)),c
 12478  004EC8  5E1C               	movf	((c:___fldiv@a+1)),c,w
 12479  004ECA  5015               	subwfb	((c:___fldiv@rem+1)),c
 12480  004ECC  5A1D               	movf	((c:___fldiv@a+2)),c,w
 12481  004ECE  5016               	subwfb	((c:___fldiv@rem+2)),c
 12482  004ED0  5A1E               	movf	((c:___fldiv@a+3)),c,w
 12483  004ED2  5017               	subwfb	((c:___fldiv@rem+3)),c
 12484  004ED4  5A1F               	goto	l2030
 12485  004ED6  EF6D  F027         	line	117
 12486                           	
 12487                           l768:
 12488  004EDA                     	line	118
 12489                           	
 12490                           l2030:
 12491  004EDA                     	incf	((c:___fldiv@aexp)),c
 12492  004EDA  2A28               	line	119
 12493                           	
 12494                           l764:
 12495  004EDC                     	line	97
 12496                           		movlw	01Ah-1
 12497  004EDC  0E19               	cpfsgt	((c:___fldiv@aexp)),c
 12498  004EDE  6428               	goto	u1751
 12499  004EE0  EF74  F027         	goto	u1750
 12500  004EE4  EF76  F027         
 12501                           u1751:
 12502  004EE8                     	goto	l2016
 12503  004EE8  EF32  F027         u1750:
 12504  004EEC                     	goto	l2032
 12505  004EEC  EF78  F027         	
 12506                           l769:
 12507  004EF0                     	line	122
 12508                           	
 12509                           l2032:
 12510  004EF0                     	movf	((c:___fldiv@rem)),c,w
 12511  004EF0  501C               iorwf	((c:___fldiv@rem+1)),c,w
 12512  004EF2  101D               iorwf	((c:___fldiv@rem+2)),c,w
 12513  004EF4  101E               iorwf	((c:___fldiv@rem+3)),c,w
 12514  004EF6  101F               	btfsc	status,2
 12515  004EF8  B4D8               	goto	u1761
 12516  004EFA  EF81  F027         	goto	u1760
 12517  004EFE  EF83  F027         
 12518                           u1761:
 12519  004F02                     	goto	l2042
 12520  004F02  EF9F  F027         u1760:
 12521  004F06                     	line	123
 12522                           	
 12523                           l2034:
 12524  004F06                     	bsf	(0+(0/8)+(c:___fldiv@grs)),c,(0)&7
 12525  004F06  8023               	goto	l2042
 12526  004F08  EF9F  F027         	line	124
 12527                           	
 12528                           l770:
 12529  004F0C                     	line	127
 12530                           	goto	l2042
 12531  004F0C  EF9F  F027         	
 12532                           l772:
 12533  004F10                     	line	128
 12534                           	
 12535                           l2036:
 12536  004F10                     	bcf	status,0
 12537  004F10  90D8               	rlcf	((c:___fldiv@b)),c
 12538  004F12  3610               	rlcf	((c:___fldiv@b+1)),c
 12539  004F14  3611               	rlcf	((c:___fldiv@b+2)),c
 12540  004F16  3612               	rlcf	((c:___fldiv@b+3)),c
 12541  004F18  3613               	line	129
 12542                           	
 12543                           l2038:
 12544  004F1A                     	
 12545                           	btfss	((c:___fldiv@grs+3)),c,(31)&7
 12546  004F1A  AE26               	goto	u1771
 12547  004F1C  EF92  F027         	goto	u1770
 12548  004F20  EF94  F027         u1771:
 12549  004F24                     	goto	l773
 12550  004F24  EF95  F027         u1770:
 12551  004F28                     	line	130
 12552                           	
 12553                           l2040:
 12554  004F28                     	bsf	(0+(0/8)+(c:___fldiv@b)),c,(0)&7
 12555  004F28  8010               	line	131
 12556                           	
 12557                           l773:
 12558  004F2A                     	line	132
 12559                           	bcf	status,0
 12560  004F2A  90D8               	rlcf	((c:___fldiv@grs)),c
 12561  004F2C  3623               	rlcf	((c:___fldiv@grs+1)),c
 12562  004F2E  3624               	rlcf	((c:___fldiv@grs+2)),c
 12563  004F30  3625               	rlcf	((c:___fldiv@grs+3)),c
 12564  004F32  3626               	line	133
 12565                           	decf	((c:___fldiv@new_exp)),c
 12566  004F34  0621               	btfss	status,0
 12567  004F36  A0D8               	decf	((c:___fldiv@new_exp+1)),c
 12568  004F38  0622               	goto	l2042
 12569  004F3A  EF9F  F027         	line	134
 12570                           	
 12571                           l771:
 12572  004F3E                     	line	127
 12573                           	
 12574                           l2042:
 12575  004F3E                     	
 12576                           	btfss	((c:___fldiv@b+2)),c,(23)&7
 12577  004F3E  AE12               	goto	u1781
 12578  004F40  EFA4  F027         	goto	u1780
 12579  004F44  EFA6  F027         u1781:
 12580  004F48                     	goto	l2036
 12581  004F48  EF88  F027         u1780:
 12582  004F4C                     	goto	l2044
 12583  004F4C  EFA8  F027         	
 12584                           l774:
 12585  004F50                     	line	139
 12586                           	
 12587                           l2044:
 12588  004F50                     	movlw	low(0)
 12589  004F50  0E00               	movwf	((c:___fldiv@aexp)),c
 12590  004F52  6E28               	line	140
 12591                           	
 12592                           l2046:
 12593  004F54                     	
 12594                           	btfss	((c:___fldiv@grs+3)),c,(31)&7
 12595  004F54  AE26               	goto	u1791
 12596  004F56  EFAF  F027         	goto	u1790
 12597  004F5A  EFB1  F027         u1791:
 12598  004F5E                     	goto	l775
 12599  004F5E  EFD9  F027         u1790:
 12600  004F62                     	line	141
 12601                           	
 12602                           l2048:
 12603  004F62                     	movlw	0FFh
 12604  004F62  0EFF               	andwf	((c:___fldiv@grs)),c,w
 12605  004F64  1423               	movwf	(??___fldiv+0+0)&0ffh,c
 12606  004F66  6E18               	movlw	0FFh
 12607  004F68  0EFF               	andwf	((c:___fldiv@grs+1)),c,w
 12608  004F6A  1424               	movwf	1+(??___fldiv+0+0)&0ffh,c
 12609  004F6C  6E19               	
 12610                           	movlw	0FFh
 12611  004F6E  0EFF               	andwf	((c:___fldiv@grs+2)),c,w
 12612  004F70  1425               	movwf	2+(??___fldiv+0+0)&0ffh,c
 12613  004F72  6E1A               	
 12614                           	movlw	07Fh
 12615  004F74  0E7F               	andwf	((c:___fldiv@grs+3)),c,w
 12616  004F76  1426               	movwf	3+(??___fldiv+0+0)&0ffh,c
 12617  004F78  6E1B               	movf	(??___fldiv+0+0),c,w
 12618  004F7A  5018               iorwf	(??___fldiv+0+1),c,w
 12619  004F7C  1019               iorwf	(??___fldiv+0+2),c,w
 12620  004F7E  101A               iorwf	(??___fldiv+0+3),c,w
 12621  004F80  101B               	btfsc	status,2
 12622  004F82  B4D8               	goto	u1801
 12623  004F84  EFC6  F027         	goto	u1800
 12624  004F88  EFC8  F027         
 12625                           u1801:
 12626  004F8C                     	goto	l776
 12627  004F8C  EFCC  F027         u1800:
 12628  004F90                     	line	142
 12629                           	
 12630                           l2050:
 12631  004F90                     	movlw	low(01h)
 12632  004F90  0E01               	movwf	((c:___fldiv@aexp)),c
 12633  004F92  6E28               	line	143
 12634                           	goto	l775
 12635  004F94  EFD9  F027         	line	144
 12636                           	
 12637                           l776:
 12638  004F98                     	line	145
 12639                           	
 12640                           	btfss	((c:___fldiv@b)),c,(0)&7
 12641  004F98  A010               	goto	u1811
 12642  004F9A  EFD1  F027         	goto	u1810
 12643  004F9E  EFD3  F027         u1811:
 12644  004FA2                     	goto	l775
 12645  004FA2  EFD9  F027         u1810:
 12646  004FA6                     	line	146
 12647                           	
 12648                           l2052:
 12649  004FA6                     	movlw	low(01h)
 12650  004FA6  0E01               	movwf	((c:___fldiv@aexp)),c
 12651  004FA8  6E28               	goto	l775
 12652  004FAA  EFD9  F027         	line	147
 12653                           	
 12654                           l778:
 12655  004FAE                     	goto	l775
 12656  004FAE  EFD9  F027         	line	148
 12657                           	
 12658                           l777:
 12659  004FB2                     	line	149
 12660                           	
 12661                           l775:
 12662  004FB2                     	line	150
 12663                           	movf	((c:___fldiv@aexp)),c,w
 12664  004FB2  5028               	btfsc	status,2
 12665  004FB4  B4D8               	goto	u1821
 12666  004FB6  EFDF  F027         	goto	u1820
 12667  004FBA  EFE1  F027         u1821:
 12668  004FBE                     	goto	l2062
 12669  004FBE  EF09  F028         u1820:
 12670  004FC2                     	line	151
 12671                           	
 12672                           l2054:
 12673  004FC2                     	movlw	low(01h)
 12674  004FC2  0E01               	addwf	((c:___fldiv@b)),c
 12675  004FC4  2610               	movlw	0
 12676  004FC6  0E00               	addwfc	((c:___fldiv@b+1)),c
 12677  004FC8  2211               	addwfc	((c:___fldiv@b+2)),c
 12678  004FCA  2212               	addwfc	((c:___fldiv@b+3)),c
 12679  004FCC  2213               	line	152
 12680                           	
 12681                           l2056:
 12682  004FCE                     	
 12683                           	btfss	((c:___fldiv@b+3)),c,(24)&7
 12684  004FCE  A013               	goto	u1831
 12685  004FD0  EFEC  F027         	goto	u1830
 12686  004FD4  EFEE  F027         u1831:
 12687  004FD8                     	goto	l2062
 12688  004FD8  EF09  F028         u1830:
 12689  004FDC                     	line	153
 12690                           	
 12691                           l2058:
 12692  004FDC                     	movff	(c:___fldiv@b),??___fldiv+0+0
 12693  004FDC  C010  F018         	movff	(c:___fldiv@b+1),??___fldiv+0+0+1
 12694  004FE0  C011  F019         	movff	(c:___fldiv@b+2),??___fldiv+0+0+2
 12695  004FE4  C012  F01A         	movff	(c:___fldiv@b+3),??___fldiv+0+0+3
 12696  004FE8  C013  F01B         	rlcf	(??___fldiv+0+3),c,w
 12697  004FEC  341B               	rrcf	(??___fldiv+0+3),c
 12698  004FEE  321B               	rrcf	(??___fldiv+0+2),c
 12699  004FF0  321A               	rrcf	(??___fldiv+0+1),c
 12700  004FF2  3219               	rrcf	(??___fldiv+0+0),c
 12701  004FF4  3218               	movff	??___fldiv+0+0,(c:___fldiv@b)
 12702  004FF6  C018  F010         	movff	??___fldiv+0+1,(c:___fldiv@b+1)
 12703  004FFA  C019  F011         	movff	??___fldiv+0+2,(c:___fldiv@b+2)
 12704  004FFE  C01A  F012         	movff	??___fldiv+0+3,(c:___fldiv@b+3)
 12705  005002  C01B  F013         	line	154
 12706                           	
 12707                           l2060:
 12708  005006                     	infsnz	((c:___fldiv@new_exp)),c
 12709  005006  4A21               	incf	((c:___fldiv@new_exp+1)),c
 12710  005008  2A22               	goto	l2062
 12711  00500A  EF09  F028         	line	155
 12712                           	
 12713                           l780:
 12714  00500E                     	goto	l2062
 12715  00500E  EF09  F028         	line	156
 12716                           	
 12717                           l779:
 12718  005012                     	line	159
 12719                           	
 12720                           l2062:
 12721  005012                     	btfsc	((c:___fldiv@new_exp+1)),c,7
 12722  005012  BE22               	goto	u1841
 12723  005014  EF14  F028         	movf	((c:___fldiv@new_exp+1)),c,w
 12724  005018  5022               	bnz	u1840
 12725  00501A  E108               	incf	((c:___fldiv@new_exp)),c,w
 12726  00501C  2821               	btfss	status,0
 12727  00501E  A0D8               	goto	u1841
 12728  005020  EF14  F028         	goto	u1840
 12729  005024  EF16  F028         
 12730                           u1841:
 12731  005028                     	goto	l2066
 12732  005028  EF23  F028         u1840:
 12733  00502C                     	line	160
 12734                           	
 12735                           l2064:
 12736  00502C                     	movlw	high(0FFh)
 12737  00502C  0E00               	movwf	((c:___fldiv@new_exp+1)),c
 12738  00502E  6E22               	setf	((c:___fldiv@new_exp)),c
 12739  005030  6821               	line	161
 12740                           	movlw	low(0)
 12741  005032  0E00               	movwf	((c:___fldiv@b)),c
 12742  005034  6E10               	movlw	high(0)
 12743  005036  0E00               	movwf	((c:___fldiv@b+1)),c
 12744  005038  6E11               	movlw	low highword(0)
 12745  00503A  0E00               	movwf	((c:___fldiv@b+2)),c
 12746  00503C  6E12               	movlw	high highword(0)
 12747  00503E  0E00               	movwf	((c:___fldiv@b+3)),c
 12748  005040  6E13               	goto	l2066
 12749  005042  EF23  F028         	line	162
 12750                           	
 12751                           l781:
 12752  005046                     	line	165
 12753                           	
 12754                           l2066:
 12755  005046                     	btfsc	((c:___fldiv@new_exp+1)),c,7
 12756  005046  BE22               	goto	u1850
 12757  005048  EF30  F028         	movf	((c:___fldiv@new_exp+1)),c,w
 12758  00504C  5022               	bnz	u1851
 12759  00504E  E106               	decf	((c:___fldiv@new_exp)),c,w
 12760  005050  0421               	btfsc	status,0
 12761  005052  B0D8               	goto	u1851
 12762  005054  EF2E  F028         	goto	u1850
 12763  005058  EF30  F028         
 12764                           u1851:
 12765  00505C                     	goto	l2070
 12766  00505C  EF40  F028         u1850:
 12767  005060                     	line	166
 12768                           	
 12769                           l2068:
 12770  005060                     	movlw	high(0)
 12771  005060  0E00               	movwf	((c:___fldiv@new_exp+1)),c
 12772  005062  6E22               	movlw	low(0)
 12773  005064  0E00               	movwf	((c:___fldiv@new_exp)),c
 12774  005066  6E21               	line	167
 12775                           	movlw	low(0)
 12776  005068  0E00               	movwf	((c:___fldiv@b)),c
 12777  00506A  6E10               	movlw	high(0)
 12778  00506C  0E00               	movwf	((c:___fldiv@b+1)),c
 12779  00506E  6E11               	movlw	low highword(0)
 12780  005070  0E00               	movwf	((c:___fldiv@b+2)),c
 12781  005072  6E12               	movlw	high highword(0)
 12782  005074  0E00               	movwf	((c:___fldiv@b+3)),c
 12783  005076  6E13               	line	169
 12784                           	movlw	low(0)
 12785  005078  0E00               	movwf	((c:___fldiv@sign)),c
 12786  00507A  6E20               	goto	l2070
 12787  00507C  EF40  F028         	line	170
 12788                           	
 12789                           l782:
 12790  005080                     	line	173
 12791                           	
 12792                           l2070:
 12793  005080                     	movff	(c:___fldiv@new_exp),(c:___fldiv@bexp)
 12794  005080  C021  F027         	line	175
 12795                           	
 12796                           l2072:
 12797  005084                     	
 12798                           	btfss	((c:___fldiv@bexp)),c,(0)&7
 12799  005084  A027               	goto	u1861
 12800  005086  EF47  F028         	goto	u1860
 12801  00508A  EF49  F028         u1861:
 12802  00508E                     	goto	l2076
 12803  00508E  EF4C  F028         u1860:
 12804  005092                     	line	176
 12805                           	
 12806                           l2074:
 12807  005092                     	bsf	(0+(7/8)+0+((c:___fldiv@b)+02h)),c,(7)&7
 12808  005092  8E12               	line	177
 12809                           	goto	l2078
 12810  005094  EF4F  F028         	line	179
 12811                           	
 12812                           l783:
 12813  005098                     	line	180
 12814                           	
 12815                           l2076:
 12816  005098                     	bcf	(0+(7/8)+0+((c:___fldiv@b)+02h)),c,(7)&7
 12817  005098  9E12               	goto	l2078
 12818  00509A  EF4F  F028         	line	181
 12819                           	
 12820                           l784:
 12821  00509E                     	line	182
 12822                           	
 12823                           l2078:
 12824  00509E                     	bcf	status,0
 12825  00509E  90D8               	rrcf	((c:___fldiv@bexp)),c,w
 12826  0050A0  3027               	movwf	(0+((c:___fldiv@b)+03h)),c
 12827  0050A2  6E13               	line	183
 12828                           	
 12829                           l2080:
 12830  0050A4                     	movf	((c:___fldiv@sign)),c,w
 12831  0050A4  5020               	iorwf	(0+((c:___fldiv@b)+03h)),c
 12832  0050A6  1213               	line	184
 12833                           	
 12834                           l2082:
 12835  0050A8                     	movff	(c:___fldiv@b),(c:?___fldiv)
 12836  0050A8  C010  F010         	movff	(c:___fldiv@b+1),(c:?___fldiv+1)
 12837  0050AC  C011  F011         	movff	(c:___fldiv@b+2),(c:?___fldiv+2)
 12838  0050B0  C012  F012         	movff	(c:___fldiv@b+3),(c:?___fldiv+3)
 12839  0050B4  C013  F013         	goto	l762
 12840  0050B8  EF5E  F028         	
 12841                           l2084:
 12842  0050BC                     	line	185
 12843                           	
 12844                           l762:
 12845  0050BC                     	return	;funcret
 12846  0050BC  0012               	opt stack 0
 12847                           GLOBAL	__end_of___fldiv
 12848                           	__end_of___fldiv:
 12849  0050BE                     	signat	___fldiv,8316
 12850                           	global	___fladd
 12851                           
 12852 ;; *************** function ___fladd *****************
 12853 ;; Defined at:
 12854 ;;		line 10 in file "C:\Program Files (x86)\Microchip\xc8\v2.00\pic\sources\c99\common\sprcadd.c"
 12855 ;; Parameters:    Size  Location     Type
 12856 ;;  b               4   44[COMRAM] unsigned char 
 12857 ;;  a               4   48[COMRAM] unsigned char 
 12858 ;; Auto vars:     Size  Location     Type
 12859 ;;  grs             1   63[COMRAM] unsigned char 
 12860 ;;  bexp            1   62[COMRAM] unsigned char 
 12861 ;;  aexp            1   61[COMRAM] unsigned char 
 12862 ;;  signs           1   60[COMRAM] unsigned char 
 12863 ;; Return value:  Size  Location     Type
 12864 ;;                  4   44[COMRAM] unsigned char 
 12865 ;; Registers used:
 12866 ;;		wreg, status,2, status,0
 12867 ;; Tracked objects:
 12868 ;;		On entry : 0/0
 12869 ;;		On exit  : 0/0
 12870 ;;		Unchanged: 0/0
 12871 ;; Data sizes:     COMRAM   BANK0   BANK1   BANK2   BANK3   BANK4   BANK5   BANK6   BANK7   BANK8   BANK9  BANK10  BANK1
       1  BANK12  BANK13  BANK14  BANK15
 12872 ;;      Params:         8       0       0       0       0       0       0       0       0       0       0       0       
       0       0       0       0       0
 12873 ;;      Locals:         4       0       0       0       0       0       0       0       0       0       0       0       
       0       0       0       0       0
 12874 ;;      Temps:          8       0       0       0       0       0       0       0       0       0       0       0       
       0       0       0       0       0
 12875 ;;      Totals:        20       0       0       0       0       0       0       0       0       0       0       0       
       0       0       0       0       0
 12876 ;;Total ram usage:       20 bytes
 12877 ;; Hardware stack levels used:    1
 12878 ;; Hardware stack levels required when called:    1
 12879 ;; This function calls:
 12880 ;;		Nothing
 12881 ;; This function is called by:
 12882 ;;		_Beep
 12883 ;; This function uses a non-reentrant model
 12884 ;;
 12885                           psect	text16,class=CODE,space=0,reloc=2,group=1
 12886                           	file	"C:\Program Files (x86)\Microchip\xc8\v2.00\pic\sources\c99\common\sprcadd.c"
 12887                           	line	10
 12888                           global __ptext16
 12889                           __ptext16:
 12890  00471A                     psect	text16
 12891                           	file	"C:\Program Files (x86)\Microchip\xc8\v2.00\pic\sources\c99\common\sprcadd.c"
 12892                           	line	10
 12893                           	global	__size_of___fladd
 12894                           	__size_of___fladd	equ	__end_of___fladd-___fladd
 12895  0000                     	
 12896                           ___fladd:
 12897  00471A                     ;incstack = 0
 12898                           	opt	stack 27
 12899                           	line	21
 12900                           	
 12901                           l1746:
 12902  00471A                     	movf	(0+((c:___fladd@b)+03h)),c,w
 12903  00471A  5030               	andlw	low(080h)
 12904  00471C  0B80               	movwf	((c:___fladd@signs)),c
 12905  00471E  6E3D               	line	22
 12906                           	movf	(0+((c:___fladd@b)+03h)),c,w
 12907  004720  5030               	addwf	(0+((c:___fladd@b)+03h)),c,w
 12908  004722  2430               	movwf	((c:___fladd@bexp)),c
 12909  004724  6E3F               	line	23
 12910                           	
 12911                           l1748:
 12912  004726                     	
 12913                           	btfss	(0+((c:___fladd@b)+02h)),c,(7)&7
 12914  004726  AE2F               	goto	u1251
 12915  004728  EF98  F023         	goto	u1250
 12916  00472C  EF9A  F023         u1251:
 12917  004730                     	goto	l1752
 12918  004730  EF9D  F023         u1250:
 12919  004734                     	line	24
 12920                           	
 12921                           l1750:
 12922  004734                     	bsf	(0+(0/8)+(c:___fladd@bexp)),c,(0)&7
 12923  004734  803F               	goto	l1752
 12924  004736  EF9D  F023         	line	25
 12925                           	
 12926                           l696:
 12927  00473A                     	line	28
 12928                           	
 12929                           l1752:
 12930  00473A                     	movf	((c:___fladd@bexp)),c,w
 12931  00473A  503F               	btfsc	status,2
 12932  00473C  B4D8               	goto	u1261
 12933  00473E  EFA3  F023         	goto	u1260
 12934  004742  EFA5  F023         u1261:
 12935  004746                     	goto	l1762
 12936  004746  EFBC  F023         u1260:
 12937  00474A                     	line	30
 12938                           	
 12939                           l1754:
 12940  00474A                     		incf	((c:___fladd@bexp)),c,w
 12941  00474A  283F               	btfss	status,2
 12942  00474C  A4D8               	goto	u1271
 12943  00474E  EFAB  F023         	goto	u1270
 12944  004752  EFAD  F023         
 12945                           u1271:
 12946  004756                     	goto	l1758
 12947  004756  EFB7  F023         u1270:
 12948  00475A                     	line	32
 12949                           	
 12950                           l1756:
 12951  00475A                     	movlw	low(normalize32(0x0))
 12952  00475A  0E00               	movwf	((c:___fladd@b)),c
 12953  00475C  6E2D               	movlw	high(normalize32(0x0))
 12954  00475E  0E00               	movwf	((c:___fladd@b+1)),c
 12955  004760  6E2E               	movlw	low highword(normalize32(0x0))
 12956  004762  0E00               	movwf	((c:___fladd@b+2)),c
 12957  004764  6E2F               	movlw	high highword(normalize32(0x0))
 12958  004766  0E00               	movwf	((c:___fladd@b+3)),c
 12959  004768  6E30               	goto	l1758
 12960  00476A  EFB7  F023         	line	33
 12961                           	
 12962                           l698:
 12963  00476E                     	line	35
 12964                           	
 12965                           l1758:
 12966  00476E                     	bsf	(0+(23/8)+(c:___fladd@b)),c,(23)&7
 12967  00476E  8E2F               	line	37
 12968                           	
 12969                           l1760:
 12970  004770                     	movlw	low(0)
 12971  004770  0E00               	movwf	(0+((c:___fladd@b)+03h)),c
 12972  004772  6E30               	line	38
 12973                           	goto	l1764
 12974  004774  EFC6  F023         	line	39
 12975                           	
 12976                           l697:
 12977  004778                     	line	41
 12978                           	
 12979                           l1762:
 12980  004778                     	movlw	low(normalize32(0x0))
 12981  004778  0E00               	movwf	((c:___fladd@b)),c
 12982  00477A  6E2D               	movlw	high(normalize32(0x0))
 12983  00477C  0E00               	movwf	((c:___fladd@b+1)),c
 12984  00477E  6E2E               	movlw	low highword(normalize32(0x0))
 12985  004780  0E00               	movwf	((c:___fladd@b+2)),c
 12986  004782  6E2F               	movlw	high highword(normalize32(0x0))
 12987  004784  0E00               	movwf	((c:___fladd@b+3)),c
 12988  004786  6E30               	goto	l1764
 12989  004788  EFC6  F023         	line	42
 12990                           	
 12991                           l699:
 12992  00478C                     	line	44
 12993                           	
 12994                           l1764:
 12995  00478C                     	movf	(0+((c:___fladd@a)+03h)),c,w
 12996  00478C  5034               	andlw	low(080h)
 12997  00478E  0B80               	movwf	((c:___fladd@aexp)),c
 12998  004790  6E3E               	line	46
 12999                           	
 13000                           l1766:
 13001  004792                     	movf	((c:___fladd@signs)),c,w
 13002  004792  503D               xorwf	((c:___fladd@aexp)),c,w
 13003  004794  183E               	btfsc	status,2
 13004  004796  B4D8               	goto	u1281
 13005  004798  EFD0  F023         	goto	u1280
 13006  00479C  EFD2  F023         
 13007                           u1281:
 13008  0047A0                     	goto	l1770
 13009  0047A0  EFD5  F023         u1280:
 13010  0047A4                     	line	47
 13011                           	
 13012                           l1768:
 13013  0047A4                     	bsf	(0+(6/8)+(c:___fladd@signs)),c,(6)&7
 13014  0047A4  8C3D               	goto	l1770
 13015  0047A6  EFD5  F023         	line	48
 13016                           	
 13017                           l700:
 13018  0047AA                     	line	49
 13019                           	
 13020                           l1770:
 13021  0047AA                     	movf	(0+((c:___fladd@a)+03h)),c,w
 13022  0047AA  5034               	addwf	(0+((c:___fladd@a)+03h)),c,w
 13023  0047AC  2434               	movwf	((c:___fladd@aexp)),c
 13024  0047AE  6E3E               	line	50
 13025                           	
 13026                           l1772:
 13027  0047B0                     	
 13028                           	btfss	(0+((c:___fladd@a)+02h)),c,(7)&7
 13029  0047B0  AE33               	goto	u1291
 13030  0047B2  EFDD  F023         	goto	u1290
 13031  0047B6  EFDF  F023         u1291:
 13032  0047BA                     	goto	l1776
 13033  0047BA  EFE2  F023         u1290:
 13034  0047BE                     	line	51
 13035                           	
 13036                           l1774:
 13037  0047BE                     	bsf	(0+(0/8)+(c:___fladd@aexp)),c,(0)&7
 13038  0047BE  803E               	goto	l1776
 13039  0047C0  EFE2  F023         	line	52
 13040                           	
 13041                           l701:
 13042  0047C4                     	line	55
 13043                           	
 13044                           l1776:
 13045  0047C4                     	movf	((c:___fladd@aexp)),c,w
 13046  0047C4  503E               	btfsc	status,2
 13047  0047C6  B4D8               	goto	u1301
 13048  0047C8  EFE8  F023         	goto	u1300
 13049  0047CC  EFEA  F023         u1301:
 13050  0047D0                     	goto	l1786
 13051  0047D0  EF01  F024         u1300:
 13052  0047D4                     	line	57
 13053                           	
 13054                           l1778:
 13055  0047D4                     		incf	((c:___fladd@aexp)),c,w
 13056  0047D4  283E               	btfss	status,2
 13057  0047D6  A4D8               	goto	u1311
 13058  0047D8  EFF0  F023         	goto	u1310
 13059  0047DC  EFF2  F023         
 13060                           u1311:
 13061  0047E0                     	goto	l1782
 13062  0047E0  EFFC  F023         u1310:
 13063  0047E4                     	line	59
 13064                           	
 13065                           l1780:
 13066  0047E4                     	movlw	low(normalize32(0x0))
 13067  0047E4  0E00               	movwf	((c:___fladd@a)),c
 13068  0047E6  6E31               	movlw	high(normalize32(0x0))
 13069  0047E8  0E00               	movwf	((c:___fladd@a+1)),c
 13070  0047EA  6E32               	movlw	low highword(normalize32(0x0))
 13071  0047EC  0E00               	movwf	((c:___fladd@a+2)),c
 13072  0047EE  6E33               	movlw	high highword(normalize32(0x0))
 13073  0047F0  0E00               	movwf	((c:___fladd@a+3)),c
 13074  0047F2  6E34               	goto	l1782
 13075  0047F4  EFFC  F023         	line	60
 13076                           	
 13077                           l703:
 13078  0047F8                     	line	62
 13079                           	
 13080                           l1782:
 13081  0047F8                     	bsf	(0+(23/8)+(c:___fladd@a)),c,(23)&7
 13082  0047F8  8E33               	line	64
 13083                           	
 13084                           l1784:
 13085  0047FA                     	movlw	low(0)
 13086  0047FA  0E00               	movwf	(0+((c:___fladd@a)+03h)),c
 13087  0047FC  6E34               	line	65
 13088                           	goto	l1788
 13089  0047FE  EF0B  F024         	line	66
 13090                           	
 13091                           l702:
 13092  004802                     	line	68
 13093                           	
 13094                           l1786:
 13095  004802                     	movlw	low(normalize32(0x0))
 13096  004802  0E00               	movwf	((c:___fladd@a)),c
 13097  004804  6E31               	movlw	high(normalize32(0x0))
 13098  004806  0E00               	movwf	((c:___fladd@a+1)),c
 13099  004808  6E32               	movlw	low highword(normalize32(0x0))
 13100  00480A  0E00               	movwf	((c:___fladd@a+2)),c
 13101  00480C  6E33               	movlw	high highword(normalize32(0x0))
 13102  00480E  0E00               	movwf	((c:___fladd@a+3)),c
 13103  004810  6E34               	goto	l1788
 13104  004812  EF0B  F024         	line	69
 13105                           	
 13106                           l704:
 13107  004816                     	line	75
 13108                           	
 13109                           l1788:
 13110  004816                     		movf	((c:___fladd@bexp)),c,w
 13111  004816  503F               	subwf	((c:___fladd@aexp)),c,w
 13112  004818  5C3E               	btfsc	status,0
 13113  00481A  B0D8               	goto	u1321
 13114  00481C  EF12  F024         	goto	u1320
 13115  004820  EF14  F024         
 13116                           u1321:
 13117  004824                     	goto	l1824
 13118  004824  EF3F  F024         u1320:
 13119  004828                     	line	77
 13120                           	
 13121                           l1790:
 13122  004828                     	
 13123                           	btfss	((c:___fladd@signs)),c,(6)&7
 13124  004828  AC3D               	goto	u1331
 13125  00482A  EF19  F024         	goto	u1330
 13126  00482E  EF1B  F024         u1331:
 13127  004832                     	goto	l1794
 13128  004832  EF1F  F024         u1330:
 13129  004836                     	line	78
 13130                           	
 13131                           l1792:
 13132  004836                     	movlw	(080h)&0ffh
 13133  004836  0E80               	xorwf	((c:___fladd@signs)),c
 13134  004838  1A3D               	goto	l1794
 13135  00483A  EF1F  F024         	line	79
 13136                           	
 13137                           l706:
 13138  00483E                     	line	81
 13139                           	
 13140                           l1794:
 13141  00483E                     	movff	(c:___fladd@bexp),(c:___fladd@grs)
 13142  00483E  C03F  F040         	line	82
 13143                           	
 13144                           l1796:
 13145  004842                     	movff	(c:___fladd@aexp),(c:___fladd@bexp)
 13146  004842  C03E  F03F         	line	83
 13147                           	
 13148                           l1798:
 13149  004846                     	movff	(c:___fladd@grs),(c:___fladd@aexp)
 13150  004846  C040  F03E         	line	84
 13151                           	
 13152                           l1800:
 13153  00484A                     	movff	(c:___fladd@b),(c:___fladd@grs)
 13154  00484A  C02D  F040         	line	85
 13155                           	
 13156                           l1802:
 13157  00484E                     	movff	(c:___fladd@a),(c:___fladd@b)
 13158  00484E  C031  F02D         	line	86
 13159                           	
 13160                           l1804:
 13161  004852                     	movff	(c:___fladd@grs),(c:___fladd@a)
 13162  004852  C040  F031         	line	87
 13163                           	
 13164                           l1806:
 13165  004856                     	movff	0+((c:___fladd@b)+01h),(c:___fladd@grs)
 13166  004856  C02E  F040         	line	88
 13167                           	
 13168                           l1808:
 13169  00485A                     	movff	0+((c:___fladd@a)+01h),0+((c:___fladd@b)+01h)
 13170  00485A  C032  F02E         	line	89
 13171                           	
 13172                           l1810:
 13173  00485E                     	movff	(c:___fladd@grs),0+((c:___fladd@a)+01h)
 13174  00485E  C040  F032         	line	90
 13175                           	
 13176                           l1812:
 13177  004862                     	movff	0+((c:___fladd@b)+02h),(c:___fladd@grs)
 13178  004862  C02F  F040         	line	91
 13179                           	
 13180                           l1814:
 13181  004866                     	movff	0+((c:___fladd@a)+02h),0+((c:___fladd@b)+02h)
 13182  004866  C033  F02F         	line	92
 13183                           	
 13184                           l1816:
 13185  00486A                     	movff	(c:___fladd@grs),0+((c:___fladd@a)+02h)
 13186  00486A  C040  F033         	line	93
 13187                           	
 13188                           l1818:
 13189  00486E                     	movff	0+((c:___fladd@b)+03h),(c:___fladd@grs)
 13190  00486E  C030  F040         	line	94
 13191                           	
 13192                           l1820:
 13193  004872                     	movff	0+((c:___fladd@a)+03h),0+((c:___fladd@b)+03h)
 13194  004872  C034  F030         	line	95
 13195                           	
 13196                           l1822:
 13197  004876                     	movff	(c:___fladd@grs),0+((c:___fladd@a)+03h)
 13198  004876  C040  F034         	goto	l1824
 13199  00487A  EF3F  F024         	line	96
 13200                           	
 13201                           l705:
 13202  00487E                     	line	98
 13203                           	
 13204                           l1824:
 13205  00487E                     	movlw	low(0)
 13206  00487E  0E00               	movwf	((c:___fladd@grs)),c
 13207  004880  6E40               	line	100
 13208                           	
 13209                           l1826:
 13210  004882                     	movf	((c:___fladd@bexp)),c,w
 13211  004882  503F               	movwf	(??___fladd+0+0)&0ffh,c
 13212  004884  6E35               	clrf	(??___fladd+0+0+1)&0ffh,c
 13213  004886  6A36               
 13214                           	comf	(??___fladd+0+0),c
 13215  004888  1E35               	comf	(??___fladd+0+1),c
 13216  00488A  1E36               	infsnz	(??___fladd+0+0),c
 13217  00488C  4A35               	incf	(??___fladd+0+1),c
 13218  00488E  2A36               	movf	((c:___fladd@aexp)),c,w
 13219  004890  503E               	movwf	(??___fladd+2+0)&0ffh,c
 13220  004892  6E37               	clrf	(??___fladd+2+0+1)&0ffh,c
 13221  004894  6A38               
 13222                           	movf	(??___fladd+0+0),c,w
 13223  004896  5035               	addwf	(??___fladd+2+0),c
 13224  004898  2637               	movf	(??___fladd+0+1),c,w
 13225  00489A  5036               	addwfc	(??___fladd+2+1),c
 13226  00489C  2238               	btfsc	(??___fladd+2+1),c,7
 13227  00489E  BE38               	goto	u1341
 13228  0048A0  EF5B  F024         	movf	(??___fladd+2+1),c,w
 13229  0048A4  5038               	bnz	u1340
 13230  0048A6  E109               	movlw	26
 13231  0048A8  0E1A               	subwf	 (??___fladd+2+0),c,w
 13232  0048AA  5C37               	btfss	status,0
 13233  0048AC  A0D8               	goto	u1341
 13234  0048AE  EF5B  F024         	goto	u1340
 13235  0048B2  EF5D  F024         
 13236                           u1341:
 13237  0048B6                     	goto	l709
 13238  0048B6  EF9A  F024         u1340:
 13239  0048BA                     	line	101
 13240                           	
 13241                           l1828:
 13242  0048BA                     	movf	((c:___fladd@b)),c,w
 13243  0048BA  502D               iorwf	((c:___fladd@b+1)),c,w
 13244  0048BC  102E               iorwf	((c:___fladd@b+2)),c,w
 13245  0048BE  102F               iorwf	((c:___fladd@b+3)),c,w
 13246  0048C0  1030               	btfss	status,2
 13247  0048C2  A4D8               	goto	u1351
 13248  0048C4  EF66  F024         	goto	u1350
 13249  0048C8  EF69  F024         
 13250                           u1351:
 13251  0048CC                     	movlw	1
 13252  0048CC  0E01               	goto	u1360
 13253  0048CE  EF6A  F024         u1350:
 13254  0048D2                     	movlw	0
 13255  0048D2  0E00               u1360:
 13256  0048D4                     	movwf	((c:___fladd@grs)),c
 13257  0048D4  6E40               	line	102
 13258                           	
 13259                           l1830:
 13260  0048D6                     	movlw	low(0)
 13261  0048D6  0E00               	movwf	((c:___fladd@b)),c
 13262  0048D8  6E2D               	movlw	high(0)
 13263  0048DA  0E00               	movwf	((c:___fladd@b+1)),c
 13264  0048DC  6E2E               	movlw	low highword(0)
 13265  0048DE  0E00               	movwf	((c:___fladd@b+2)),c
 13266  0048E0  6E2F               	movlw	high highword(0)
 13267  0048E2  0E00               	movwf	((c:___fladd@b+3)),c
 13268  0048E4  6E30               	line	103
 13269                           	
 13270                           l1832:
 13271  0048E6                     	movff	(c:___fladd@aexp),(c:___fladd@bexp)
 13272  0048E6  C03E  F03F         	line	104
 13273                           	goto	l708
 13274  0048EA  EFA5  F024         	line	105
 13275                           	
 13276                           l707:
 13277  0048EE                     	line	106
 13278                           	goto	l709
 13279  0048EE  EF9A  F024         	
 13280                           l710:
 13281  0048F2                     	line	109
 13282                           	
 13283                           	btfss	((c:___fladd@grs)),c,(0)&7
 13284  0048F2  A040               	goto	u1371
 13285  0048F4  EF7E  F024         	goto	u1370
 13286  0048F8  EF80  F024         u1371:
 13287  0048FC                     	goto	l1836
 13288  0048FC  EF86  F024         u1370:
 13289  004900                     	line	110
 13290                           	
 13291                           l1834:
 13292  004900                     	bcf	status,0
 13293  004900  90D8               	rrcf	((c:___fladd@grs)),c,w
 13294  004902  3040               	iorlw	low(01h)
 13295  004904  0901               	movwf	((c:___fladd@grs)),c
 13296  004906  6E40               	line	111
 13297                           	goto	l1838
 13298  004908  EF8A  F024         	line	112
 13299                           	
 13300                           l711:
 13301  00490C                     	line	113
 13302                           	
 13303                           l1836:
 13304  00490C                     	bcf status,0
 13305  00490C  90D8               	rrcf	((c:___fladd@grs)),c
 13306  00490E  3240               
 13307                           	goto	l1838
 13308  004910  EF8A  F024         	line	114
 13309                           	
 13310                           l712:
 13311  004914                     	line	115
 13312                           	
 13313                           l1838:
 13314  004914                     	
 13315                           	btfss	((c:___fladd@b)),c,(0)&7
 13316  004914  A02D               	goto	u1381
 13317  004916  EF8F  F024         	goto	u1380
 13318  00491A  EF91  F024         u1381:
 13319  00491E                     	goto	l1842
 13320  00491E  EF94  F024         u1380:
 13321  004922                     	line	116
 13322                           	
 13323                           l1840:
 13324  004922                     	bsf	(0+(7/8)+(c:___fladd@grs)),c,(7)&7
 13325  004922  8E40               	goto	l1842
 13326  004924  EF94  F024         	line	117
 13327                           	
 13328                           l713:
 13329  004928                     	line	118
 13330                           	
 13331                           l1842:
 13332  004928                     	rlcf	((c:___fladd@b+3)),c,w
 13333  004928  3430               	rrcf	((c:___fladd@b+3)),c
 13334  00492A  3230               	rrcf	((c:___fladd@b+2)),c
 13335  00492C  322F               	rrcf	((c:___fladd@b+1)),c
 13336  00492E  322E               	rrcf	((c:___fladd@b)),c
 13337  004930  322D               	line	119
 13338                           	
 13339                           l1844:
 13340  004932                     	incf	((c:___fladd@bexp)),c
 13341  004932  2A3F               	line	120
 13342                           	
 13343                           l709:
 13344  004934                     	line	106
 13345                           		movf	((c:___fladd@aexp)),c,w
 13346  004934  503E               	subwf	((c:___fladd@bexp)),c,w
 13347  004936  5C3F               	btfss	status,0
 13348  004938  A0D8               	goto	u1391
 13349  00493A  EFA1  F024         	goto	u1390
 13350  00493E  EFA3  F024         
 13351                           u1391:
 13352  004942                     	goto	l710
 13353  004942  EF79  F024         u1390:
 13354  004946                     	goto	l708
 13355  004946  EFA5  F024         	
 13356                           l714:
 13357  00494A                     	line	121
 13358                           	
 13359                           l708:
 13360  00494A                     	line	124
 13361                           	
 13362                           	btfsc	((c:___fladd@signs)),c,(6)&7
 13363  00494A  BC3D               	goto	u1401
 13364  00494C  EFAA  F024         	goto	u1400
 13365  004950  EFAC  F024         u1401:
 13366  004954                     	goto	l1870
 13367  004954  EFF4  F024         u1400:
 13368  004958                     	line	127
 13369                           	
 13370                           l1846:
 13371  004958                     	movf	((c:___fladd@bexp)),c,w
 13372  004958  503F               	btfss	status,2
 13373  00495A  A4D8               	goto	u1411
 13374  00495C  EFB2  F024         	goto	u1410
 13375  004960  EFB4  F024         u1411:
 13376  004964                     	goto	l1852
 13377  004964  EFC0  F024         u1410:
 13378  004968                     	line	128
 13379                           	
 13380                           l1848:
 13381  004968                     	movlw	low(normalize32(0x0))
 13382  004968  0E00               	movwf	((c:?___fladd)),c
 13383  00496A  6E2D               	movlw	high(normalize32(0x0))
 13384  00496C  0E00               	movwf	((c:?___fladd+1)),c
 13385  00496E  6E2E               	movlw	low highword(normalize32(0x0))
 13386  004970  0E00               	movwf	((c:?___fladd+2)),c
 13387  004972  6E2F               	movlw	high highword(normalize32(0x0))
 13388  004974  0E00               	movwf	((c:?___fladd+3)),c
 13389  004976  6E30               	goto	l717
 13390  004978  EF4E  F026         	
 13391                           l1850:
 13392  00497C                     	goto	l717
 13393  00497C  EF4E  F026         	line	129
 13394                           	
 13395                           l716:
 13396  004980                     	line	132
 13397                           	
 13398                           l1852:
 13399  004980                     	movf	((c:___fladd@a)),c,w
 13400  004980  5031               	addwf	((c:___fladd@b)),c
 13401  004982  262D               	movf	((c:___fladd@a+1)),c,w
 13402  004984  5032               	addwfc	((c:___fladd@b+1)),c
 13403  004986  222E               	movf	((c:___fladd@a+2)),c,w
 13404  004988  5033               	addwfc	((c:___fladd@b+2)),c
 13405  00498A  222F               	movf	((c:___fladd@a+3)),c,w
 13406  00498C  5034               	addwfc	((c:___fladd@b+3)),c
 13407  00498E  2230               	line	134
 13408                           	
 13409                           l1854:
 13410  004990                     	
 13411                           	btfss	((c:___fladd@b+3)),c,(24)&7
 13412  004990  A030               	goto	u1421
 13413  004992  EFCD  F024         	goto	u1420
 13414  004996  EFCF  F024         u1421:
 13415  00499A                     	goto	l1906
 13416  00499A  EFA4  F025         u1420:
 13417  00499E                     	line	135
 13418                           	
 13419                           l1856:
 13420  00499E                     	
 13421                           	btfss	((c:___fladd@grs)),c,(0)&7
 13422  00499E  A040               	goto	u1431
 13423  0049A0  EFD4  F024         	goto	u1430
 13424  0049A4  EFD6  F024         u1431:
 13425  0049A8                     	goto	l1860
 13426  0049A8  EFDC  F024         u1430:
 13427  0049AC                     	line	136
 13428                           	
 13429                           l1858:
 13430  0049AC                     	bcf	status,0
 13431  0049AC  90D8               	rrcf	((c:___fladd@grs)),c,w
 13432  0049AE  3040               	iorlw	low(01h)
 13433  0049B0  0901               	movwf	((c:___fladd@grs)),c
 13434  0049B2  6E40               	line	137
 13435                           	goto	l1862
 13436  0049B4  EFE0  F024         	line	138
 13437                           	
 13438                           l719:
 13439  0049B8                     	line	139
 13440                           	
 13441                           l1860:
 13442  0049B8                     	bcf status,0
 13443  0049B8  90D8               	rrcf	((c:___fladd@grs)),c
 13444  0049BA  3240               
 13445                           	goto	l1862
 13446  0049BC  EFE0  F024         	line	140
 13447                           	
 13448                           l720:
 13449  0049C0                     	line	141
 13450                           	
 13451                           l1862:
 13452  0049C0                     	
 13453                           	btfss	((c:___fladd@b)),c,(0)&7
 13454  0049C0  A02D               	goto	u1441
 13455  0049C2  EFE5  F024         	goto	u1440
 13456  0049C6  EFE7  F024         u1441:
 13457  0049CA                     	goto	l1866
 13458  0049CA  EFEA  F024         u1440:
 13459  0049CE                     	line	142
 13460                           	
 13461                           l1864:
 13462  0049CE                     	bsf	(0+(7/8)+(c:___fladd@grs)),c,(7)&7
 13463  0049CE  8E40               	goto	l1866
 13464  0049D0  EFEA  F024         	line	143
 13465                           	
 13466                           l721:
 13467  0049D4                     	line	144
 13468                           	
 13469                           l1866:
 13470  0049D4                     	rlcf	((c:___fladd@b+3)),c,w
 13471  0049D4  3430               	rrcf	((c:___fladd@b+3)),c
 13472  0049D6  3230               	rrcf	((c:___fladd@b+2)),c
 13473  0049D8  322F               	rrcf	((c:___fladd@b+1)),c
 13474  0049DA  322E               	rrcf	((c:___fladd@b)),c
 13475  0049DC  322D               	line	145
 13476                           	
 13477                           l1868:
 13478  0049DE                     	incf	((c:___fladd@bexp)),c
 13479  0049DE  2A3F               	goto	l1906
 13480  0049E0  EFA4  F025         	line	146
 13481                           	
 13482                           l718:
 13483  0049E4                     	line	148
 13484                           	goto	l1906
 13485  0049E4  EFA4  F025         	line	149
 13486                           	
 13487                           l715:
 13488  0049E8                     	line	153
 13489                           	
 13490                           l1870:
 13491  0049E8                     		movf	((c:___fladd@a)),c,w
 13492  0049E8  5031               	subwf	((c:___fladd@b)),c,w
 13493  0049EA  5C2D               	movf	((c:___fladd@a+1)),c,w
 13494  0049EC  5032               	subwfb	((c:___fladd@b+1)),c,w
 13495  0049EE  582E               	movf	((c:___fladd@a+2)),c,w
 13496  0049F0  5033               	subwfb	((c:___fladd@b+2)),c,w
 13497  0049F2  582F               	movf	((c:___fladd@b+3)),c,w
 13498  0049F4  5030               	xorlw	80h
 13499  0049F6  0A80               	movwf	(??___fladd+0+0)&0ffh,c
 13500  0049F8  6E35               	movf	((c:___fladd@a+3)),c,w
 13501  0049FA  5034               	xorlw	80h
 13502  0049FC  0A80               	subwfb	(??___fladd+0+0)&0ffh,c,w
 13503  0049FE  5835               	btfsc	status,0
 13504  004A00  B0D8               	goto	u1451
 13505  004A02  EF05  F025         	goto	u1450
 13506  004A06  EF07  F025         
 13507                           u1451:
 13508  004A0A                     	goto	l1880
 13509  004A0A  EF45  F025         u1450:
 13510  004A0E                     	line	154
 13511                           	
 13512                           l1872:
 13513  004A0E                     	movff	(c:___fladd@b),??___fladd+0+0
 13514  004A0E  C02D  F035         	movff	(c:___fladd@b+1),??___fladd+0+0+1
 13515  004A12  C02E  F036         	movff	(c:___fladd@b+2),??___fladd+0+0+2
 13516  004A16  C02F  F037         	movff	(c:___fladd@b+3),??___fladd+0+0+3
 13517  004A1A  C030  F038         	comf	(??___fladd+0+0),c
 13518  004A1E  1E35               	comf	(??___fladd+0+1),c
 13519  004A20  1E36               	comf	(??___fladd+0+2),c
 13520  004A22  1E37               	comf	(??___fladd+0+3),c
 13521  004A24  1E38               	incf	(??___fladd+0+0),c
 13522  004A26  2A35               	movlw	0
 13523  004A28  0E00               	addwfc	(??___fladd+0+1),c
 13524  004A2A  2236               	addwfc	(??___fladd+0+2),c
 13525  004A2C  2237               	addwfc	(??___fladd+0+3),c
 13526  004A2E  2238               	movf	((c:___fladd@a)),c,w
 13527  004A30  5031               	addwf	(??___fladd+0+0),c,w
 13528  004A32  2435               	movwf	(??___fladd+4+0)&0ffh,c
 13529  004A34  6E39               	movf	((c:___fladd@a+1)),c,w
 13530  004A36  5032               	addwfc	(??___fladd+0+1),c,w
 13531  004A38  2036               	movwf	1+(??___fladd+4+0)&0ffh,c
 13532  004A3A  6E3A               	
 13533                           	movf	((c:___fladd@a+2)),c,w
 13534  004A3C  5033               	addwfc	(??___fladd+0+2),c,w
 13535  004A3E  2037               	movwf	2+(??___fladd+4+0)&0ffh,c
 13536  004A40  6E3B               	
 13537                           	movf	((c:___fladd@a+3)),c,w
 13538  004A42  5034               	addwfc	(??___fladd+0+3),c,w
 13539  004A44  2038               	movwf	3+(??___fladd+4+0)&0ffh,c
 13540  004A46  6E3C               	movlw	0FFh
 13541  004A48  0EFF               	addwf	(??___fladd+4+0),c,w
 13542  004A4A  2439               	movwf	((c:___fladd@b)),c
 13543  004A4C  6E2D               	movlw	0FFh
 13544  004A4E  0EFF               	addwfc	(??___fladd+4+1),c,w
 13545  004A50  203A               	movwf	1+((c:___fladd@b)),c
 13546  004A52  6E2E               	
 13547                           	movlw	0FFh
 13548  004A54  0EFF               	addwfc	(??___fladd+4+2),c,w
 13549  004A56  203B               	movwf	2+((c:___fladd@b)),c
 13550  004A58  6E2F               	
 13551                           	movlw	0FFh
 13552  004A5A  0EFF               	addwfc	(??___fladd+4+3),c,w
 13553  004A5C  203C               	movwf	3+((c:___fladd@b)),c
 13554  004A5E  6E30               	line	155
 13555                           	movlw	(080h)&0ffh
 13556  004A60  0E80               	xorwf	((c:___fladd@signs)),c
 13557  004A62  1A3D               	line	156
 13558                           	
 13559                           l1874:
 13560  004A64                     	negf	((c:___fladd@grs)),c
 13561  004A64  6C40               	line	157
 13562                           	
 13563                           l1876:
 13564  004A66                     	movf	((c:___fladd@grs)),c,w
 13565  004A66  5040               	btfss	status,2
 13566  004A68  A4D8               	goto	u1461
 13567  004A6A  EF39  F025         	goto	u1460
 13568  004A6E  EF3B  F025         u1461:
 13569  004A72                     	goto	l725
 13570  004A72  EF4D  F025         u1460:
 13571  004A76                     	line	158
 13572                           	
 13573                           l1878:
 13574  004A76                     	movlw	low(01h)
 13575  004A76  0E01               	addwf	((c:___fladd@b)),c
 13576  004A78  262D               	movlw	0
 13577  004A7A  0E00               	addwfc	((c:___fladd@b+1)),c
 13578  004A7C  222E               	addwfc	((c:___fladd@b+2)),c
 13579  004A7E  222F               	addwfc	((c:___fladd@b+3)),c
 13580  004A80  2230               	goto	l725
 13581  004A82  EF4D  F025         	line	159
 13582                           	
 13583                           l724:
 13584  004A86                     	line	160
 13585                           	goto	l725
 13586  004A86  EF4D  F025         	line	161
 13587                           	
 13588                           l723:
 13589  004A8A                     	line	162
 13590                           	
 13591                           l1880:
 13592  004A8A                     	movf	((c:___fladd@a)),c,w
 13593  004A8A  5031               	subwf	((c:___fladd@b)),c
 13594  004A8C  5E2D               	movf	((c:___fladd@a+1)),c,w
 13595  004A8E  5032               	subwfb	((c:___fladd@b+1)),c
 13596  004A90  5A2E               	movf	((c:___fladd@a+2)),c,w
 13597  004A92  5033               	subwfb	((c:___fladd@b+2)),c
 13598  004A94  5A2F               	movf	((c:___fladd@a+3)),c,w
 13599  004A96  5034               	subwfb	((c:___fladd@b+3)),c
 13600  004A98  5A30               	line	163
 13601                           	
 13602                           l725:
 13603  004A9A                     	line	166
 13604                           	movf	((c:___fladd@b)),c,w
 13605  004A9A  502D               iorwf	((c:___fladd@b+1)),c,w
 13606  004A9C  102E               iorwf	((c:___fladd@b+2)),c,w
 13607  004A9E  102F               iorwf	((c:___fladd@b+3)),c,w
 13608  004AA0  1030               	btfss	status,2
 13609  004AA2  A4D8               	goto	u1471
 13610  004AA4  EF56  F025         	goto	u1470
 13611  004AA8  EF58  F025         
 13612                           u1471:
 13613  004AAC                     	goto	l1904
 13614  004AAC  EF99  F025         u1470:
 13615  004AB0                     	
 13616                           l1882:
 13617  004AB0                     	movf	((c:___fladd@grs)),c,w
 13618  004AB0  5040               	btfss	status,2
 13619  004AB2  A4D8               	goto	u1481
 13620  004AB4  EF5E  F025         	goto	u1480
 13621  004AB8  EF60  F025         u1481:
 13622  004ABC                     	goto	l1904
 13623  004ABC  EF99  F025         u1480:
 13624  004AC0                     	line	167
 13625                           	
 13626                           l1884:
 13627  004AC0                     	movlw	low(normalize32(0x0))
 13628  004AC0  0E00               	movwf	((c:?___fladd)),c
 13629  004AC2  6E2D               	movlw	high(normalize32(0x0))
 13630  004AC4  0E00               	movwf	((c:?___fladd+1)),c
 13631  004AC6  6E2E               	movlw	low highword(normalize32(0x0))
 13632  004AC8  0E00               	movwf	((c:?___fladd+2)),c
 13633  004ACA  6E2F               	movlw	high highword(normalize32(0x0))
 13634  004ACC  0E00               	movwf	((c:?___fladd+3)),c
 13635  004ACE  6E30               	goto	l717
 13636  004AD0  EF4E  F026         	
 13637                           l1886:
 13638  004AD4                     	goto	l717
 13639  004AD4  EF4E  F026         	line	168
 13640                           	
 13641                           l726:
 13642  004AD8                     	line	171
 13643                           	goto	l1904
 13644  004AD8  EF99  F025         	
 13645                           l728:
 13646  004ADC                     	line	172
 13647                           	
 13648                           l1888:
 13649  004ADC                     	bcf	status,0
 13650  004ADC  90D8               	rlcf	((c:___fladd@b)),c
 13651  004ADE  362D               	rlcf	((c:___fladd@b+1)),c
 13652  004AE0  362E               	rlcf	((c:___fladd@b+2)),c
 13653  004AE2  362F               	rlcf	((c:___fladd@b+3)),c
 13654  004AE4  3630               	line	173
 13655                           	
 13656                           l1890:
 13657  004AE6                     	
 13658                           	btfss	((c:___fladd@grs)),c,(7)&7
 13659  004AE6  AE40               	goto	u1491
 13660  004AE8  EF78  F025         	goto	u1490
 13661  004AEC  EF7A  F025         u1491:
 13662  004AF0                     	goto	l1894
 13663  004AF0  EF7D  F025         u1490:
 13664  004AF4                     	line	174
 13665                           	
 13666                           l1892:
 13667  004AF4                     	bsf	(0+(0/8)+(c:___fladd@b)),c,(0)&7
 13668  004AF4  802D               	goto	l1894
 13669  004AF6  EF7D  F025         	line	175
 13670                           	
 13671                           l729:
 13672  004AFA                     	line	176
 13673                           	
 13674                           l1894:
 13675  004AFA                     	
 13676                           	btfss	((c:___fladd@grs)),c,(0)&7
 13677  004AFA  A040               	goto	u1501
 13678  004AFC  EF82  F025         	goto	u1500
 13679  004B00  EF84  F025         u1501:
 13680  004B04                     	goto	l1898
 13681  004B04  EF88  F025         u1500:
 13682  004B08                     	line	177
 13683                           	
 13684                           l1896:
 13685  004B08                     	bsf	status,0
 13686  004B08  80D8               	
 13687                           	rlcf	((c:___fladd@grs)),c
 13688  004B0A  3640               	line	178
 13689                           	goto	l1900
 13690  004B0C  EF8C  F025         	line	179
 13691                           	
 13692                           l730:
 13693  004B10                     	line	180
 13694                           	
 13695                           l1898:
 13696  004B10                     	bcf status,0
 13697  004B10  90D8               	rlcf	((c:___fladd@grs)),c
 13698  004B12  3640               
 13699                           	goto	l1900
 13700  004B14  EF8C  F025         	line	181
 13701                           	
 13702                           l731:
 13703  004B18                     	line	182
 13704                           	
 13705                           l1900:
 13706  004B18                     	movf	((c:___fladd@bexp)),c,w
 13707  004B18  503F               	btfsc	status,2
 13708  004B1A  B4D8               	goto	u1511
 13709  004B1C  EF92  F025         	goto	u1510
 13710  004B20  EF94  F025         u1511:
 13711  004B24                     	goto	l1904
 13712  004B24  EF99  F025         u1510:
 13713  004B28                     	line	183
 13714                           	
 13715                           l1902:
 13716  004B28                     	decf	((c:___fladd@bexp)),c
 13717  004B28  063F               	goto	l1904
 13718  004B2A  EF99  F025         	line	184
 13719                           	
 13720                           l732:
 13721  004B2E                     	goto	l1904
 13722  004B2E  EF99  F025         	line	185
 13723                           	
 13724                           l727:
 13725  004B32                     	line	171
 13726                           	
 13727                           l1904:
 13728  004B32                     	
 13729                           	btfss	((c:___fladd@b+2)),c,(23)&7
 13730  004B32  AE2F               	goto	u1521
 13731  004B34  EF9E  F025         	goto	u1520
 13732  004B38  EFA0  F025         u1521:
 13733  004B3C                     	goto	l1888
 13734  004B3C  EF6E  F025         u1520:
 13735  004B40                     	goto	l1906
 13736  004B40  EFA4  F025         	
 13737                           l733:
 13738  004B44                     	goto	l1906
 13739  004B44  EFA4  F025         	line	186
 13740                           	
 13741                           l722:
 13742  004B48                     	line	192
 13743                           	
 13744                           l1906:
 13745  004B48                     	movlw	low(0)
 13746  004B48  0E00               	movwf	((c:___fladd@aexp)),c
 13747  004B4A  6E3E               	line	193
 13748                           	
 13749                           l1908:
 13750  004B4C                     	
 13751                           	btfss	((c:___fladd@grs)),c,(7)&7
 13752  004B4C  AE40               	goto	u1531
 13753  004B4E  EFAB  F025         	goto	u1530
 13754  004B52  EFAD  F025         u1531:
 13755  004B56                     	goto	l734
 13756  004B56  EFC9  F025         u1530:
 13757  004B5A                     	line	194
 13758                           	
 13759                           l1910:
 13760  004B5A                     	movff	(c:___fladd@grs),??___fladd+0+0
 13761  004B5A  C040  F035         	movlw	07Fh
 13762  004B5E  0E7F               	andwf	(??___fladd+0+0),c
 13763  004B60  1635               	btfsc	status,2
 13764  004B62  B4D8               	goto	u1541
 13765  004B64  EFB6  F025         	goto	u1540
 13766  004B68  EFB8  F025         u1541:
 13767  004B6C                     	goto	l735
 13768  004B6C  EFBC  F025         u1540:
 13769  004B70                     	line	195
 13770                           	
 13771                           l1912:
 13772  004B70                     	movlw	low(01h)
 13773  004B70  0E01               	movwf	((c:___fladd@aexp)),c
 13774  004B72  6E3E               	line	196
 13775                           	goto	l734
 13776  004B74  EFC9  F025         	line	197
 13777                           	
 13778                           l735:
 13779  004B78                     	line	198
 13780                           	
 13781                           	btfss	((c:___fladd@b)),c,(0)&7
 13782  004B78  A02D               	goto	u1551
 13783  004B7A  EFC1  F025         	goto	u1550
 13784  004B7E  EFC3  F025         u1551:
 13785  004B82                     	goto	l734
 13786  004B82  EFC9  F025         u1550:
 13787  004B86                     	line	199
 13788                           	
 13789                           l1914:
 13790  004B86                     	movlw	low(01h)
 13791  004B86  0E01               	movwf	((c:___fladd@aexp)),c
 13792  004B88  6E3E               	goto	l734
 13793  004B8A  EFC9  F025         	line	200
 13794                           	
 13795                           l737:
 13796  004B8E                     	goto	l734
 13797  004B8E  EFC9  F025         	line	201
 13798                           	
 13799                           l736:
 13800  004B92                     	line	202
 13801                           	
 13802                           l734:
 13803  004B92                     	line	203
 13804                           	movf	((c:___fladd@aexp)),c,w
 13805  004B92  503E               	btfsc	status,2
 13806  004B94  B4D8               	goto	u1561
 13807  004B96  EFCF  F025         	goto	u1560
 13808  004B9A  EFD1  F025         u1561:
 13809  004B9E                     	goto	l1924
 13810  004B9E  EF02  F026         u1560:
 13811  004BA2                     	line	204
 13812                           	
 13813                           l1916:
 13814  004BA2                     	movlw	low(01h)
 13815  004BA2  0E01               	addwf	((c:___fladd@b)),c
 13816  004BA4  262D               	movlw	0
 13817  004BA6  0E00               	addwfc	((c:___fladd@b+1)),c
 13818  004BA8  222E               	addwfc	((c:___fladd@b+2)),c
 13819  004BAA  222F               	addwfc	((c:___fladd@b+3)),c
 13820  004BAC  2230               	line	205
 13821                           	
 13822                           l1918:
 13823  004BAE                     	
 13824                           	btfss	((c:___fladd@b+3)),c,(24)&7
 13825  004BAE  A030               	goto	u1571
 13826  004BB0  EFDC  F025         	goto	u1570
 13827  004BB4  EFDE  F025         u1571:
 13828  004BB8                     	goto	l1924
 13829  004BB8  EF02  F026         u1570:
 13830  004BBC                     	line	206
 13831                           	
 13832                           l1920:
 13833  004BBC                     	movff	(c:___fladd@b),??___fladd+0+0
 13834  004BBC  C02D  F035         	movff	(c:___fladd@b+1),??___fladd+0+0+1
 13835  004BC0  C02E  F036         	movff	(c:___fladd@b+2),??___fladd+0+0+2
 13836  004BC4  C02F  F037         	movff	(c:___fladd@b+3),??___fladd+0+0+3
 13837  004BC8  C030  F038         	rlcf	(??___fladd+0+3),c,w
 13838  004BCC  3438               	rrcf	(??___fladd+0+3),c
 13839  004BCE  3238               	rrcf	(??___fladd+0+2),c
 13840  004BD0  3237               	rrcf	(??___fladd+0+1),c
 13841  004BD2  3236               	rrcf	(??___fladd+0+0),c
 13842  004BD4  3235               	movff	??___fladd+0+0,(c:___fladd@b)
 13843  004BD6  C035  F02D         	movff	??___fladd+0+1,(c:___fladd@b+1)
 13844  004BDA  C036  F02E         	movff	??___fladd+0+2,(c:___fladd@b+2)
 13845  004BDE  C037  F02F         	movff	??___fladd+0+3,(c:___fladd@b+3)
 13846  004BE2  C038  F030         	line	207
 13847                           		incf	((c:___fladd@bexp)),c,w
 13848  004BE6  283F               	btfsc	status,2
 13849  004BE8  B4D8               	goto	u1581
 13850  004BEA  EFF9  F025         	goto	u1580
 13851  004BEE  EFFB  F025         
 13852                           u1581:
 13853  004BF2                     	goto	l1924
 13854  004BF2  EF02  F026         u1580:
 13855  004BF6                     	line	208
 13856                           	
 13857                           l1922:
 13858  004BF6                     	incf	((c:___fladd@bexp)),c
 13859  004BF6  2A3F               	goto	l1924
 13860  004BF8  EF02  F026         	line	209
 13861                           	
 13862                           l740:
 13863  004BFC                     	goto	l1924
 13864  004BFC  EF02  F026         	line	210
 13865                           	
 13866                           l739:
 13867  004C00                     	goto	l1924
 13868  004C00  EF02  F026         	line	211
 13869                           	
 13870                           l738:
 13871  004C04                     	line	215
 13872                           	
 13873                           l1924:
 13874  004C04                     		incf	((c:___fladd@bexp)),c,w
 13875  004C04  283F               	btfsc	status,2
 13876  004C06  B4D8               	goto	u1591
 13877  004C08  EF08  F026         	goto	u1590
 13878  004C0C  EF0A  F026         
 13879                           u1591:
 13880  004C10                     	goto	l1928
 13881  004C10  EF14  F026         u1590:
 13882  004C14                     	
 13883                           l1926:
 13884  004C14                     	movf	((c:___fladd@bexp)),c,w
 13885  004C14  503F               	btfss	status,2
 13886  004C16  A4D8               	goto	u1601
 13887  004C18  EF10  F026         	goto	u1600
 13888  004C1C  EF12  F026         u1601:
 13889  004C20                     	goto	l1932
 13890  004C20  EF2A  F026         u1600:
 13891  004C24                     	goto	l1928
 13892  004C24  EF14  F026         	
 13893                           l743:
 13894  004C28                     	line	216
 13895                           	
 13896                           l1928:
 13897  004C28                     	movlw	low(0)
 13898  004C28  0E00               	movwf	((c:___fladd@b)),c
 13899  004C2A  6E2D               	movlw	high(0)
 13900  004C2C  0E00               	movwf	((c:___fladd@b+1)),c
 13901  004C2E  6E2E               	movlw	low highword(0)
 13902  004C30  0E00               	movwf	((c:___fladd@b+2)),c
 13903  004C32  6E2F               	movlw	high highword(0)
 13904  004C34  0E00               	movwf	((c:___fladd@b+3)),c
 13905  004C36  6E30               	line	218
 13906                           	movf	((c:___fladd@bexp)),c,w
 13907  004C38  503F               	btfss	status,2
 13908  004C3A  A4D8               	goto	u1611
 13909  004C3C  EF22  F026         	goto	u1610
 13910  004C40  EF24  F026         u1611:
 13911  004C44                     	goto	l1932
 13912  004C44  EF2A  F026         u1610:
 13913  004C48                     	line	219
 13914                           	
 13915                           l1930:
 13916  004C48                     	movlw	low(0)
 13917  004C48  0E00               	movwf	((c:___fladd@signs)),c
 13918  004C4A  6E3D               	goto	l1932
 13919  004C4C  EF2A  F026         	line	220
 13920                           	
 13921                           l744:
 13922  004C50                     	goto	l1932
 13923  004C50  EF2A  F026         	line	221
 13924                           	
 13925                           l741:
 13926  004C54                     	line	225
 13927                           	
 13928                           l1932:
 13929  004C54                     	
 13930                           	btfss	((c:___fladd@bexp)),c,(0)&7
 13931  004C54  A03F               	goto	u1621
 13932  004C56  EF2F  F026         	goto	u1620
 13933  004C5A  EF31  F026         u1621:
 13934  004C5E                     	goto	l1936
 13935  004C5E  EF34  F026         u1620:
 13936  004C62                     	line	226
 13937                           	
 13938                           l1934:
 13939  004C62                     	bsf	(0+(7/8)+0+((c:___fladd@b)+02h)),c,(7)&7
 13940  004C62  8E2F               	line	227
 13941                           	goto	l1938
 13942  004C64  EF37  F026         	line	229
 13943                           	
 13944                           l745:
 13945  004C68                     	line	230
 13946                           	
 13947                           l1936:
 13948  004C68                     	bcf	(0+(7/8)+0+((c:___fladd@b)+02h)),c,(7)&7
 13949  004C68  9E2F               	goto	l1938
 13950  004C6A  EF37  F026         	line	231
 13951                           	
 13952                           l746:
 13953  004C6E                     	line	232
 13954                           	
 13955                           l1938:
 13956  004C6E                     	bcf	status,0
 13957  004C6E  90D8               	rrcf	((c:___fladd@bexp)),c,w
 13958  004C70  303F               	movwf	(0+((c:___fladd@b)+03h)),c
 13959  004C72  6E30               	line	233
 13960                           	
 13961                           l1940:
 13962  004C74                     	
 13963                           	btfss	((c:___fladd@signs)),c,(7)&7
 13964  004C74  AE3D               	goto	u1631
 13965  004C76  EF3F  F026         	goto	u1630
 13966  004C7A  EF41  F026         u1631:
 13967  004C7E                     	goto	l1944
 13968  004C7E  EF44  F026         u1630:
 13969  004C82                     	line	234
 13970                           	
 13971                           l1942:
 13972  004C82                     	bsf	(0+(7/8)+0+((c:___fladd@b)+03h)),c,(7)&7
 13973  004C82  8E30               	goto	l1944
 13974  004C84  EF44  F026         	line	235
 13975                           	
 13976                           l747:
 13977  004C88                     	line	236
 13978                           	
 13979                           l1944:
 13980  004C88                     	movff	(c:___fladd@b),(c:?___fladd)
 13981  004C88  C02D  F02D         	movff	(c:___fladd@b+1),(c:?___fladd+1)
 13982  004C8C  C02E  F02E         	movff	(c:___fladd@b+2),(c:?___fladd+2)
 13983  004C90  C02F  F02F         	movff	(c:___fladd@b+3),(c:?___fladd+3)
 13984  004C94  C030  F030         	goto	l717
 13985  004C98  EF4E  F026         	
 13986                           l1946:
 13987  004C9C                     	line	237
 13988                           	
 13989                           l717:
 13990  004C9C                     	return	;funcret
 13991  004C9C  0012               	opt stack 0
 13992                           GLOBAL	__end_of___fladd
 13993                           	__end_of___fladd:
 13994  004C9E                     	signat	___fladd,8316
 13995                           	global	_atoi
 13996                           
 13997 ;; *************** function _atoi *****************
 13998 ;; Defined at:
 13999 ;;		line 4 in file "C:\Program Files (x86)\Microchip\xc8\v2.00\pic\sources\c99\common\atoi.c"
 14000 ;; Parameters:    Size  Location     Type
 14001 ;;  s               2    8[COMRAM] PTR const unsigned char 
 14002 ;;		 -> main@str(20), 
 14003 ;; Auto vars:     Size  Location     Type
 14004 ;;  n               2   21[COMRAM] int 
 14005 ;;  neg             2   14[COMRAM] int 
 14006 ;; Return value:  Size  Location     Type
 14007 ;;                  2    8[COMRAM] int 
 14008 ;; Registers used:
 14009 ;;		wreg, fsr2l, fsr2h, status,2, status,0, prodl, prodh, cstack
 14010 ;; Tracked objects:
 14011 ;;		On entry : 0/0
 14012 ;;		On exit  : 0/0
 14013 ;;		Unchanged: 0/0
 14014 ;; Data sizes:     COMRAM   BANK0   BANK1   BANK2   BANK3   BANK4   BANK5   BANK6   BANK7   BANK8   BANK9  BANK10  BANK1
       1  BANK12  BANK13  BANK14  BANK15
 14015 ;;      Params:         2       0       0       0       0       0       0       0       0       0       0       0       
       0       0       0       0       0
 14016 ;;      Locals:         9       0       0       0       0       0       0       0       0       0       0       0       
       0       0       0       0       0
 14017 ;;      Temps:          4       0       0       0       0       0       0       0       0       0       0       0       
       0       0       0       0       0
 14018 ;;      Totals:        15       0       0       0       0       0       0       0       0       0       0       0       
       0       0       0       0       0
 14019 ;;Total ram usage:       15 bytes
 14020 ;; Hardware stack levels used:    1
 14021 ;; Hardware stack levels required when called:    2
 14022 ;; This function calls:
 14023 ;;		___wmul
 14024 ;;		_isdigit
 14025 ;;		_isspace
 14026 ;; This function is called by:
 14027 ;;		_main
 14028 ;; This function uses a non-reentrant model
 14029 ;;
 14030                           psect	text17,class=CODE,space=0,reloc=2,group=2
 14031                           	file	"C:\Program Files (x86)\Microchip\xc8\v2.00\pic\sources\c99\common\atoi.c"
 14032                           	line	4
 14033                           global __ptext17
 14034                           __ptext17:
 14035  0050BE                     psect	text17
 14036                           	file	"C:\Program Files (x86)\Microchip\xc8\v2.00\pic\sources\c99\common\atoi.c"
 14037                           	line	4
 14038                           	global	__size_of_atoi
 14039                           	__size_of_atoi	equ	__end_of_atoi-_atoi
 14040  0000                     	
 14041                           _atoi:
 14042  0050BE                     ;incstack = 0
 14043                           	opt	stack 28
 14044                           	line	6
 14045                           	
 14046                           l2324:
 14047  0050BE                     	movlw	high(0)
 14048  0050BE  0E00               	movwf	((c:atoi@n+1)),c
 14049  0050C0  6E17               	movlw	low(0)
 14050  0050C2  0E00               	movwf	((c:atoi@n)),c
 14051  0050C4  6E16               	movlw	high(0)
 14052  0050C6  0E00               	movwf	((c:atoi@neg+1)),c
 14053  0050C8  6E10               	movlw	low(0)
 14054  0050CA  0E00               	movwf	((c:atoi@neg)),c
 14055  0050CC  6E0F               	line	7
 14056                           	goto	l2328
 14057  0050CE  EF6D  F028         	
 14058                           l859:
 14059  0050D2                     	
 14060                           l2326:
 14061  0050D2                     	infsnz	((c:atoi@s)),c
 14062  0050D2  4A09               	incf	((c:atoi@s+1)),c
 14063  0050D4  2A0A               	goto	l2328
 14064  0050D6  EF6D  F028         	
 14065                           l858:
 14066  0050DA                     	
 14067                           l2328:
 14068  0050DA                     	movlw	low(01h)
 14069  0050DA  0E01               	movwf	((c:_atoi$1270)),c
 14070  0050DC  6E15               	
 14071                           l2330:
 14072  0050DE                     	movff	(c:atoi@s),fsr2l
 14073  0050DE  C009  FFD9         	movff	(c:atoi@s+1),fsr2h
 14074  0050E2  C00A  FFDA         	movlw	32
 14075  0050E6  0E20               	xorwf	postinc2,w
 14076  0050E8  18DE               	btfsc	status,2
 14077  0050EA  B4D8               	goto	u2211
 14078  0050EC  EF7A  F028         	goto	u2210
 14079  0050F0  EF7C  F028         
 14080                           u2211:
 14081  0050F4                     	goto	l2336
 14082  0050F4  EF9A  F028         u2210:
 14083  0050F8                     	
 14084                           l2332:
 14085  0050F8                     	movlw	low(0FFF7h)
 14086  0050F8  0EF7               	movwf	(??_atoi+0+0)&0ffh,c
 14087  0050FA  6E0B               	movlw	high(0FFF7h)
 14088  0050FC  0EFF               	movwf	1+(??_atoi+0+0)&0ffh,c
 14089  0050FE  6E0C               	movff	(c:atoi@s),fsr2l
 14090  005100  C009  FFD9         	movff	(c:atoi@s+1),fsr2h
 14091  005104  C00A  FFDA         	movf	indf2,w
 14092  005108  50DF               	movwf	(??_atoi+2+0)&0ffh,c
 14093  00510A  6E0D               	clrf	(??_atoi+2+0+1)&0ffh,c
 14094  00510C  6A0E               
 14095                           	movf	(??_atoi+0+0),c,w
 14096  00510E  500B               	addwf	(??_atoi+2+0),c
 14097  005110  260D               	movf	(??_atoi+0+1),c,w
 14098  005112  500C               	addwfc	(??_atoi+2+1),c
 14099  005114  220E               		movf	(??_atoi+2+1),c,w
 14100  005116  500E               	bnz	u2220
 14101  005118  E109               	movlw	5
 14102  00511A  0E05               	subwf	 (??_atoi+2+0),c,w
 14103  00511C  5C0D               	btfss	status,0
 14104  00511E  A0D8               	goto	u2221
 14105  005120  EF94  F028         	goto	u2220
 14106  005124  EF96  F028         
 14107                           u2221:
 14108  005128                     	goto	l2336
 14109  005128  EF9A  F028         u2220:
 14110  00512C                     	
 14111                           l2334:
 14112  00512C                     	movlw	low(0)
 14113  00512C  0E00               	movwf	((c:_atoi$1270)),c
 14114  00512E  6E15               	goto	l2336
 14115  005130  EF9A  F028         	
 14116                           l865:
 14117  005134                     	
 14118                           l2336:
 14119  005134                     	movff	(c:_atoi$1270),(c:_atoi$1269)
 14120  005134  C015  F011         	clrf	((c:_atoi$1269+1)),c
 14121  005138  6A12               	goto	l2340
 14122  00513A  EFB0  F028         	
 14123                           l861:
 14124  00513E                     	
 14125                           l2338:
 14126  00513E                     	movff	(c:atoi@s),fsr2l
 14127  00513E  C009  FFD9         	movff	(c:atoi@s+1),fsr2h
 14128  005142  C00A  FFDA         	movf	indf2,w
 14129  005146  50DF               	movwf	(??_atoi+0+0)&0ffh,c
 14130  005148  6E0B               	movf	((??_atoi+0+0)),c,w
 14131  00514A  500B               	movwf	((c:isspace@c)),c
 14132  00514C  6E02               	clrf	((c:isspace@c+1)),c
 14133  00514E  6A03               	call	_isspace	;wreg free
 14134  005150  ECA3  F02D         	movff	0+?_isspace,(c:_atoi$1269)
 14135  005154  C002  F011         	movff	1+?_isspace,(c:_atoi$1269+1)
 14136  005158  C003  F012         	goto	l2340
 14137  00515C  EFB0  F028         	
 14138                           l863:
 14139  005160                     	
 14140                           l2340:
 14141  005160                     	movf	((c:_atoi$1269)),c,w
 14142  005160  5011               iorwf	((c:_atoi$1269+1)),c,w
 14143  005162  1012               	btfss	status,2
 14144  005164  A4D8               	goto	u2231
 14145  005166  EFB7  F028         	goto	u2230
 14146  00516A  EFB9  F028         
 14147                           u2231:
 14148  00516E                     	goto	l2326
 14149  00516E  EF69  F028         u2230:
 14150  005172                     	goto	l2346
 14151  005172  EFC7  F028         	
 14152                           l866:
 14153  005176                     	line	8
 14154                           	goto	l2346
 14155  005176  EFC7  F028         	line	9
 14156                           	
 14157                           l868:
 14158  00517A                     	
 14159                           l2342:
 14160  00517A                     	movlw	high(01h)
 14161  00517A  0E00               	movwf	((c:atoi@neg+1)),c
 14162  00517C  6E10               	movlw	low(01h)
 14163  00517E  0E01               	movwf	((c:atoi@neg)),c
 14164  005180  6E0F               	goto	l2344
 14165  005182  EFC3  F028         	line	10
 14166                           	
 14167                           l869:
 14168  005186                     	
 14169                           l2344:
 14170  005186                     	infsnz	((c:atoi@s)),c
 14171  005186  4A09               	incf	((c:atoi@s+1)),c
 14172  005188  2A0A               	line	11
 14173                           	goto	l2352
 14174  00518A  EF09  F029         	
 14175                           l867:
 14176  00518E                     	
 14177                           l2346:
 14178  00518E                     	movff	(c:atoi@s),fsr2l
 14179  00518E  C009  FFD9         	movff	(c:atoi@s+1),fsr2h
 14180  005192  C00A  FFDA         	movf	indf2,w
 14181  005196  50DF               	movwf	(??_atoi+0+0)&0ffh,c
 14182  005198  6E0B               	clrf	(??_atoi+0+0+1)&0ffh,c
 14183  00519A  6A0C               
 14184                           	; Switch on 2 bytes has been partitioned into a top level switch of size 1, and 1 sub-s
                                 witches
 14185                           ; Switch size 1, requested type "space"
 14186                           ; Number of cases is 1, Range of values is 0 to 0
 14187                           ; switch strategies available:
 14188                           ; Name         Instructions Cycles
 14189                           ; simple_byte            4     3 (average)
 14190                           ;	Chosen strategy is simple_byte
 14191                           
 14192                           	movf ??_atoi+0+1,c,w
 14193  00519C  500C               	xorlw	0^0	; case 0
 14194  00519E  0A00               	skipnz
 14195  0051A0  B4D8               	goto	l2452
 14196  0051A2  EFD5  F028         	goto	l2352
 14197  0051A6  EF09  F029         	
 14198                           l2452:
 14199  0051AA                     ; Switch size 1, requested type "space"
 14200                           ; Number of cases is 2, Range of values is 43 to 45
 14201                           ; switch strategies available:
 14202                           ; Name         Instructions Cycles
 14203                           ; simple_byte            7     4 (average)
 14204                           ;	Chosen strategy is simple_byte
 14205                           
 14206                           	movf ??_atoi+0+0,c,w
 14207  0051AA  500B               	xorlw	43^0	; case 43
 14208  0051AC  0A2B               	skipnz
 14209  0051AE  B4D8               	goto	l2344
 14210  0051B0  EFC3  F028         	xorlw	45^43	; case 45
 14211  0051B4  0A06               	skipnz
 14212  0051B6  B4D8               	goto	l2342
 14213  0051B8  EFBD  F028         	goto	l2352
 14214  0051BC  EF09  F029         
 14215                           	
 14216                           l870:
 14217  0051C0                     	line	13
 14218                           	goto	l2352
 14219  0051C0  EF09  F029         	
 14220                           l872:
 14221  0051C4                     	line	14
 14222                           	
 14223                           l2348:
 14224  0051C4                     	movlw	low(0FFD0h)
 14225  0051C4  0ED0               	movwf	(??_atoi+0+0)&0ffh,c
 14226  0051C6  6E0B               	movlw	high(0FFD0h)
 14227  0051C8  0EFF               	movwf	1+(??_atoi+0+0)&0ffh,c
 14228  0051CA  6E0C               	movff	(c:atoi@s),fsr2l
 14229  0051CC  C009  FFD9         	movff	(c:atoi@s+1),fsr2h
 14230  0051D0  C00A  FFDA         	movf	indf2,w
 14231  0051D4  50DF               	movwf	(??_atoi+2+0)&0ffh,c
 14232  0051D6  6E0D               	clrf	(??_atoi+2+0+1)&0ffh,c
 14233  0051D8  6A0E               
 14234                           	movf	(??_atoi+0+0),c,w
 14235  0051DA  500B               	addwf	(??_atoi+2+0),c
 14236  0051DC  260D               	movf	(??_atoi+0+1),c,w
 14237  0051DE  500C               	addwfc	(??_atoi+2+1),c
 14238  0051E0  220E               	comf	(??_atoi+2+0),c
 14239  0051E2  1E0D               	comf	(??_atoi+2+1),c
 14240  0051E4  1E0E               	infsnz	(??_atoi+2+0),c
 14241  0051E6  4A0D               	incf	(??_atoi+2+1),c
 14242  0051E8  2A0E               	movff	(c:atoi@n),(c:___wmul@multiplier)
 14243  0051EA  C016  F002         	movff	(c:atoi@n+1),(c:___wmul@multiplier+1)
 14244  0051EE  C017  F003         	movlw	high(0Ah)
 14245  0051F2  0E00               	movwf	((c:___wmul@multiplicand+1)),c
 14246  0051F4  6E05               	movlw	low(0Ah)
 14247  0051F6  0E0A               	movwf	((c:___wmul@multiplicand)),c
 14248  0051F8  6E04               	call	___wmul	;wreg free
 14249  0051FA  EC60  F02E         	movf	(??_atoi+2+0),c,w
 14250  0051FE  500D               	addwf	(0+?___wmul),c,w
 14251  005200  2402               	movwf	((c:atoi@n)),c
 14252  005202  6E16               	movf	(??_atoi+2+1),c,w
 14253  005204  500E               	addwfc	(1+?___wmul),c,w
 14254  005206  2003               	movwf	1+((c:atoi@n)),c
 14255  005208  6E17               	
 14256                           l2350:
 14257  00520A                     	infsnz	((c:atoi@s)),c
 14258  00520A  4A09               	incf	((c:atoi@s+1)),c
 14259  00520C  2A0A               	goto	l2352
 14260  00520E  EF09  F029         	
 14261                           l871:
 14262  005212                     	line	13
 14263                           	
 14264                           l2352:
 14265  005212                     	movlw	low(0FFD0h)
 14266  005212  0ED0               	movwf	(??_atoi+0+0)&0ffh,c
 14267  005214  6E0B               	movlw	high(0FFD0h)
 14268  005216  0EFF               	movwf	1+(??_atoi+0+0)&0ffh,c
 14269  005218  6E0C               	movff	(c:atoi@s),fsr2l
 14270  00521A  C009  FFD9         	movff	(c:atoi@s+1),fsr2h
 14271  00521E  C00A  FFDA         	movf	indf2,w
 14272  005222  50DF               	movwf	(??_atoi+2+0)&0ffh,c
 14273  005224  6E0D               	clrf	(??_atoi+2+0+1)&0ffh,c
 14274  005226  6A0E               
 14275                           	movf	(??_atoi+0+0),c,w
 14276  005228  500B               	addwf	(??_atoi+2+0),c
 14277  00522A  260D               	movf	(??_atoi+0+1),c,w
 14278  00522C  500C               	addwfc	(??_atoi+2+1),c
 14279  00522E  220E               		movf	(??_atoi+2+1),c,w
 14280  005230  500E               	bnz	u2240
 14281  005232  E10A               	movlw	10
 14282  005234  0E0A               	subwf	 (??_atoi+2+0),c,w
 14283  005236  5C0D               	btfss	status,0
 14284  005238  A0D8               	goto	u2241
 14285  00523A  EF21  F029         	goto	u2240
 14286  00523E  EF24  F029         
 14287                           u2241:
 14288  005242                     	movlw	1
 14289  005242  0E01               	goto	u2250
 14290  005244  EF25  F029         u2240:
 14291  005248                     	movlw	0
 14292  005248  0E00               u2250:
 14293  00524A                     	movwf	((c:_atoi$1271)),c
 14294  00524A  6E13               	clrf	((c:_atoi$1271+1)),c
 14295  00524C  6A14               	goto	l2356
 14296  00524E  EF3A  F029         	
 14297                           l874:
 14298  005252                     	
 14299                           l2354:
 14300  005252                     	movff	(c:atoi@s),fsr2l
 14301  005252  C009  FFD9         	movff	(c:atoi@s+1),fsr2h
 14302  005256  C00A  FFDA         	movf	indf2,w
 14303  00525A  50DF               	movwf	(??_atoi+0+0)&0ffh,c
 14304  00525C  6E0B               	movf	((??_atoi+0+0)),c,w
 14305  00525E  500B               	movwf	((c:isdigit@c)),c
 14306  005260  6E02               	clrf	((c:isdigit@c+1)),c
 14307  005262  6A03               	call	_isdigit	;wreg free
 14308  005264  EC0E  F02E         	movff	0+?_isdigit,(c:_atoi$1271)
 14309  005268  C002  F013         	movff	1+?_isdigit,(c:_atoi$1271+1)
 14310  00526C  C003  F014         	goto	l2356
 14311  005270  EF3A  F029         	
 14312                           l876:
 14313  005274                     	
 14314                           l2356:
 14315  005274                     	movf	((c:_atoi$1271)),c,w
 14316  005274  5013               iorwf	((c:_atoi$1271+1)),c,w
 14317  005276  1014               	btfss	status,2
 14318  005278  A4D8               	goto	u2261
 14319  00527A  EF41  F029         	goto	u2260
 14320  00527E  EF43  F029         
 14321                           u2261:
 14322  005282                     	goto	l2348
 14323  005282  EFE2  F028         u2260:
 14324  005286                     	goto	l2358
 14325  005286  EF45  F029         	
 14326                           l877:
 14327  00528A                     	line	15
 14328                           	
 14329                           l2358:
 14330  00528A                     	movf	((c:atoi@neg)),c,w
 14331  00528A  500F               iorwf	((c:atoi@neg+1)),c,w
 14332  00528C  1010               	btfss	status,2
 14333  00528E  A4D8               	goto	u2271
 14334  005290  EF4C  F029         	goto	u2270
 14335  005294  EF4E  F029         
 14336                           u2271:
 14337  005298                     	goto	l879
 14338  005298  EF5C  F029         u2270:
 14339  00529C                     	
 14340                           l2360:
 14341  00529C                     	movff	(c:atoi@n),??_atoi+0+0
 14342  00529C  C016  F00B         	movff	(c:atoi@n+1),??_atoi+0+0+1
 14343  0052A0  C017  F00C         	comf	(??_atoi+0+0),c
 14344  0052A4  1E0B               	comf	(??_atoi+0+1),c
 14345  0052A6  1E0C               	infsnz	(??_atoi+0+0),c
 14346  0052A8  4A0B               	incf	(??_atoi+0+1),c
 14347  0052AA  2A0C               	movff	??_atoi+0+0,(c:?_atoi)
 14348  0052AC  C00B  F009         	movff	??_atoi+0+1,(c:?_atoi+1)
 14349  0052B0  C00C  F00A         	goto	l882
 14350  0052B4  EF62  F029         	
 14351                           l879:
 14352  0052B8                     	movff	(c:atoi@n),(c:?_atoi)
 14353  0052B8  C016  F009         	movff	(c:atoi@n+1),(c:?_atoi+1)
 14354  0052BC  C017  F00A         	goto	l882
 14355  0052C0  EF62  F029         	
 14356                           l881:
 14357  0052C4                     	line	16
 14358                           	
 14359                           l882:
 14360  0052C4                     	return	;funcret
 14361  0052C4  0012               	opt stack 0
 14362                           GLOBAL	__end_of_atoi
 14363                           	__end_of_atoi:
 14364  0052C6                     	signat	_atoi,4218
 14365                           	global	_isspace
 14366                           
 14367 ;; *************** function _isspace *****************
 14368 ;; Defined at:
 14369 ;;		line 5 in file "C:\Program Files (x86)\Microchip\xc8\v2.00\pic\sources\c99\common\isspace.c"
 14370 ;; Parameters:    Size  Location     Type
 14371 ;;  c               2    1[COMRAM] int 
 14372 ;; Auto vars:     Size  Location     Type
 14373 ;;		None
 14374 ;; Return value:  Size  Location     Type
 14375 ;;                  2    1[COMRAM] int 
 14376 ;; Registers used:
 14377 ;;		wreg, status,2, status,0
 14378 ;; Tracked objects:
 14379 ;;		On entry : 0/0
 14380 ;;		On exit  : 0/0
 14381 ;;		Unchanged: 0/0
 14382 ;; Data sizes:     COMRAM   BANK0   BANK1   BANK2   BANK3   BANK4   BANK5   BANK6   BANK7   BANK8   BANK9  BANK10  BANK1
       1  BANK12  BANK13  BANK14  BANK15
 14383 ;;      Params:         2       0       0       0       0       0       0       0       0       0       0       0       
       0       0       0       0       0
 14384 ;;      Locals:         1       0       0       0       0       0       0       0       0       0       0       0       
       0       0       0       0       0
 14385 ;;      Temps:          4       0       0       0       0       0       0       0       0       0       0       0       
       0       0       0       0       0
 14386 ;;      Totals:         7       0       0       0       0       0       0       0       0       0       0       0       
       0       0       0       0       0
 14387 ;;Total ram usage:        7 bytes
 14388 ;; Hardware stack levels used:    1
 14389 ;; Hardware stack levels required when called:    1
 14390 ;; This function calls:
 14391 ;;		Nothing
 14392 ;; This function is called by:
 14393 ;;		_atoi
 14394 ;; This function uses a non-reentrant model
 14395 ;;
 14396                           psect	text18,class=CODE,space=0,reloc=2,group=2
 14397                           	file	"C:\Program Files (x86)\Microchip\xc8\v2.00\pic\sources\c99\common\isspace.c"
 14398                           	line	5
 14399                           global __ptext18
 14400                           __ptext18:
 14401  005B46                     psect	text18
 14402                           	file	"C:\Program Files (x86)\Microchip\xc8\v2.00\pic\sources\c99\common\isspace.c"
 14403                           	line	5
 14404                           	global	__size_of_isspace
 14405                           	__size_of_isspace	equ	__end_of_isspace-_isspace
 14406  0000                     	
 14407                           _isspace:
 14408  005B46                     ;incstack = 0
 14409                           	opt	stack 28
 14410                           	line	7
 14411                           	
 14412                           l2228:
 14413  005B46                     	movlw	low(01h)
 14414  005B46  0E01               	movwf	((c:_isspace$1287)),c
 14415  005B48  6E08               	
 14416                           l2230:
 14417  005B4A                     		movlw	32
 14418  005B4A  0E20               	xorwf	((c:isspace@c)),c,w
 14419  005B4C  1802               iorwf	((c:isspace@c+1)),c,w
 14420  005B4E  1003               	btfsc	status,2
 14421  005B50  B4D8               	goto	u2101
 14422  005B52  EFAD  F02D         	goto	u2100
 14423  005B56  EFAF  F02D         
 14424                           u2101:
 14425  005B5A                     	goto	l2236
 14426  005B5A  EFCA  F02D         u2100:
 14427  005B5E                     	
 14428                           l2232:
 14429  005B5E                     	movlw	low(0FFF7h)
 14430  005B5E  0EF7               	movwf	(??_isspace+0+0)&0ffh,c
 14431  005B60  6E04               	movlw	high(0FFF7h)
 14432  005B62  0EFF               	movwf	1+(??_isspace+0+0)&0ffh,c
 14433  005B64  6E05               	movff	(c:isspace@c),??_isspace+2+0
 14434  005B66  C002  F006         	movff	(c:isspace@c+1),??_isspace+2+0+1
 14435  005B6A  C003  F007         	movf	(??_isspace+0+0),c,w
 14436  005B6E  5004               	addwf	(??_isspace+2+0),c
 14437  005B70  2606               	movf	(??_isspace+0+1),c,w
 14438  005B72  5005               	addwfc	(??_isspace+2+1),c
 14439  005B74  2207               		movf	(??_isspace+2+1),c,w
 14440  005B76  5007               	bnz	u2110
 14441  005B78  E109               	movlw	5
 14442  005B7A  0E05               	subwf	 (??_isspace+2+0),c,w
 14443  005B7C  5C06               	btfss	status,0
 14444  005B7E  A0D8               	goto	u2111
 14445  005B80  EFC4  F02D         	goto	u2110
 14446  005B84  EFC6  F02D         
 14447                           u2111:
 14448  005B88                     	goto	l2236
 14449  005B88  EFCA  F02D         u2110:
 14450  005B8C                     	
 14451                           l2234:
 14452  005B8C                     	movlw	low(0)
 14453  005B8C  0E00               	movwf	((c:_isspace$1287)),c
 14454  005B8E  6E08               	goto	l2236
 14455  005B90  EFCA  F02D         	
 14456                           l892:
 14457  005B94                     	
 14458                           l2236:
 14459  005B94                     	movff	(c:_isspace$1287),(c:?_isspace)
 14460  005B94  C008  F002         	clrf	((c:?_isspace+1)),c
 14461  005B98  6A03               	goto	l893
 14462  005B9A  EFCF  F02D         	
 14463                           l2238:
 14464  005B9E                     	line	8
 14465                           	
 14466                           l893:
 14467  005B9E                     	return	;funcret
 14468  005B9E  0012               	opt stack 0
 14469                           GLOBAL	__end_of_isspace
 14470                           	__end_of_isspace:
 14471  005BA0                     	signat	_isspace,4218
 14472                           	global	_isdigit
 14473                           
 14474 ;; *************** function _isdigit *****************
 14475 ;; Defined at:
 14476 ;;		line 5 in file "C:\Program Files (x86)\Microchip\xc8\v2.00\pic\sources\c99\common\isdigit.c"
 14477 ;; Parameters:    Size  Location     Type
 14478 ;;  c               2    1[COMRAM] int 
 14479 ;; Auto vars:     Size  Location     Type
 14480 ;;		None
 14481 ;; Return value:  Size  Location     Type
 14482 ;;                  2    1[COMRAM] int 
 14483 ;; Registers used:
 14484 ;;		wreg, status,2, status,0
 14485 ;; Tracked objects:
 14486 ;;		On entry : 0/0
 14487 ;;		On exit  : 0/0
 14488 ;;		Unchanged: 0/0
 14489 ;; Data sizes:     COMRAM   BANK0   BANK1   BANK2   BANK3   BANK4   BANK5   BANK6   BANK7   BANK8   BANK9  BANK10  BANK1
       1  BANK12  BANK13  BANK14  BANK15
 14490 ;;      Params:         2       0       0       0       0       0       0       0       0       0       0       0       
       0       0       0       0       0
 14491 ;;      Locals:         0       0       0       0       0       0       0       0       0       0       0       0       
       0       0       0       0       0
 14492 ;;      Temps:          4       0       0       0       0       0       0       0       0       0       0       0       
       0       0       0       0       0
 14493 ;;      Totals:         6       0       0       0       0       0       0       0       0       0       0       0       
       0       0       0       0       0
 14494 ;;Total ram usage:        6 bytes
 14495 ;; Hardware stack levels used:    1
 14496 ;; Hardware stack levels required when called:    1
 14497 ;; This function calls:
 14498 ;;		Nothing
 14499 ;; This function is called by:
 14500 ;;		_atoi
 14501 ;; This function uses a non-reentrant model
 14502 ;;
 14503                           psect	text19,class=CODE,space=0,reloc=2,group=2
 14504                           	file	"C:\Program Files (x86)\Microchip\xc8\v2.00\pic\sources\c99\common\isdigit.c"
 14505                           	line	5
 14506                           global __ptext19
 14507                           __ptext19:
 14508  005C1C                     psect	text19
 14509                           	file	"C:\Program Files (x86)\Microchip\xc8\v2.00\pic\sources\c99\common\isdigit.c"
 14510                           	line	5
 14511                           	global	__size_of_isdigit
 14512                           	__size_of_isdigit	equ	__end_of_isdigit-_isdigit
 14513  0000                     	
 14514                           _isdigit:
 14515  005C1C                     ;incstack = 0
 14516                           	opt	stack 28
 14517                           	line	7
 14518                           	
 14519                           l2240:
 14520  005C1C                     	movlw	low(0FFD0h)
 14521  005C1C  0ED0               	movwf	(??_isdigit+0+0)&0ffh,c
 14522  005C1E  6E04               	movlw	high(0FFD0h)
 14523  005C20  0EFF               	movwf	1+(??_isdigit+0+0)&0ffh,c
 14524  005C22  6E05               	movff	(c:isdigit@c),??_isdigit+2+0
 14525  005C24  C002  F006         	movff	(c:isdigit@c+1),??_isdigit+2+0+1
 14526  005C28  C003  F007         	movf	(??_isdigit+0+0),c,w
 14527  005C2C  5004               	addwf	(??_isdigit+2+0),c
 14528  005C2E  2606               	movf	(??_isdigit+0+1),c,w
 14529  005C30  5005               	addwfc	(??_isdigit+2+1),c
 14530  005C32  2207               		movf	(??_isdigit+2+1),c,w
 14531  005C34  5007               	bnz	u2120
 14532  005C36  E10A               	movlw	10
 14533  005C38  0E0A               	subwf	 (??_isdigit+2+0),c,w
 14534  005C3A  5C06               	btfss	status,0
 14535  005C3C  A0D8               	goto	u2121
 14536  005C3E  EF23  F02E         	goto	u2120
 14537  005C42  EF26  F02E         
 14538                           u2121:
 14539  005C46                     	movlw	1
 14540  005C46  0E01               	goto	u2130
 14541  005C48  EF27  F02E         u2120:
 14542  005C4C                     	movlw	0
 14543  005C4C  0E00               u2130:
 14544  005C4E                     	movwf	((c:?_isdigit)),c
 14545  005C4E  6E02               	clrf	((c:?_isdigit+1)),c
 14546  005C50  6A03               	goto	l885
 14547  005C52  EF2B  F02E         	
 14548                           l2242:
 14549  005C56                     	line	8
 14550                           	
 14551                           l885:
 14552  005C56                     	return	;funcret
 14553  005C56  0012               	opt stack 0
 14554                           GLOBAL	__end_of_isdigit
 14555                           	__end_of_isdigit:
 14556  005C58                     	signat	_isdigit,4218
 14557                           	global	___wmul
 14558                           
 14559 ;; *************** function ___wmul *****************
 14560 ;; Defined at:
 14561 ;;		line 15 in file "C:\Program Files (x86)\Microchip\xc8\v2.00\pic\sources\c99\common\Umul16.c"
 14562 ;; Parameters:    Size  Location     Type
 14563 ;;  multiplier      2    1[COMRAM] unsigned int 
 14564 ;;  multiplicand    2    3[COMRAM] unsigned int 
 14565 ;; Auto vars:     Size  Location     Type
 14566 ;;  product         2    5[COMRAM] unsigned int 
 14567 ;; Return value:  Size  Location     Type
 14568 ;;                  2    1[COMRAM] unsigned int 
 14569 ;; Registers used:
 14570 ;;		wreg, status,2, status,0, prodl, prodh
 14571 ;; Tracked objects:
 14572 ;;		On entry : 0/0
 14573 ;;		On exit  : 0/0
 14574 ;;		Unchanged: 0/0
 14575 ;; Data sizes:     COMRAM   BANK0   BANK1   BANK2   BANK3   BANK4   BANK5   BANK6   BANK7   BANK8   BANK9  BANK10  BANK1
       1  BANK12  BANK13  BANK14  BANK15
 14576 ;;      Params:         4       0       0       0       0       0       0       0       0       0       0       0       
       0       0       0       0       0
 14577 ;;      Locals:         2       0       0       0       0       0       0       0       0       0       0       0       
       0       0       0       0       0
 14578 ;;      Temps:          0       0       0       0       0       0       0       0       0       0       0       0       
       0       0       0       0       0
 14579 ;;      Totals:         6       0       0       0       0       0       0       0       0       0       0       0       
       0       0       0       0       0
 14580 ;;Total ram usage:        6 bytes
 14581 ;; Hardware stack levels used:    1
 14582 ;; Hardware stack levels required when called:    1
 14583 ;; This function calls:
 14584 ;;		Nothing
 14585 ;; This function is called by:
 14586 ;;		_atoi
 14587 ;; This function uses a non-reentrant model
 14588 ;;
 14589                           psect	text20,class=CODE,space=0,reloc=2,group=1
 14590                           	file	"C:\Program Files (x86)\Microchip\xc8\v2.00\pic\sources\c99\common\Umul16.c"
 14591                           	line	15
 14592                           global __ptext20
 14593                           __ptext20:
 14594  005CC0                     psect	text20
 14595                           	file	"C:\Program Files (x86)\Microchip\xc8\v2.00\pic\sources\c99\common\Umul16.c"
 14596                           	line	15
 14597                           	global	__size_of___wmul
 14598                           	__size_of___wmul	equ	__end_of___wmul-___wmul
 14599  0000                     	
 14600                           ___wmul:
 14601  005CC0                     ;incstack = 0
 14602                           	opt	stack 28
 14603                           	line	37
 14604                           	
 14605                           l2222:
 14606  005CC0                     	movf	((c:___wmul@multiplier)),c,w
 14607  005CC0  5002               	mulwf	((c:___wmul@multiplicand)),c
 14608  005CC2  0204               	movff	prodl,(c:___wmul@product)
 14609  005CC4  CFF3 F006          	movff	prodh,(c:___wmul@product+1)
 14610  005CC8  CFF4 F007          	line	38
 14611                           	movf	((c:___wmul@multiplier)),c,w
 14612  005CCC  5002               	mulwf	(0+((c:___wmul@multiplicand)+01h)),c
 14613  005CCE  0205               	movf	(prodl),c,w
 14614  005CD0  50F3               	addwf	((c:___wmul@product+1)),c
 14615  005CD2  2607               
 14616                           	line	39
 14617                           	movf	(0+((c:___wmul@multiplier)+01h)),c,w
 14618  005CD4  5003               	mulwf	((c:___wmul@multiplicand)),c
 14619  005CD6  0204               	movf	(prodl),c,w
 14620  005CD8  50F3               	addwf	((c:___wmul@product+1)),c
 14621  005CDA  2607               
 14622                           	line	52
 14623                           	
 14624                           l2224:
 14625  005CDC                     	movff	(c:___wmul@product),(c:?___wmul)
 14626  005CDC  C006  F002         	movff	(c:___wmul@product+1),(c:?___wmul+1)
 14627  005CE0  C007  F003         	goto	l180
 14628  005CE4  EF74  F02E         	
 14629                           l2226:
 14630  005CE8                     	line	53
 14631                           	
 14632                           l180:
 14633  005CE8                     	return	;funcret
 14634  005CE8  0012               	opt stack 0
 14635                           GLOBAL	__end_of___wmul
 14636                           	__end_of___wmul:
 14637  005CEA                     	signat	___wmul,8314
 14638                           	global	_UART_Initialize
 14639                           
 14640 ;; *************** function _UART_Initialize *****************
 14641 ;; Defined at:
 14642 ;;		line 89 in file "main.c"
 14643 ;; Parameters:    Size  Location     Type
 14644 ;;		None
 14645 ;; Auto vars:     Size  Location     Type
 14646 ;;		None
 14647 ;; Return value:  Size  Location     Type
 14648 ;;                  1    wreg      void 
 14649 ;; Registers used:
 14650 ;;		wreg, status,2
 14651 ;; Tracked objects:
 14652 ;;		On entry : 0/0
 14653 ;;		On exit  : 0/0
 14654 ;;		Unchanged: 0/0
 14655 ;; Data sizes:     COMRAM   BANK0   BANK1   BANK2   BANK3   BANK4   BANK5   BANK6   BANK7   BANK8   BANK9  BANK10  BANK1
       1  BANK12  BANK13  BANK14  BANK15
 14656 ;;      Params:         0       0       0       0       0       0       0       0       0       0       0       0       
       0       0       0       0       0
 14657 ;;      Locals:         0       0       0       0       0       0       0       0       0       0       0       0       
       0       0       0       0       0
 14658 ;;      Temps:          0       0       0       0       0       0       0       0       0       0       0       0       
       0       0       0       0       0
 14659 ;;      Totals:         0       0       0       0       0       0       0       0       0       0       0       0       
       0       0       0       0       0
 14660 ;;Total ram usage:        0 bytes
 14661 ;; Hardware stack levels used:    1
 14662 ;; Hardware stack levels required when called:    1
 14663 ;; This function calls:
 14664 ;;		Nothing
 14665 ;; This function is called by:
 14666 ;;		_main
 14667 ;; This function uses a non-reentrant model
 14668 ;;
 14669                           psect	text21,class=CODE,space=0,reloc=2,group=0
 14670                           	file	"main.c"
 14671                           	line	89
 14672                           global __ptext21
 14673                           __ptext21:
 14674  005CEA                     psect	text21
 14675                           	file	"main.c"
 14676                           	line	89
 14677                           	global	__size_of_UART_Initialize
 14678                           	__size_of_UART_Initialize	equ	__end_of_UART_Initialize-_UART_Initialize
 14679  0000                     	
 14680                           _UART_Initialize:
 14681  005CEA                     ;incstack = 0
 14682                           	opt	stack 29
 14683                           	line	90
 14684                           	
 14685                           l2250:
 14686  005CEA                     ;main.c: 90:     };
 14687                           	movlw	low(0)
 14688  005CEA  0E00               	movlb	15	; () banked
 14689  005CEC  010F               	movwf	((3896))&0ffh	;volatile
 14690  005CEE  6F38               	line	91
 14691                           ;main.c: 91:     TXREG1 = c;
 14692                           	movlw	low(0)
 14693  005CF0  0E00               	movwf	((3898))&0ffh	;volatile
 14694  005CF2  6F3A               	line	93
 14695                           	
 14696                           l2252:; BSR set to: 15
 14697  005CF4                     
 14698                           ;main.c: 93: 
 14699                           	bcf	((c:3988)),c,6	;volatile
 14700  005CF4  9C94               	line	94
 14701                           	
 14702                           l2254:; BSR set to: 15
 14703  005CF6                     
 14704                           ;main.c: 94: char read_char(void) {
 14705                           	bsf	((c:3988)),c,7	;volatile
 14706  005CF6  8E94               	line	96
 14707                           	
 14708                           l2256:; BSR set to: 15
 14709  005CF8                     
 14710                           ;main.c: 96:         if (RCSTA1bits.OERR == 1) {
 14711                           	bcf	((c:4012)),c,4	;volatile
 14712  005CF8  98AC               	line	97
 14713                           	
 14714                           l2258:; BSR set to: 15
 14715  005CFA                     
 14716                           ;main.c: 97:             RCSTA1bits.OERR = 0;
 14717                           	bcf	((c:4012)),c,6	;volatile
 14718  005CFA  9CAC               	line	98
 14719                           	
 14720                           l2260:; BSR set to: 15
 14721  005CFC                     
 14722                           ;main.c: 98:             RCSTA1bits.CREN = 0;
 14723                           	bsf	((c:4012)),c,5	;volatile
 14724  005CFC  8AAC               	line	100
 14725                           	
 14726                           l2262:; BSR set to: 15
 14727  005CFE                     
 14728                           ;main.c: 100:         }
 14729                           	bcf	((c:4011)),c,6	;volatile
 14730  005CFE  9CAB               	line	101
 14731                           	
 14732                           l2264:; BSR set to: 15
 14733  005D00                     
 14734                           ;main.c: 101:     }
 14735                           	bsf	((c:4011)),c,4	;volatile
 14736  005D00  88AB               	line	102
 14737                           	
 14738                           l2266:; BSR set to: 15
 14739  005D02                     
 14740                           ;main.c: 102:     return RCREG1;
 14741                           	bsf	((c:4011)),c,7	;volatile
 14742  005D02  8EAB               	line	104
 14743                           	
 14744                           l2268:; BSR set to: 15
 14745  005D04                     
 14746                           ;main.c: 104: 
 14747                           	bcf	((c:4024)),c,3	;volatile
 14748  005D04  96B8               	line	105
 14749                           	
 14750                           l2270:; BSR set to: 15
 14751  005D06                     
 14752                           ;main.c: 105: void read_line(char * s, int max_len) {
 14753                           	bcf	((c:4012)),c,2	;volatile
 14754  005D06  94AC               	line	107
 14755                           ;main.c: 107:     for (;;) {
 14756                           	movlw	low(033h)
 14757  005D08  0E33               	movwf	((c:4015)),c	;volatile
 14758  005D0A  6EAF               	line	108
 14759                           ;main.c: 108:         char c = read_char();
 14760                           	movlw	low(0)
 14761  005D0C  0E00               	movwf	((c:4016)),c	;volatile
 14762  005D0E  6EB0               	line	109
 14763                           	
 14764                           l89:; BSR set to: 15
 14765  005D10                     
 14766                           	return	;funcret
 14767  005D10  0012               	opt stack 0
 14768                           GLOBAL	__end_of_UART_Initialize
 14769                           	__end_of_UART_Initialize:
 14770  005D12                     	signat	_UART_Initialize,89
 14771                           	global	_TIMER1_Initialize
 14772                           
 14773 ;; *************** function _TIMER1_Initialize *****************
 14774 ;; Defined at:
 14775 ;;		line 79 in file "main.c"
 14776 ;; Parameters:    Size  Location     Type
 14777 ;;		None
 14778 ;; Auto vars:     Size  Location     Type
 14779 ;;		None
 14780 ;; Return value:  Size  Location     Type
 14781 ;;                  1    wreg      void 
 14782 ;; Registers used:
 14783 ;;		wreg, status,2
 14784 ;; Tracked objects:
 14785 ;;		On entry : 0/0
 14786 ;;		On exit  : 0/0
 14787 ;;		Unchanged: 0/0
 14788 ;; Data sizes:     COMRAM   BANK0   BANK1   BANK2   BANK3   BANK4   BANK5   BANK6   BANK7   BANK8   BANK9  BANK10  BANK1
       1  BANK12  BANK13  BANK14  BANK15
 14789 ;;      Params:         0       0       0       0       0       0       0       0       0       0       0       0       
       0       0       0       0       0
 14790 ;;      Locals:         0       0       0       0       0       0       0       0       0       0       0       0       
       0       0       0       0       0
 14791 ;;      Temps:          0       0       0       0       0       0       0       0       0       0       0       0       
       0       0       0       0       0
 14792 ;;      Totals:         0       0       0       0       0       0       0       0       0       0       0       0       
       0       0       0       0       0
 14793 ;;Total ram usage:        0 bytes
 14794 ;; Hardware stack levels used:    1
 14795 ;; Hardware stack levels required when called:    1
 14796 ;; This function calls:
 14797 ;;		Nothing
 14798 ;; This function is called by:
 14799 ;;		_main
 14800 ;; This function uses a non-reentrant model
 14801 ;;
 14802                           psect	text22,class=CODE,space=0,reloc=2,group=0
 14803                           	line	79
 14804                           global __ptext22
 14805                           __ptext22:
 14806  005D94                     psect	text22
 14807                           	file	"main.c"
 14808                           	line	79
 14809                           	global	__size_of_TIMER1_Initialize
 14810                           	__size_of_TIMER1_Initialize	equ	__end_of_TIMER1_Initialize-_TIMER1_Initialize
 14811  0000                     	
 14812                           _TIMER1_Initialize:; BSR set to: 15
 14813  005D94                     
 14814                           ;incstack = 0
 14815                           	opt	stack 29
 14816                           	line	80
 14817                           	
 14818                           l2278:
 14819  005D94                     ;main.c: 80:     BAUDCON1bits.BRG16 = 0;
 14820                           	bcf	((c:4045)),c,0	;volatile
 14821  005D94  90CD               	line	81
 14822                           	
 14823                           l2280:
 14824  005D96                     ;main.c: 81:     TXSTA1bits.BRGH = 0;
 14825                           	movlw	((0 & ((1<<2)-1))<<6)|not (((1<<2)-1)<<6)
 14826  005D96  0E3F               	andwf	((c:4045)),c	;volatile
 14827  005D98  16CD               	line	82
 14828                           	
 14829                           l2282:
 14830  005D9A                     ;main.c: 82: 
 14831                           	bsf	((c:4045)),c,1	;volatile
 14832  005D9A  82CD               	line	83
 14833                           ;main.c: 83:     SPBRG1 = 51;
 14834                           	movlw	(03h & ((1<<2)-1))<<4
 14835  005D9C  0E30               	iorwf	((c:4045)),c	;volatile
 14836  005D9E  12CD               	line	84
 14837                           ;main.c: 84:     SPBRGH1 = 0;
 14838                           	movlw	high(0)
 14839  005DA0  0E00               	movwf	((c:4046+1)),c	;volatile
 14840  005DA2  6ECF               	movlw	low(0)
 14841  005DA4  0E00               	movwf	((c:4046)),c	;volatile
 14842  005DA6  6ECE               	line	85
 14843                           	
 14844                           l2284:
 14845  005DA8                     ;main.c: 85: }
 14846                           	bcf	((c:3998)),c,0	;volatile
 14847  005DA8  909E               	line	86
 14848                           	
 14849                           l2286:
 14850  005DAA                     ;main.c: 86: 
 14851                           	bsf	((c:3997)),c,0	;volatile
 14852  005DAA  809D               	line	87
 14853                           	
 14854                           l86:
 14855  005DAC                     	return	;funcret
 14856  005DAC  0012               	opt stack 0
 14857                           GLOBAL	__end_of_TIMER1_Initialize
 14858                           	__end_of_TIMER1_Initialize:
 14859  005DAE                     	signat	_TIMER1_Initialize,89
 14860                           	global	_OSCILLATOR_Initialize
 14861                           
 14862 ;; *************** function _OSCILLATOR_Initialize *****************
 14863 ;; Defined at:
 14864 ;;		line 69 in file "main.c"
 14865 ;; Parameters:    Size  Location     Type
 14866 ;;		None
 14867 ;; Auto vars:     Size  Location     Type
 14868 ;;		None
 14869 ;; Return value:  Size  Location     Type
 14870 ;;                  1    wreg      void 
 14871 ;; Registers used:
 14872 ;;		wreg, status,2
 14873 ;; Tracked objects:
 14874 ;;		On entry : 0/0
 14875 ;;		On exit  : 0/0
 14876 ;;		Unchanged: 0/0
 14877 ;; Data sizes:     COMRAM   BANK0   BANK1   BANK2   BANK3   BANK4   BANK5   BANK6   BANK7   BANK8   BANK9  BANK10  BANK1
       1  BANK12  BANK13  BANK14  BANK15
 14878 ;;      Params:         0       0       0       0       0       0       0       0       0       0       0       0       
       0       0       0       0       0
 14879 ;;      Locals:         0       0       0       0       0       0       0       0       0       0       0       0       
       0       0       0       0       0
 14880 ;;      Temps:          0       0       0       0       0       0       0       0       0       0       0       0       
       0       0       0       0       0
 14881 ;;      Totals:         0       0       0       0       0       0       0       0       0       0       0       0       
       0       0       0       0       0
 14882 ;;Total ram usage:        0 bytes
 14883 ;; Hardware stack levels used:    1
 14884 ;; Hardware stack levels required when called:    1
 14885 ;; This function calls:
 14886 ;;		Nothing
 14887 ;; This function is called by:
 14888 ;;		_main
 14889 ;; This function uses a non-reentrant model
 14890 ;;
 14891                           psect	text23,class=CODE,space=0,reloc=2,group=0
 14892                           	line	69
 14893                           global __ptext23
 14894                           __ptext23:
 14895  005D38                     psect	text23
 14896                           	file	"main.c"
 14897                           	line	69
 14898                           	global	__size_of_OSCILLATOR_Initialize
 14899                           	__size_of_OSCILLATOR_Initialize	equ	__end_of_OSCILLATOR_Initialize-_OSCILLATOR_Initiali
                                 ze
 14900  0000                     	
 14901                           _OSCILLATOR_Initialize:
 14902  005D38                     ;incstack = 0
 14903                           	opt	stack 29
 14904                           	line	71
 14905                           	
 14906                           l2244:
 14907  005D38                     ;main.c: 71: 
 14908                           	movlw	((0 & ((1<<2)-1))<<0)|not (((1<<2)-1)<<0)
 14909  005D38  0EFC               	andwf	((c:4051)),c	;volatile
 14910  005D3A  16D3               	line	72
 14911                           	
 14912                           l2246:
 14913  005D3C                     ;main.c: 72:     TXSTA1bits.SYNC = 0;
 14914                           		
 14915                           	bsf	((c:4051)),c, 4+0	;volatile
 14916  005D3C  88D3               	bsf	((c:4051)),c, 4+1	;volatile
 14917  005D3E  8AD3               	bsf	((c:4051)),c, 4+2	;volatile
 14918  005D40  8CD3               
 14919                           	line	73
 14920                           	
 14921                           l2248:
 14922  005D42                     ;main.c: 73:     TXSTA1bits.TX9 = 0;
 14923                           	bsf	((c:3995)),c,6	;volatile
 14924  005D42  8C9B               	line	74
 14925                           ;main.c: 74:     TXSTA1bits.TXEN = 1;
 14926                           	goto	l80
 14927  005D44  EFA4  F02E         	
 14928                           l81:
 14929  005D48                     	
 14930                           l80:
 14931  005D48                     	btfss	((c:4051)),c,2	;volatile
 14932  005D48  A4D3               	goto	u2141
 14933  005D4A  EFA9  F02E         	goto	u2140
 14934  005D4E  EFAB  F02E         u2141:
 14935  005D52                     	goto	l80
 14936  005D52  EFA4  F02E         u2140:
 14937  005D56                     	goto	l83
 14938  005D56  EFAD  F02E         	
 14939                           l82:
 14940  005D5A                     	line	77
 14941                           	
 14942                           l83:
 14943  005D5A                     	return	;funcret
 14944  005D5A  0012               	opt stack 0
 14945                           GLOBAL	__end_of_OSCILLATOR_Initialize
 14946                           	__end_of_OSCILLATOR_Initialize:
 14947  005D5C                     	signat	_OSCILLATOR_Initialize,89
 14948                           	global	_ISR
 14949                           
 14950 ;; *************** function _ISR *****************
 14951 ;; Defined at:
 14952 ;;		line 174 in file "main.c"
 14953 ;; Parameters:    Size  Location     Type
 14954 ;;		None
 14955 ;; Auto vars:     Size  Location     Type
 14956 ;;		None
 14957 ;; Return value:  Size  Location     Type
 14958 ;;                  1    wreg      void 
 14959 ;; Registers used:
 14960 ;;		wreg, status,2, status,0
 14961 ;; Tracked objects:
 14962 ;;		On entry : 0/0
 14963 ;;		On exit  : 0/0
 14964 ;;		Unchanged: 0/0
 14965 ;; Data sizes:     COMRAM   BANK0   BANK1   BANK2   BANK3   BANK4   BANK5   BANK6   BANK7   BANK8   BANK9  BANK10  BANK1
       1  BANK12  BANK13  BANK14  BANK15
 14966 ;;      Params:         0       0       0       0       0       0       0       0       0       0       0       0       
       0       0       0       0       0
 14967 ;;      Locals:         0       0       0       0       0       0       0       0       0       0       0       0       
       0       0       0       0       0
 14968 ;;      Temps:          1       0       0       0       0       0       0       0       0       0       0       0       
       0       0       0       0       0
 14969 ;;      Totals:         1       0       0       0       0       0       0       0       0       0       0       0       
       0       0       0       0       0
 14970 ;;Total ram usage:        1 bytes
 14971 ;; Hardware stack levels used:    1
 14972 ;; This function calls:
 14973 ;;		Nothing
 14974 ;; This function is called by:
 14975 ;;		Interrupt level 2
 14976 ;; This function uses a non-reentrant model
 14977 ;;
 14978                           psect	intcode,class=CODE,space=0,reloc=2
 14979                           global __pintcode
 14980                           __pintcode:
 14981  000008                     psect	intcode
 14982                           	file	"main.c"
 14983                           	line	174
 14984                           	global	__size_of_ISR
 14985                           	__size_of_ISR	equ	__end_of_ISR-_ISR
 14986  0000                     	
 14987                           _ISR:
 14988  000008                     ;incstack = 0
 14989                           	opt	stack 25
 14990                           	bsf int$flags,1,c ;set compiler interrupt flag (level 2)
 14991  000008  825D               	line	175
 14992                           	
 14993                           i2l2414:
 14994  00000A                     ;main.c: 175:  Beep(146, 144);
 14995                           	btfss	((c:3998)),c,0	;volatile
 14996  00000A  A09E               	goto	i2u230_41
 14997  00000C  EF0A  F000         	goto	i2u230_40
 14998  000010  EF0C  F000         i2u230_41:
 14999  000014                     	goto	i2l2424
 15000  000014  EF25  F000         i2u230_40:
 15001  000018                     	line	176
 15002                           	
 15003                           i2l2416:
 15004  000018                     ;main.c: 176:  sleep(118);
 15005                           	movff	(c:_offset),(c:4046)	;volatile
 15006  000018  C05B  FFCE         	movff	(c:_offset+1),(c:4046+1)	;volatile
 15007  00001C  C05C  FFCF         	line	177
 15008                           	
 15009                           i2l2418:
 15010  000020                     ;main.c: 177:  Beep(493, 179);
 15011                           	movlb	0	; () banked
 15012  000020  0100               	incf	((_cnt))&0ffh
 15013  000022  2B81               	line	178
 15014                           	
 15015                           i2l2420:; BSR set to: 0
 15016  000024                     
 15017                           ;main.c: 178:  sleep(70);
 15018                           	btfsc	((c:3977)),c,0	;volatile
 15019  000024  B089               	goto	i2u231_41
 15020  000026  EF17  F000         	goto	i2u231_40
 15021  00002A  EF1A  F000         i2u231_41:
 15022  00002E                     	movlw	1
 15023  00002E  0E01               	goto	i2u231_46
 15024  000030  EF1B  F000         i2u231_40:
 15025  000034                     	movlw	0
 15026  000034  0E00               i2u231_46:
 15027  000036                     	xorlw	0ffh
 15028  000036  0AFF               	movwf	(??_ISR+0+0)&0ffh,c
 15029  000038  6E01               	movf	((c:3977)),c,w	;volatile
 15030  00003A  5089               	xorwf	((??_ISR+0+0)),c,w
 15031  00003C  1801               	andlw	not ((1<<1)-1)
 15032  00003E  0BFE               	xorwf	((??_ISR+0+0)),c,w
 15033  000040  1801               	movwf	((c:3977)),c	;volatile
 15034  000042  6E89               	line	179
 15035                           	
 15036                           i2l2422:; BSR set to: 0
 15037  000044                     
 15038                           ;main.c: 179:  Beep(184, 122);
 15039                           	bcf	((c:3998)),c,0	;volatile
 15040  000044  909E               	goto	i2l2424
 15041  000046  EF25  F000         	line	180
 15042                           ;main.c: 180:  sleep(129);
 15043                           	
 15044                           i2l133:; BSR set to: 0
 15045  00004A                     
 15046                           	line	181
 15047                           	
 15048                           i2l2424:
 15049  00004A                     ;main.c: 181:  Beep(369, 114);
 15050                           		movlw	140
 15051  00004A  0E8C               	movlb	0	; () banked
 15052  00004C  0100               	xorwf	((_cnt))&0ffh,w
 15053  00004E  1981               	btfss	status,2
 15054  000050  A4D8               	goto	i2u232_41
 15055  000052  EF2D  F000         	goto	i2u232_40
 15056  000056  EF2F  F000         
 15057                           i2u232_41:
 15058  00005A                     	goto	i2l135
 15059  00005A  EF4C  F000         i2u232_40:
 15060  00005E                     	
 15061                           i2l2426:; BSR set to: 0
 15062  00005E                     
 15063                           		decf	((_on))&0ffh,w
 15064  00005E  0580               	btfss	status,2
 15065  000060  A4D8               	goto	i2u233_41
 15066  000062  EF35  F000         	goto	i2u233_40
 15067  000066  EF37  F000         
 15068                           i2u233_41:
 15069  00006A                     	goto	i2l135
 15070  00006A  EF4C  F000         i2u233_40:
 15071  00006E                     	line	182
 15072                           	
 15073                           i2l2428:; BSR set to: 0
 15074  00006E                     
 15075                           ;main.c: 182:  sleep(14);
 15076                           	movlw	low(0)
 15077  00006E  0E00               	movwf	((_cnt))&0ffh
 15078  000070  6F81               	line	183
 15079                           	
 15080                           i2l2430:; BSR set to: 0
 15081  000072                     
 15082                           ;main.c: 183:  Beep(493, 88);
 15083                           	btfsc	((c:3977)),c,1	;volatile
 15084  000072  B289               	goto	i2u234_41
 15085  000074  EF3E  F000         	goto	i2u234_40
 15086  000078  EF41  F000         i2u234_41:
 15087  00007C                     	movlw	1
 15088  00007C  0E01               	goto	i2u234_46
 15089  00007E  EF42  F000         i2u234_40:
 15090  000082                     	movlw	0
 15091  000082  0E00               i2u234_46:
 15092  000084                     	xorlw	0ffh
 15093  000084  0AFF               	movwf	(??_ISR+0+0)&0ffh,c
 15094  000086  6E01               	rlncf	((??_ISR+0+0)),c
 15095  000088  4601               	movf	((c:3977)),c,w	;volatile
 15096  00008A  5089               	xorwf	((??_ISR+0+0)),c,w
 15097  00008C  1801               	andlw	not (((1<<1)-1)<<1)
 15098  00008E  0BFD               	xorwf	((??_ISR+0+0)),c,w
 15099  000090  1801               	movwf	((c:3977)),c	;volatile
 15100  000092  6E89               	goto	i2l135
 15101  000094  EF4C  F000         	line	184
 15102                           ;main.c: 184:  sleep(22);
 15103                           	
 15104                           i2l134:; BSR set to: 0
 15105  000098                     
 15106                           	line	185
 15107                           	
 15108                           i2l135:; BSR set to: 0
 15109  000098                     
 15110                           	bcf int$flags,1,c ;clear compiler interrupt flag (level 2)
 15111  000098  925D               	retfie f
 15112  00009A  0011               	opt stack 0
 15113                           GLOBAL	__end_of_ISR
 15114                           	__end_of_ISR:
 15115  00009C                     	signat	_ISR,89
 15116                           psect	smallconst
 15117                           	db 0	; dummy byte at the end
 15118  00103E  00                 	global	__smallconst
 15119                           	global	__mediumconst
 15120                           	GLOBAL	__activetblptr
 15121                           __activetblptr	EQU	2
 15122  0000                     	psect	intsave_regs,class=BIGRAM,space=1,noexec
 15123                           	PSECT	rparam,class=COMRAM,space=1,noexec
 15124                           	GLOBAL	__Lrparam
 15125                           	FNCONF	rparam,??,?
 15126                           	GLOBAL	___rparam_used
 15127                           	___rparam_used EQU 1
 15128  0000                     	GLOBAL	___param_bank
 15129                           	___param_bank EQU 0
 15130  0000                     GLOBAL	__Lparam, __Hparam
 15131                           GLOBAL	__Lrparam, __Hrparam
 15132                           __Lparam	EQU	__Lrparam
 15133  0000                     __Hparam	EQU	__Hrparam
 15134  0000                            psect   temp,common,ovrld,class=COMRAM,space=1
 15135                           	global	btemp
 15136                           btemp:
 15137  00005D                     	ds	1
 15138  00005D                     	global	int$flags
 15139                           	int$flags	set btemp
 15140  0000                     	global	wtemp8
 15141                           	wtemp8 set btemp+1
 15142  0000                     	global	ttemp5
 15143                           	ttemp5 set btemp+1
 15144  0000                     	global	ttemp6
 15145                           	ttemp6 set btemp+4
 15146  0000                     	global	ttemp7
 15147                           	ttemp7 set btemp+8
 15148  0000                     	end


Data Sizes:
    Strings     61
    Constant    0
    Data        0
    BSS         44
    Persistent  0
    Stack       0

Auto Spaces:
    Space          Size  Autos    Used
    COMRAM           94     82      92
    BANK0           160     24      58
    BANK1           256      0       0
    BANK2           256      0       0
    BANK3           256      0       0
    BANK4           256      0       0
    BANK5           256      0       0
    BANK6           256      0       0
    BANK7           256      0       0
    BANK8           256      0       0
    BANK9           256      0       0
    BANK10          256      0       0
    BANK11          256      0       0
    BANK12          256      0       0
    BANK13          256      0       0
    BANK14          256      0       0
    BANK15           56      0       0

Pointer List with Targets:

    vfpfcnvrt@ap	PTR PTR void  size(2) Largest target is 2
		 -> printf@ap(COMRAM[2]), 

    printf@fmt	PTR const unsigned char  size(2) Largest target is 32
		 -> STR_3(CODE[32]), STR_2(CODE[19]), STR_1(CODE[10]), 

    printf@ap	PTR void [1] size(2) Largest target is 2
		 -> ?_printf(COMRAM[2]), 

    S1291_IO_FILE$buffer	PTR unsigned char  size(2) Largest target is 0

    fputc@fp.buffer	PTR unsigned char  size(2) Largest target is 0

    fputc@fp	PTR struct _IO_FILE size(2) Largest target is 0
		 -> NULL(NULL[0]), 

    atoi@s	PTR const unsigned char  size(2) Largest target is 20
		 -> main@str(BANK0[20]), 

    vfprintf@ap	PTR PTR void  size(2) Largest target is 2
		 -> printf@ap(COMRAM[2]), 

    vfprintf@fp	PTR struct _IO_FILE size(2) Largest target is 0
		 -> NULL(NULL[0]), 

    vfprintf@fmt	PTR const unsigned char  size(2) Largest target is 32
		 -> STR_3(CODE[32]), STR_2(CODE[19]), STR_1(CODE[10]), 

    vfprintf@cfmt	PTR unsigned char  size(2) Largest target is 32
		 -> STR_3(CODE[32]), STR_2(CODE[19]), STR_1(CODE[10]), 

    vfpfcnvrt@fp	PTR struct _IO_FILE size(2) Largest target is 0
		 -> NULL(NULL[0]), 

    vfpfcnvrt@fmt	PTR PTR unsigned char  size(2) Largest target is 2
		 -> vfprintf@cfmt(COMRAM[2]), 

    read_line@s	PTR unsigned char  size(2) Largest target is 20
		 -> main@str(BANK0[20]), 


Critical Paths under _main in COMRAM

    _main->_Beep
    _read_line->_putchar
    _putchar->_fputc
    _printf->_vfprintf
    _vfprintf->_vfpfcnvrt
    _vfpfcnvrt->_fputc
    _fputc->_putch
    _badineri->_Beep
    _Beep->___fltol
    ___fltol->___fladd
    ___flneg->___fldiv
    ___fldiv->___xxtofl
    ___fladd->___flneg
    _atoi->_isspace

Critical Paths under _ISR in COMRAM

    None.

Critical Paths under _main in BANK0

    None.

Critical Paths under _ISR in BANK0

    None.

Critical Paths under _main in BANK1

    None.

Critical Paths under _ISR in BANK1

    None.

Critical Paths under _main in BANK2

    None.

Critical Paths under _ISR in BANK2

    None.

Critical Paths under _main in BANK3

    None.

Critical Paths under _ISR in BANK3

    None.

Critical Paths under _main in BANK4

    None.

Critical Paths under _ISR in BANK4

    None.

Critical Paths under _main in BANK5

    None.

Critical Paths under _ISR in BANK5

    None.

Critical Paths under _main in BANK6

    None.

Critical Paths under _ISR in BANK6

    None.

Critical Paths under _main in BANK7

    None.

Critical Paths under _ISR in BANK7

    None.

Critical Paths under _main in BANK8

    None.

Critical Paths under _ISR in BANK8

    None.

Critical Paths under _main in BANK9

    None.

Critical Paths under _ISR in BANK9

    None.

Critical Paths under _main in BANK10

    None.

Critical Paths under _ISR in BANK10

    None.

Critical Paths under _main in BANK11

    None.

Critical Paths under _ISR in BANK11

    None.

Critical Paths under _main in BANK12

    None.

Critical Paths under _ISR in BANK12

    None.

Critical Paths under _main in BANK13

    None.

Critical Paths under _ISR in BANK13

    None.

Critical Paths under _main in BANK14

    None.

Critical Paths under _ISR in BANK14

    None.

Critical Paths under _main in BANK15

    None.

Critical Paths under _ISR in BANK15

    None.

Call Graph Tables:

 ---------------------------------------------------------------------------------
 (Depth) Function   	        Calls       Base Space   Used Autos Params    Refs
 ---------------------------------------------------------------------------------
 (0) _main                                                25    25      0  216405
                                             81 COMRAM     1     1      0
                                              0 BANK0     24    24      0
                               _Beep
              _OSCILLATOR_Initialize
                  _TIMER1_Initialize
                    _UART_Initialize
                               _atoi
                           _badineri
                             _printf
                          _read_line
                              _sleep
 ---------------------------------------------------------------------------------
 (1) _read_line                                            8     4      4    1892
                                             13 COMRAM     8     4      4
                            _putchar
                          _read_char
 ---------------------------------------------------------------------------------
 (2) _read_char                                            0     0      0       0
 ---------------------------------------------------------------------------------
 (2) _putchar                                              2     0      2    1384
                                             11 COMRAM     2     0      2
                              _fputc
 ---------------------------------------------------------------------------------
 (1) _printf                                               6     4      2    1962
                                             25 COMRAM     6     4      2
                           _vfprintf
 ---------------------------------------------------------------------------------
 (2) _vfprintf                                             8     2      6    1682
                                             17 COMRAM     8     2      6
                          _vfpfcnvrt
 ---------------------------------------------------------------------------------
 (3) _vfpfcnvrt                                           40    34      6    1332
                                             11 COMRAM     6     0      6
                              _fputc
 ---------------------------------------------------------------------------------
 (3) _fputc                                                9     5      4     906
                                              2 COMRAM     9     5      4
                              _putch
 ---------------------------------------------------------------------------------
 (4) _putch                                                1     1      0      22
                                              1 COMRAM     1     1      0
 ---------------------------------------------------------------------------------
 (1) _badineri                                             0     0      0  105676
                               _Beep
                              _sleep
 ---------------------------------------------------------------------------------
 (1) _sleep                                                5     3      2   32574
                                              1 COMRAM     5     3      2
 ---------------------------------------------------------------------------------
 (2) _Beep                                                 7     3      4   73102
                                             74 COMRAM     7     3      4
                            ___fladd
                            ___fldiv
                            ___flneg
                            ___fltol
                           ___xxtofl
 ---------------------------------------------------------------------------------
 (3) ___xxtofl                                            14    10      4     474
                                              1 COMRAM    14    10      4
 ---------------------------------------------------------------------------------
 (3) ___fltol                                             10     6      4     381
                                             64 COMRAM    10     6      4
                            ___fladd (ARG)
                            ___fldiv (ARG)
                            ___flneg (ARG)
                           ___xxtofl (ARG)
 ---------------------------------------------------------------------------------
 (3) ___flneg                                              4     0      4     121
                                             40 COMRAM     4     0      4
                            ___fldiv (ARG)
                           ___xxtofl (ARG)
 ---------------------------------------------------------------------------------
 (3) ___fldiv                                             25    17      8    1551
                                             15 COMRAM    25    17      8
                           ___xxtofl (ARG)
 ---------------------------------------------------------------------------------
 (3) ___fladd                                             20    12      8    2388
                                             44 COMRAM    20    12      8
                            ___fldiv (ARG)
                            ___flneg (ARG)
                           ___xxtofl (ARG)
 ---------------------------------------------------------------------------------
 (1) _atoi                                                15    13      2    1076
                                              8 COMRAM    15    13      2
                             ___wmul
                            _isdigit
                            _isspace
 ---------------------------------------------------------------------------------
 (2) _isspace                                              7     5      2     207
                                              1 COMRAM     7     5      2
 ---------------------------------------------------------------------------------
 (2) _isdigit                                              6     4      2     161
                                              1 COMRAM     6     4      2
 ---------------------------------------------------------------------------------
 (2) ___wmul                                               6     2      4     311
                                              1 COMRAM     6     2      4
 ---------------------------------------------------------------------------------
 (1) _UART_Initialize                                      0     0      0       0
 ---------------------------------------------------------------------------------
 (1) _TIMER1_Initialize                                    0     0      0       0
 ---------------------------------------------------------------------------------
 (1) _OSCILLATOR_Initialize                                0     0      0       0
 ---------------------------------------------------------------------------------
 Estimated maximum stack depth 4
 ---------------------------------------------------------------------------------
 (Depth) Function   	        Calls       Base Space   Used Autos Params    Refs
 ---------------------------------------------------------------------------------
 (6) _ISR                                                  1     1      0       0
                                              0 COMRAM     1     1      0
 ---------------------------------------------------------------------------------
 Estimated maximum stack depth 6
 ---------------------------------------------------------------------------------

 Call Graph Graphs:

 _main (ROOT)
   _Beep
     ___fladd
       ___fldiv (ARG)
         ___xxtofl (ARG)
       ___flneg (ARG)
         ___fldiv (ARG)
           ___xxtofl (ARG)
         ___xxtofl (ARG)
       ___xxtofl (ARG)
     ___fldiv
       ___xxtofl (ARG)
     ___flneg
       ___fldiv (ARG)
         ___xxtofl (ARG)
       ___xxtofl (ARG)
     ___fltol
       ___fladd (ARG)
         ___fldiv (ARG)
           ___xxtofl (ARG)
         ___flneg (ARG)
           ___fldiv (ARG)
             ___xxtofl (ARG)
           ___xxtofl (ARG)
         ___xxtofl (ARG)
       ___fldiv (ARG)
         ___xxtofl (ARG)
       ___flneg (ARG)
         ___fldiv (ARG)
           ___xxtofl (ARG)
         ___xxtofl (ARG)
       ___xxtofl (ARG)
     ___xxtofl
   _OSCILLATOR_Initialize
   _TIMER1_Initialize
   _UART_Initialize
   _atoi
     ___wmul
     _isdigit
     _isspace
   _badineri
     _Beep
       ___fladd
         ___fldiv (ARG)
           ___xxtofl (ARG)
         ___flneg (ARG)
           ___fldiv (ARG)
             ___xxtofl (ARG)
           ___xxtofl (ARG)
         ___xxtofl (ARG)
       ___fldiv
         ___xxtofl (ARG)
       ___flneg
         ___fldiv (ARG)
           ___xxtofl (ARG)
         ___xxtofl (ARG)
       ___fltol
         ___fladd (ARG)
           ___fldiv (ARG)
             ___xxtofl (ARG)
           ___flneg (ARG)
             ___fldiv (ARG)
               ___xxtofl (ARG)
             ___xxtofl (ARG)
           ___xxtofl (ARG)
         ___fldiv (ARG)
           ___xxtofl (ARG)
         ___flneg (ARG)
           ___fldiv (ARG)
             ___xxtofl (ARG)
           ___xxtofl (ARG)
         ___xxtofl (ARG)
       ___xxtofl
     _sleep
   _printf
     _vfprintf
       _vfpfcnvrt
         _fputc
           _putch
   _read_line
     _putchar
       _fputc
         _putch
     _read_char
   _sleep

 _ISR (ROOT)

 Address spaces:
Name               Size   Autos  Total    Cost      Usage
BIGRAM             F37      0       0      37        0.0%
EEDATA             400      0       0       0        0.0%
BITBANK14          100      0       0      33        0.0%
BANK14             100      0       0      34        0.0%
BITBANK13          100      0       0      31        0.0%
BANK13             100      0       0      32        0.0%
BITBANK12          100      0       0      29        0.0%
BANK12             100      0       0      30        0.0%
BITBANK11          100      0       0      27        0.0%
BANK11             100      0       0      28        0.0%
BITBANK10          100      0       0      25        0.0%
BANK10             100      0       0      26        0.0%
BITBANK9           100      0       0      23        0.0%
BANK9              100      0       0      24        0.0%
BITBANK8           100      0       0      21        0.0%
BANK8              100      0       0      22        0.0%
BITBANK7           100      0       0      19        0.0%
BANK7              100      0       0      20        0.0%
BITBANK6           100      0       0      17        0.0%
BANK6              100      0       0      18        0.0%
BITBANK5           100      0       0      15        0.0%
BANK5              100      0       0      16        0.0%
BITBANK4           100      0       0      13        0.0%
BANK4              100      0       0      14        0.0%
BITBANK3           100      0       0      10        0.0%
BANK3              100      0       0      11        0.0%
BITBANK2           100      0       0       8        0.0%
BANK2              100      0       0       9        0.0%
BITBANK1           100      0       0       6        0.0%
BANK1              100      0       0       7        0.0%
BITBANK0            A0      0       0       4        0.0%
BANK0               A0     18      3A       5       36.3%
BITCOMRAM           5E      0       0       0        0.0%
COMRAM              5E     52      5C       1       97.9%
BITBANK15           38      0       0      35        0.0%
BANK15              38      0       0      36        0.0%
BITSFR_1             0      0       0     200        0.0%
SFR_1                0      0       0     200        0.0%
BITSFR               0      0       0     200        0.0%
SFR                  0      0       0     200        0.0%
STACK                0      0       0       2        0.0%
NULL                 0      0       0       0        0.0%
ABS                  0      0      96      12        0.0%
DATA                 0      0      96       3        0.0%
CODE                 0      0       0       0        0.0%


Microchip Technology PIC18 Macro Assembler V2.00 build -1524193055 
Symbol Table                                                                                   Tue Oct 23 01:02:09 2018

                  ___fldiv@aexp 0028                    ___fldiv@bexp 0027                      __CFG_IESO$ 000000  
                  ___fldiv@sign 0020                              l80 5D48                              l81 5D48  
                            l73 58D0                              l82 5D5A                              l74 591A  
                            l83 5D5A                              l75 5932                              l92 5D62  
                            l76 5936                              l93 5D62                              l77 5936  
                            l86 5DAC                              l94 5D74                              l95 5D78  
                            l89 5D10                              l98 5C74                              l99 5C5C  
                   __CFG_FCMEN$ 000000                              _on 0080             ___wmul@multiplicand 0004  
                           l100 5C74                             l101 5C86                             l102 5C8C  
                           l111 5672                             l120 580E                             l112 56B6  
                           l121 5838                             l113 5712                             l105 5600  
                           l122 583A                             l114 570E                             l106 564A  
                           l115 570A                             l107 571A                             l116 571A  
                           l108 5716                             l125 5C00                             l109 56BA  
                           l126 5BEC                             l119 5822                             l127 5C1A  
                           l128 5C1A                             l138 4718                             l170 59D6  
                           l171 5A32                             l180 5CE8                             l174 5B20  
                           l175 5AF8                             l176 5B3C                             l169 59F4  
                           l177 5B44                             l700 47AA                             l701 47C4  
                           l453 5BCA                             l710 48F2                             l702 4802  
                           l454 5BDE                             l711 490C                             l703 47F8  
                           l720 49C0                             l712 4914                             l704 4816  
                           l480 554E                             l721 49D4                             l713 4928  
                           l705 487E                             l481 5562                             l722 4B48  
                           l730 4B10                             l714 494A                             l706 483E  
                           l482 55BA                             l731 4B18                             l723 4A8A  
                           l715 49E8                             l707 48EE                             l483 558E  
                           l740 4BFC                             l732 4B2E                             l724 4A86  
                           l716 4980                             l708 494A                             l484 55A2  
                           l476 54D0                             l741 4C54                             l733 4B44  
                           l725 4A9A                             l717 4C9C                             l709 4934  
                           l485 5592                             l477 55F2                             l901 5A66  
                           l734 4B92                             l726 4AD8                             l718 49E4  
                           l486 55B6                             l478 5566                             l743 4C28  
                           l735 4B78                             l727 4B32                             l719 49B8  
                           l487 55DE                             l479 554A                             l903 5A5C  
                           l744 4C50                             l736 4B92                             l728 4ADC  
                           l760 4D82                             l840 5366                             l904 5AD8  
                           l745 4C68                             l737 4B8E                             l729 4AFA  
                           l761 4DCC                             l753 4CBE                             l841 53A8  
                           l905 5AD4                             l746 4C6E                             l738 4C04  
                           l770 4F0C                             l762 50BC                             l754 4CFC  
                           l850 5440                             l842 53C4                             l747 4C88  
                           l739 4C00                             l771 4F3E                             l763 4E04  
                           l755 4CF2                             l851 548C                             l843 53AC  
                           l835 531C                             l907 5ABE                             l923 5CBE  
                           l780 500E                             l772 4F10                             l764 4EDC  
                           l756 4D10                             l844 53F6                             l836 5330  
                           l908 5AE2                             l861 513E                             l781 5046  
                           l773 4F2A                             l765 4E64                             l757 4D30  
                           l845 540A                             l837 535E                             l870 51C0  
                           l782 5080                             l774 4F50                             l766 4EA6  
                           l758 4D6E                             l846 53FA                             l838 54A0  
                           l871 5212                             l863 5160                             l783 5098  
                           l775 4FB2                             l767 4E98                             l759 4D64  
                           l839 5376                             l872 51C4                             l696 473A  
                           l784 509E                             l776 4F98                             l768 4EDA  
                           l848 542C                             l928 5D92                             l881 52C4  
                           l865 5134                             l697 4778                             l777 4FB2  
                           l769 4EF0                             l849 542C                             l882 52C4  
                           l874 5252                             l866 5176                             l858 50DA  
                           l698 476E                             l778 4FAE                             l867 518E  
                           l859 50D2                             l699 478C                             l779 5012  
                           l892 5B94                             l876 5274                             l868 517A  
                           l885 5C56                             l893 5B9E                             l877 528A  
                           l869 5186                             l879 52B8                     __CFG_WDTEN$ 000000  
                           _ISR 0008                             _cnt 0081                             wreg 000FE8  
                    _TXSTA1bits 000FAC                            ?_ISR 0001                    __CFG_PLLCFG$ 000000  
                  ___fltol@exp1 004A                            l2000 4DDC                            l2010 4E3C  
                          l2002 4DEC                            l2020 4E88                            l2012 4E4C  
                          l2004 4E00                            l2100 54D0                            l2030 4EDA  
                          l2022 4E96                            l2014 4E5C                            l2006 4E04  
                          l2110 551E                            l2102 54FA                            l2040 4F28  
                          l2032 4EF0                            l2024 4EA6                            l2016 4E64  
                          l2008 4E2C                            l2112 5532                            l2120 5566  
                          l2104 54FC                            l2200 5BFC                            l2050 4F90  
                          l2034 4F06                            l2042 4F3E                            l2026 4EC4  
                          l2018 4E74                            l2122 5576                            l2130 55BA  
                          l2114 5546                            l2106 550C                            l2210 5D7A  
                          l2202 5C58                            l2060 5006                            l2052 4FA6  
                          l2044 4F50                            l2036 4F10                            l2028 4EC6  
                          l2132 55CA                            l2124 558A                            l2116 554E  
                          l2108 5510                            l2140 52D8                            l2220 5B20  
                          l2212 5D92                            l2204 5C6A                            l2300 5642  
                          l2222 5CC0                            l2230 5B4A                            l2070 5080  
                          l2054 4FC2                            l2062 5012                            l2046 4F54  
                          l2038 4F1A                            l2134 55DE                            l2126 5592  
                          l2118 5558                            l2150 535E                            l2142 52E6  
                          l2214 5AE4                            l2206 5C86                            l2310 568C  
                          l2302 5646                            l2224 5CDC                            l2240 5C1C  
                          l2232 5B5E                            l2080 50A4                            l2072 5084  
                          l2064 502C                            l2056 4FCE                            l2048 4F62  
                          l2136 55F2                            l2128 55A2                            l2160 53BA  
                          l2152 5366                            l2144 5330                            l2216 5AEC  
                          l2208 5C8C                            l2320 56F2                            l2312 56AC  
                          l2304 564A                            l2400 58B0                            l2250 5CEA  
                          l2226 5CE8                            l2242 5C56                            l2234 5B8C  
                          l2330 50DE                            l2082 50A8                            l2074 5092  
                          l2066 5046                            l2058 4FDC                            l2090 5BCA  
                          l2170 5440                            l2162 53FA                            l2154 5376  
                          l2146 5346                            l2138 52C8                            l2218 5AF8  
                          l2322 5702                            l2314 56BA                            l2306 565C  
                          l2410 5902                            l2402 58BC                            l2244 5D38  
                          l2260 5CFC                            l2252 5CF4                            l2236 5B94  
                          l2228 5B46                            l2340 5160                            l2332 50F8  
                          l2324 50BE                            l2084 50BC                            l2076 5098  
                          l2068 5060                            l2092 5BDE                            l2180 548C  
                          l2172 5444                            l2164 540A                            l2156 53AC  
                          l2148 535A                            l1700 5A46                            l2316 56CA  
                          l2308 5672                            l2412 591A                            l2404 58D0  
                          l2246 5D3C                            l2270 5D06                            l2262 5CFE  
                          l2254 5CF6                            l2238 5B9E                            l2350 520A  
                          l2342 517A                            l2334 512C                            l2326 50D2  
                          l2078 509E                            l2086 5BA0                            l2094 54A2  
                          l2182 54A0                            l2174 5468                            l2166 5418  
                          l2158 53AE                            l2190 5802                            l1710 5AD8  
                          l1702 5A5C                            l2318 56E8                            l2406 58DC  
                          l2248 5D42                            l2280 5D96                            l2264 5D00  
                          l2256 5CF8                            l2360 529C                            l2352 5212  
                          l2344 5186                            l2336 5134                            l2328 50DA  
                          l1800 484A                            l2088 5BB6                            l2096 54B8  
                          l2176 5478                            l2168 543A                            l2192 580E  
                          l2184 571C                            l1712 5AE2                            l1704 5A66  
                          l1720 597C                            l2272 5C8E                            l2408 58F0  
                          l2282 5D9A                            l2266 5D02                            l2258 5CFA  
                          l2354 5252                            l2346 518E                            l2338 513E  
                          l1810 485E                            l1802 484E                            l2098 54CC  
                          l2178 5486                            l2194 581E                            l2186 57F8  
                          l1706 5A84                            l1730 59D2                            l1722 5980  
                          l1714 593A                            l2274 5C96                            l2290 55F4  
                          l2370 584A                            l2284 5DA8                            l2268 5D04  
                          l2356 5274                            l2348 51C4                            l2452 51AA  
                          l1900 4B18                            l1820 4872                            l1812 4862  
                          l1804 4852                            l2188 5800                            l2196 5BE0  
                          l1708 5ABE                            l1740 5A18                            l1724 59A4  
                          l1732 59D6                            l1716 595E                            l2276 5CBE  
                          l2292 5600                            l2380 5862                            l2372 584E  
                          l2286 5DAA                            l2278 5D94                            l2358 528A  
                          l1910 4B5A                            l1902 4B28                            l1830 48D6  
                          l1822 4876                            l1814 4866                            l1806 4856  
                          l1750 4734                            l2198 5BEC                            l1742 5A26  
                          l1734 59E4                            l1726 59B2                            l1718 596C  
                          l2294 5606                            l2390 586E                            l2382 5866  
                          l2374 585A                            l2366 583C                            l1920 4BBC  
                          l1912 4B70                            l1904 4B32                            l1840 4922  
                          l1832 48E6                            l1816 486A                            l1808 485A  
                          l1824 487E                            l1760 4770                            l1752 473A  
                          l2288 1040                            l1744 5A32                            l1736 59F0  
                          l1728 59C6                            l2296 5618                            l2392 5870  
                          l2384 5868                            l2376 585E                            l2368 5846  
                          l1930 4C48                            l1922 4BF6                            l1914 4B86  
                          l1906 4B48                            l1850 497C                            l1842 4928  
                          l1834 4900                            l1826 4882                            l1818 486E  
                          l1770 47AA                            l1754 474A                            l1762 4778  
                          l1746 471A                            l1738 59F4                            l2298 562E  
                          l2394 5884                            l2386 586A                            l2378 5860  
                          l1940 4C74                            l1932 4C54                            l1916 4BA2  
                          l1924 4C04                            l1908 4B4C                            l1860 49B8  
                          l1852 4980                            l1844 4932                            l1836 490C  
                          l1828 48BA                            l1780 47E4                            l1772 47B0  
                          l1764 478C                            l1756 475A                            l1748 4726  
                          l2396 588A                            l2388 586C                            l1942 4C82  
                          l1934 4C62                            l1926 4C14                            l1918 4BAE  
                          l1862 49C0                            l1854 4990                            l1846 4958  
                          l1870 49E8                            l1838 4914                            l1790 4828  
                          l1782 47F8                            l1774 47BE                            l1766 4792  
                          l1758 476E                            l1950 4CAA                            l1694 5D5E  
                          l2398 588E                            l1944 4C88                            l1936 4C68  
                          l1928 4C28                            l1872 4A0E                            l1880 4A8A  
                          l1864 49CE                            l1856 499E                            l1848 4968  
                          l1792 4836                            l1784 47FA                            l1776 47C4  
                          l1768 47A4                            l1960 4CF2                            l1952 4CB8  
                          l1696 5D74                            l1946 4C9C                            l1938 4C6E  
                          l1890 4AE6                            l1882 4AB0                            l1874 4A64  
                          l1866 49D4                            l1858 49AC                            l1794 483E  
                          l1778 47D4                            l1786 4802                            l1970 4D1C  
                          l1962 4CF4                            l1954 4CBE                            l1698 5A34  
                          l1892 4AF4                            l1884 4AC0                            l1876 4A66  
                          l1868 49DE                            l1796 4842                            l1788 4816  
                          l1980 4D64                            l1972 4D2A                            l1956 4CCE  
                          l1964 4CFC                            l1948 4C9E                            l1894 4AFA  
                          l1886 4AD4                            l1878 4A76                            l1798 4846  
                          l1990 4DA8                            l1982 4D66                            l1974 4D30  
                          l1966 4D10                            l1958 4CDE                            l1896 4B08  
                          l1888 4ADC                            l1992 4DB0                            l1976 4D40  
                          l1984 4D6E                            l1968 4D16                            l1898 4B10  
                          l1994 4DB4                            l1986 4D82                            l1978 4D50  
                          l1996 4DC8                            l1988 4D98                            l1998 4DCC  
                          STR_1 1034                            STR_2 1021                            STR_3 1001  
                          u2000 5418                            u1200 5A58                            u2001 5414  
                          u1201 5A54                            u2010 5428                            u1210 5A84  
                          u2011 5424                            u1211 5A80                            u2100 5B5E  
                          u1300 47D4                            u2020 543A                            u1220 5ABA  
                          u2101 5B5A                            u1301 47D0                            u2021 5436  
                          u1221 5AB6                            u2110 5B8C                            u1310 47E4  
                          u2030 5478                            u1230 595E                            u2111 5B88  
                          u1311 47E0                            u2031 5474                            u1231 595A  
                          u2120 5C4C                            u1400 4958                            u1320 4828  
                          u2040 5486                            u1240 59A4                            u2200 56E8  
                          u2121 5C46                            u1401 4954                            u1321 4824  
                          u2041 5482                            u1241 59A0                            u2201 56E4  
                          u2130 5C4E                            u2210 50F8                            u1410 4968  
                          u1330 4836                            u1250 4734                            u2050 5838  
                          u2211 50F4                            u1411 4964                            u1331 4832  
                          u1251 4730                            u2051 5834                            u2140 5D56  
                          u2220 512C                            u1500 4B08                            u1420 499E  
                          u1340 48BA                            u1260 474A                            u2060 5C16  
                          u1180 5D70                            u2141 5D52                            u2221 5128  
                          u1501 4B04                            u1421 499A                            u1341 48B6  
                          u1261 4746                            u2061 5C12                            u1181 5D6C  
                          u2230 5172                            u1510 4B28                            u1430 49AC  
                          u1350 48D2                            u1270 475A                            u1190 5A46  
                          u2070 5C6A                            u2150 5618                            u2231 516E  
                          u1511 4B24                            u1431 49A8                            u1351 48CC  
                          u1271 4756                            u1191 5A42                            u2071 5C66  
                          u2151 5614                            u2240 5248                            u1600 4C24  
                          u1520 4B40                            u1440 49CE                            u1360 48D4  
                          u1280 47A4                            u2080 5C82                            u2160 565C  
                          u2241 5242                            u1601 4C20                            u1521 4B3C  
                          u1441 49CA                            u1281 47A0                            u2081 5C7E  
                          u2161 5658                            u2250 524A                            u1610 4C48  
                          u1530 4B5A                            u1450 4A0E                            u1370 4900  
                          u1290 47BE                            u2090 5B3C                            u2170 566E  
                          u1611 4C44                            u1531 4B56                            u1451 4A0A  
                          u1371 48FC                            u1291 47BA                            u2091 5B38  
                          u2171 566A                            u2260 5286                            u1620 4C62  
                          u1540 4B70                            u1460 4A76                            u1380 4922  
                          u1700 4D98                            u2180 568C                            u2261 5282  
                          u1621 4C5E                            u1541 4B6C                            u1461 4A72  
                          u1381 491E                            u1701 4D94                            u2181 5688  
                          u2270 529C                            u1630 4C82                            u1550 4B86  
                          u1470 4AB0                            u1390 4946                            u1710 4DDC  
                          u2190 56CA                            u2271 5298                            u1631 4C7E  
                          u1551 4B82                            u1471 4AAC                            u1391 4942  
                          u1711 4DD8                            u2191 56C6                            u1560 4BA2  
                          u1480 4AC0                            u1800 4F90                            u1720 4E74  
                          u1640 4CB8                            u2280 589E                            u1561 4B9E  
                          u1481 4ABC                            u1801 4F8C                            u1721 4E70  
                          u1641 4CB4                            u2281 5898                            u1570 4BBC  
                          u1490 4AF4                            u1810 4FA6                            u1730 4E96  
                          u1650 4CCE                            u2290 5902                            u1571 4BB8  
                          u1491 4AF0                            u1811 4FA2                            u1731 4E92  
                          u1651 4CCA                            u2291 58FE                            u1580 4BF6  
                          u1820 4FC2                            u1740 4EC4                            u1660 4CDE  
                          u1900 551E                            u1581 4BF2                            u1821 4FBE  
                          u1741 4EC0                            u1661 4CDA                            u1901 551A  
                          u2357 5BF2                            u1590 4C14                            u1830 4FDC  
                          u1750 4EEC                            u1670 4D2A                            u1910 5532  
                          u2286 58A0                            u1591 4C10                            u1831 4FD8  
                          u1751 4EE8                            u1671 4D26                            u1911 552E  
                          u2367 5814                            u1840 502C                            u1760 4F06  
                          u1680 4D40                            u1920 5576                            u1841 5028  
                          u1761 4F02                            u1681 4D3C                            u1921 5572  
                          u1850 5060                            u1770 4F28                            u1690 4D50  
                          u1930 55B2                            u1851 505C                            u1771 4F24  
                          u1691 4D4C                            u1931 55AE                            u1860 5092  
                          u1780 4F4C                            u1940 55CA                            u1861 508E  
                          u1781 4F48                            u1941 55C6                            u1790 4F62  
                          u1870 5BB6                            u1950 52D8                            u1791 4F5E  
                          u1871 5BB2                            u1951 52D4                            u1880 54B8  
                          u1960 52E6                            u1881 54B4                            u1961 52E2  
                          u1890 54F0                            u1970 5346                            u1971 5342  
                          u1980 53A4                            u1981 53A0                            u1990 53F2  
                          u1895 54E6                            u1991 53EE                            _TMR1 000FCE  
                          _Beep 571C                    __CFG_PWRTEN$ 000000                            _dbuf 0060  
                          _atoi 50BE                            _main 583C                            _prec 0057  
                          _nout 0053                            fsr1h 000FE2                            fsr2h 000FDA  
                          indf2 000FDF                            fsr1l 000FE1                            fsr2l 000FD9  
                          btemp 005D                   __CFG_BORV$190 000000                            prodh 000FF4  
                          prodl 000FF3                            start 009C                 ___fldiv@new_exp 0021  
                  ___param_bank 000000                           ??_ISR 0001                ?_UART_Initialize 0001  
                         ?_Beep 004B                    _BAUDCON1bits 000FB8  __size_of_OSCILLATOR_Initialize 0024  
 __end_of_OSCILLATOR_Initialize 5D5C                   ___fltol@sign1 0049                           ?_atoi 0009  
               __end_of___fladd 4C9E                           ?_main 0001                 __end_of___fldiv 50BE  
               __end_of___flneg 5BE0                           Beep@i 0050                 __end_of___fltol 55F4  
                         i2l133 004A                           i2l134 0098                           i2l135 0098  
                  vfpfcnvrt@fmt 000E                           _flags 0059                           _fputc 5A34  
               __end_of_isdigit 5C58                           _sleep 5BE0                           atoi@n 0016  
                         atoi@s 0009                           _width 0055                           _putch 5D5C  
                         main@f 0096                 __end_of_isspace 5BA0                           tablat 000FF5  
                         ttemp5 005E                           ttemp6 0061                           ttemp7 0065  
               __end_of_putchar 5D94                           status 000FD8                           wtemp8 005E  
                  __end_of_Beep 583C      __size_of_TIMER1_Initialize 001A                 __initialization 5D12  
                  __end_of_atoi 52C6                    __end_of_main 593A                          ??_Beep 004F  
                        ??_atoi 000B                          ??_main 0052                   __activetblptr 000002  
                __CFG_PRICLKEN$ 000001                          ?_fputc 0003                          ?_sleep 0002  
                        _ANSELA 000F38                          ?_putch 0001                          _ANSELC 000F3A  
                        i2l2420 0024                          i2l2430 0072                          i2l2422 0044  
                        i2l2414 000A                          i2l2416 0018                          i2l2424 004A  
                        i2l2426 005E                          i2l2418 0020                          i2l2428 006E  
              __end_of_badineri 471A                          _RCREG1 000FAE                          _SPBRG1 000FAF  
                        _TXREG1 000FAD                __end_of___xxtofl 54A2                    vfprintf@cfmt 0018  
                     ??___fladd 0035                          ___wmul 5CC0                       ??___fldiv 0018  
                     ??___flneg 002D                       ??___fltol 0045                          _offset 005B  
                        clear_0 5D18                          clear_1 5D24                          _printf 5C8E  
                        main@ms 0098                          fputc@c 0003                       ??_isdigit 0004  
                  __mediumconst 0000                       ??_isspace 0004                          sleep@i 0005  
                        tblptrh 000FF7                          tblptrl 000FF6                          tblptru 000FF8  
                        putch@c 0002                __end_of_vfprintf 5B46                       ??_putchar 000E  
                  ___xxtofl@arg 000C                    ___xxtofl@exp 000B                    ___xxtofl@val 0002  
                    __accesstop 0060         __end_of__initialization 5D2A                      ___flneg@f1 0029  
                 ___rparam_used 000001                      ___fltol@f1 0041                    Beep@duration 004D  
                __pcstackCOMRAM 0001                   __end_of_fputc 5AE4                   __end_of_sleep 5C1C  
                 __end_of_putch 5D7A                         ??_fputc 0007                         ??_sleep 0004  
                       ??_putch 0002                      __pbssBANK0 0060              __size_of_read_char 0036  
            __size_of_read_line 0128                         ?___wmul 0002                         ?_printf 001A  
                     ?_badineri 0001                       ?___xxtofl 0002              __size_of_vfpfcnvrt 00FA  
                       _SPBRGH1 000FB0                         __Hparam 0000                         __Lparam 0000  
                       ___fladd 471A                         ___fldiv 4C9E                         ___flneg 5BA0  
                       ___fltol 54A2                 __size_of___wmul 002A                       ?_vfprintf 0012  
                  __psmallconst 1000                         __pcinit 5D12                         __ramtop 1000  
                       __ptext0 583C                         __ptext1 55F4                         __ptext2 5C58  
                       __ptext3 5D7A                         __ptext4 5C8E                         __ptext5 5AE4  
                       __ptext6 593A                         __ptext7 5A34                         __ptext8 5D5C  
                       __ptext9 1040                 __size_of_printf 0032                      ??_badineri 0052  
                  __size_of_ISR 0094                       _T1CONbits 000FCD           _OSCILLATOR_Initialize 5D38  
                       _isdigit 5C1C                      ??___xxtofl 0006               __end_of_read_char 5C8E  
             __end_of_read_line 571C        __size_of_UART_Initialize 0028                         _isspace 5B46  
                       atoi@neg 000F                         _putchar 5D7A                         main@str 0082  
          end_of_initialization 5D2A                         fputc@fp 0005                   __Lmediumconst 0000  
                       sleep@ms 0002               __end_of_vfpfcnvrt 5A34                         postdec2 000FDD  
                       postinc0 000FEE                         postinc1 000FE6                         postinc2 000FDE  
                    ??_vfprintf 0018                     ___fladd@grs 0040                   ___xxtofl@sign 000A  
                     _TRISAbits 000F92                       _TRISCbits 000F94                     ___fldiv@grs 0023  
                   ___fldiv@rem 001C                   Beep@frequency 004B                     vfpfcnvrt@ap 0010  
                   vfpfcnvrt@fp 000C                  __end_of___wmul 5CEA          ?_OSCILLATOR_Initialize 0001  
                __end_of_printf 5CC0             start_initialization 5D12                     __end_of_ISR 009C  
             ??_UART_Initialize 0002                     vfprintf@fmt 0014                        ??___wmul 0006  
              read_line@max_len 0010                        ??_printf 001C                      read_line@c 0015  
                    read_line@i 0013                      read_line@s 000E                       ___fladd@a 0031  
                     ___fladd@b 002D                       ___fldiv@a 0014                       ___fldiv@b 0010  
                   __pbssCOMRAM 0053               __size_of_badineri 36DA                   __pcstackBANK0 0082  
             __size_of___xxtofl 01DC                       _atoi$1270 0015                       _atoi$1271 0013  
                     _atoi$1269 0011                       __pintcode 0008                        ?___fladd 002D  
                      ?___fldiv 0010                        ?___flneg 0029                        ?___fltol 0041  
             __size_of_vfprintf 0062                     __smallconst 1000                        ?_isdigit 0002  
                      ?_isspace 0002                        ?_putchar 000C                       _read_char 5C58  
                __size_of_fputc 00B0                       _read_line 55F4                  __size_of_sleep 003C  
                __size_of_putch 001E                  ___wmul@product 0006                        _LATAbits 000F89  
                      _PIE1bits 000F9D                        i2u230_40 0018                        i2u230_41 0014  
                      i2u231_40 0034                        i2u231_41 002E                        i2u231_46 0036  
                      i2u232_40 005E                        i2u232_41 005A                        i2u233_40 006E  
                      i2u233_41 006A                        i2u234_40 0082                        i2u234_41 007C  
                      i2u234_46 0084                        _PIR1bits 000F9E                __CFG_WDTPS$32768 000000  
                     _vfpfcnvrt 593A               ___wmul@multiplier 0002                    _isspace$1287 0008  
                    ?_read_char 0001                      ?_read_line 000E                        __Hrparam 0000  
                    vfprintf@ap 0016                        __Lrparam 0000                      vfprintf@fp 0012  
            __CFG_BOREN$SBORDIS 000000         ??_OSCILLATOR_Initialize 0002                __size_of___fladd 0584  
              __size_of___fldiv 0420                __size_of___flneg 0040                __size_of___fltol 0152  
                    ?_vfpfcnvrt 000C                        _badineri 1040                      _ANSELAbits 000F38  
               _UART_Initialize 5CEA                        ___xxtofl 52C6                __size_of_isdigit 003C  
              __size_of_isspace 005A                        __ptext10 5BE0                        __ptext11 571C  
                      __ptext20 5CC0                        __ptext12 52C6                        __ptext21 5CEA  
                      __ptext13 54A2                        __ptext22 5D94                        __ptext14 5BA0  
                      __ptext23 5D38                        __ptext15 4C9E                        __ptext16 471A  
                      __ptext17 50BE                        __ptext18 5B46                        __ptext19 5C1C  
              __size_of_putchar 001A                   __size_of_Beep 0120                   __size_of_atoi 0208  
                 __size_of_main 00FE                        int$flags 005D                        _vfprintf 5AE4  
                     printf@fmt 001A                       printf@ret 001C                     _OSCTUNEbits 000F9B  
                    _INTCONbits 000FF2                        isdigit@c 0002                     ??_read_char 0002  
                   ??_read_line 0012                        intlevel2 0000                        isspace@c 0002  
                    _RCSTA1bits 000FAB                      _OSCCONbits 000FD3                        printf@ap 001E  
             _TIMER1_Initialize 5D94         __end_of_UART_Initialize 5D12                     ??_vfpfcnvrt 0012  
            ?_TIMER1_Initialize 0001                        putchar@c 000C             ??_TIMER1_Initialize 0002  
                 ___fladd@signs 003D                    ___fladd@aexp 003E                    ___fladd@bexp 003F  
             __CFG_FOSC$INTIO67 000000       __end_of_TIMER1_Initialize 5DAE  
