

Microchip MPLAB XC8 Assembler V2.10 build 88905656 
                                                                                               Tue Sep 24 00:01:24 2019

Microchip MPLAB XC8 C Compiler v2.10 (Free license) build 20190730164152 Og1 
     1                           	processor	18F26K22
     2                           	fnconf	rparam,??,?,0
     3                           	opt	pw 120
     4                           	opt	flic
     5                           	psect	smallconst,global,reloc=2,class=SMALLCONST,delta=1,noexec
     6                           	psect	cinit,global,reloc=2,class=CODE,delta=1
     7                           	psect	bssCOMRAM,global,class=COMRAM,space=1,delta=1,noexec
     8                           	psect	bssBANK0,global,class=BANK0,space=1,delta=1,lowdata,noexec
     9                           	psect	cstackBANK0,global,class=BANK0,space=1,delta=1,noexec
    10                           	psect	cstackCOMRAM,global,class=COMRAM,space=1,delta=1,noexec
    11                           	psect	text0,global,reloc=2,class=CODE,delta=1
    12                           	psect	text1,global,reloc=2,class=CODE,delta=1
    13                           	psect	text2,global,reloc=2,class=CODE,delta=1
    14                           	psect	text3,global,reloc=2,class=CODE,delta=1,group=2
    15                           	psect	text4,global,reloc=2,class=CODE,delta=1,group=2
    16                           	psect	text5,global,reloc=2,class=CODE,delta=1
    17                           	psect	text6,global,reloc=2,class=CODE,delta=1
    18                           	psect	text7,global,reloc=2,class=CODE,delta=1,group=2
    19                           	psect	text8,global,reloc=2,class=CODE,delta=1
    20                           	psect	text9,global,reloc=2,class=CODE,delta=1
    21                           	psect	text10,global,reloc=2,class=CODE,delta=1
    22                           	psect	text11,global,reloc=2,class=CODE,delta=1
    23                           	psect	text12,global,reloc=2,class=CODE,delta=1,group=1
    24                           	psect	text13,global,reloc=2,class=CODE,delta=1,group=1
    25                           	psect	text14,global,reloc=2,class=CODE,delta=1,group=1
    26                           	psect	text15,global,reloc=2,class=CODE,delta=1,group=1
    27                           	psect	text16,global,reloc=2,class=CODE,delta=1,group=1
    28                           	psect	text17,global,reloc=2,class=CODE,delta=1,group=2
    29                           	psect	text18,global,reloc=2,class=CODE,delta=1,group=2
    30                           	psect	text19,global,reloc=2,class=CODE,delta=1,group=2
    31                           	psect	text20,global,reloc=2,class=CODE,delta=1,group=1
    32                           	psect	text21,global,reloc=2,class=CODE,delta=1
    33                           	psect	text22,global,reloc=2,class=CODE,delta=1
    34                           	psect	text23,global,reloc=2,class=CODE,delta=1
    35                           	psect	intcode,global,reloc=2,class=CODE,delta=1
    36                           	psect	intsave_regs,global,class=BIGRAM,space=1,delta=1,noexec
    37                           	psect	rparam,global,class=COMRAM,space=1,delta=1,noexec
    38                           	psect	temp,global,ovrld,common,class=COMRAM,space=1,delta=1
    39  0000                     
    40                           ; Version 2.10
    41                           ; Generated 31/07/2019 GMT
    42                           ; 
    43                           ; Copyright © 2019, Microchip Technology Inc. and its subsidiaries ("Microchip")
    44                           ; All rights reserved.
    45                           ; 
    46                           ; This software is developed by Microchip Technology Inc. and its subsidiaries ("Microch
      +                          ip").
    47                           ; 
    48                           ; Redistribution and use in source and binary forms, with or without modification, are
    49                           ; permitted provided that the following conditions are met:
    50                           ; 
    51                           ;     1. Redistributions of source code must retain the above copyright notice, this lis
      +                          t of
    52                           ;        conditions and the following disclaimer.
    53                           ; 
    54                           ;     2. Redistributions in binary form must reproduce the above copyright notice, this 
      +                          list
    55                           ;        of conditions and the following disclaimer in the documentation and/or other
    56                           ;        materials provided with the distribution.
    57                           ; 
    58                           ;     3. Microchip's name may not be used to endorse or promote products derived from th
      +                          is
    59                           ;        software without specific prior written permission.
    60                           ; 
    61                           ; THIS SOFTWARE IS PROVIDED BY MICROCHIP "AS IS" AND ANY EXPRESS OR IMPLIED WARRANTIES,
    62                           ; INCLUDING, BUT NOT LIMITED TO, THE IMPLIED WARRANTIES OF MERCHANTABILITY AND FITNESS F
      +                          OR
    63                           ; PURPOSE ARE DISCLAIMED.  IN NO EVENT SHALL MICROCHIP BE LIABLE FOR ANY DIRECT, INDIREC
      +                          T,
    64                           ; INCIDENTAL, SPECIAL, EXEMPLARY, OR CONSEQUENTIAL DAMAGES (INCLUDING BUT NOT LIMITED TO
    65                           ; PROCUREMENT OF SUBSTITUTE GOODS OR SERVICES; LOSS OF USE, DATA OR PROFITS; OR BUSINESS
    66                           ; INTERRUPTION) HOWSOEVER CAUSED AND ON ANY THEORY OF LIABILITY, WHETHER IN CONTRACT, ST
      +                          RICT
    67                           ; LIABILITY, OR TORT (INCLUDING NEGLIGENCE OR OTHERWISE) ARISING IN ANY WAY OUT OF THE U
      +                          SE OF
    68                           ; THIS SOFTWARE, EVEN IF ADVISED OF THE POSSIBILITY OF SUCH DAMAGE.
    69                           ; 
    70                           ; 
    71                           ; Code-generator required, PIC18F26K22 Definitions
    72                           ; 
    73                           ; SFR Addresses
    74  0000                     _ANSELC	set	3898
    75  0000                     _ANSELA	set	3896
    76  0000                     _ANSELAbits	set	3896
    77  0000                     _TMR1	set	4046
    78  0000                     _RCREG1	set	4014
    79  0000                     _TXREG1	set	4013
    80  0000                     _SPBRGH1	set	4016
    81  0000                     _SPBRG1	set	4015
    82  0000                     _BAUDCON1bits	set	4024
    83  0000                     _RCSTA1bits	set	4011
    84  0000                     _TXSTA1bits	set	4012
    85  0000                     _TRISCbits	set	3988
    86  0000                     _PIE1bits	set	3997
    87  0000                     _PIR1bits	set	3998
    88  0000                     _T1CONbits	set	4045
    89  0000                     _OSCTUNEbits	set	3995
    90  0000                     _OSCCONbits	set	4051
    91  0000                     _LATAbits	set	3977
    92  0000                     _TRISAbits	set	3986
    93  0000                     _INTCONbits	set	4082
    94                           
    95                           	psect	smallconst
    96  001000                     __psmallconst:
    97                           	opt callstack 0
    98  001000  00                 	db	0
    99  001001                     STR_2:
   100  001001  50                 	db	80	;'P'
   101  001002  65                 	db	101	;'e'
   102  001003  65                 	db	101	;'e'
   103  001004  67                 	db	103	;'g'
   104  001005  20                 	db	32
   105  001006  47                 	db	71	;'G'
   106  001007  79                 	db	121	;'y'
   107  001008  6E                 	db	110	;'n'
   108  001009  74                 	db	116	;'t'
   109  00100A  20                 	db	32
   110  00100B  2D                 	db	45
   111  00100C  20                 	db	32
   112  00100D  49                 	db	73	;'I'
   113  00100E  6E                 	db	110	;'n'
   114  00100F  20                 	db	32
   115  001010  74                 	db	116	;'t'
   116  001011  68                 	db	104	;'h'
   117  001012  65                 	db	101	;'e'
   118  001013  20                 	db	32
   119  001014  68                 	db	104	;'h'
   120  001015  61                 	db	97	;'a'
   121  001016  6C                 	db	108	;'l'
   122  001017  6C                 	db	108	;'l'
   123  001018  20                 	db	32
   124  001019  6F                 	db	111	;'o'
   125  00101A  66                 	db	102	;'f'
   126  00101B  20                 	db	32
   127  00101C  74                 	db	116	;'t'
   128  00101D  68                 	db	104	;'h'
   129  00101E  65                 	db	101	;'e'
   130  00101F  20                 	db	32
   131  001020  6D                 	db	109	;'m'
   132  001021  6F                 	db	111	;'o'
   133  001022  75                 	db	117	;'u'
   134  001023  6E                 	db	110	;'n'
   135  001024  74                 	db	116	;'t'
   136  001025  61                 	db	97	;'a'
   137  001026  69                 	db	105	;'i'
   138  001027  6E                 	db	110	;'n'
   139  001028  20                 	db	32
   140  001029  6B                 	db	107	;'k'
   141  00102A  69                 	db	105	;'i'
   142  00102B  6E                 	db	110	;'n'
   143  00102C  67                 	db	103	;'g'
   144  00102D  2E                 	db	46
   145  00102E  0A                 	db	10
   146  00102F  0D                 	db	13
   147  001030  00                 	db	0
   148  001031                     STR_3:
   149  001031  44                 	db	68	;'D'
   150  001032  69                 	db	105	;'i'
   151  001033  67                 	db	103	;'g'
   152  001034  69                 	db	105	;'i'
   153  001035  74                 	db	116	;'t'
   154  001036  61                 	db	97	;'a'
   155  001037  72                 	db	114	;'r'
   156  001038  65                 	db	101	;'e'
   157  001039  20                 	db	32
   158  00103A  75                 	db	117	;'u'
   159  00103B  6E                 	db	110	;'n'
   160  00103C  61                 	db	97	;'a'
   161  00103D  20                 	db	32
   162  00103E  66                 	db	102	;'f'
   163  00103F  72                 	db	114	;'r'
   164  001040  65                 	db	101	;'e'
   165  001041  71                 	db	113	;'q'
   166  001042  75                 	db	117	;'u'
   167  001043  65                 	db	101	;'e'
   168  001044  6E                 	db	110	;'n'
   169  001045  7A                 	db	122	;'z'
   170  001046  61                 	db	97	;'a'
   171  001047  20                 	db	32
   172  001048  69                 	db	105	;'i'
   173  001049  6E                 	db	110	;'n'
   174  00104A  74                 	db	116	;'t'
   175  00104B  65                 	db	101	;'e'
   176  00104C  72                 	db	114	;'r'
   177  00104D  61                 	db	97	;'a'
   178  00104E  3A                 	db	58	;':'
   179  00104F  20                 	db	32
   180  001050  00                 	db	0
   181  001051                     STR_1:
   182  001051  0A                 	db	10
   183  001052  0D                 	db	13
   184  001053  52                 	db	82	;'R'
   185  001054  45                 	db	69	;'E'
   186  001055  53                 	db	83	;'S'
   187  001056  45                 	db	69	;'E'
   188  001057  54                 	db	84	;'T'
   189  001058  0A                 	db	10
   190  001059  0D                 	db	13
   191  00105A  00                 	db	0
   192                           
   193                           ; #config settings
   194  00105B  00                 	db	0	; dummy byte at the end
   195  0000                     
   196                           	psect	cinit
   197  007000                     __pcinit:
   198                           	opt callstack 0
   199  007000                     start_initialization:
   200                           	opt callstack 0
   201  007000                     __initialization:
   202                           	opt callstack 0
   203                           
   204                           ; Clear objects allocated to BANK0 (40 bytes)
   205  007000  EE00  F060         	lfsr	0,__pbssBANK0
   206  007004  0E28               	movlw	40
   207  007006                     clear_0:
   208  007006  6AEE               	clrf	postinc0,c
   209  007008  06E8               	decf	wreg,f,c
   210  00700A  E1FD               	bnz	clear_0
   211                           
   212                           ; Clear objects allocated to COMRAM (4 bytes)
   213  00700C  6A46               	clrf	(__pbssCOMRAM+3)& (0+255),c
   214  00700E  6A45               	clrf	(__pbssCOMRAM+2)& (0+255),c
   215  007010  6A44               	clrf	(__pbssCOMRAM+1)& (0+255),c
   216  007012  6A43               	clrf	__pbssCOMRAM& (0+255),c
   217  007014                     end_of_initialization:
   218                           	opt callstack 0
   219  007014                     __end_of__initialization:
   220                           	opt callstack 0
   221  007014  9047               	bcf	int$flags,0,c	;clear compiler interrupt flag (level 1)
   222  007016  9247               	bcf	int$flags,1,c	;clear compiler interrupt flag (level 2)
   223  007018  0E00               	movlw	low (__Lmediumconst shr (0+16))
   224  00701A  6EF8               	movwf	tblptru,c
   225  00701C  0100               	movlb	0
   226  00701E  EFC0  F035         	goto	_main	;jump to C main() function
   227                           
   228                           	psect	bssCOMRAM
   229  000043                     __pbssCOMRAM:
   230                           	opt callstack 0
   231  000043                     _offset:
   232                           	opt callstack 0
   233  000043                     	ds	2
   234  000045                     _on:
   235                           	opt callstack 0
   236  000045                     	ds	1
   237  000046                     _cnt:
   238                           	opt callstack 0
   239  000046                     	ds	1
   240                           
   241                           	psect	bssBANK0
   242  000060                     __pbssBANK0:
   243                           	opt callstack 0
   244  000060                     	ds	32
   245  000080                     _nout:
   246                           	opt callstack 0
   247  000080                     	ds	2
   248  000082                     _width:
   249                           	opt callstack 0
   250  000082                     	ds	2
   251  000084                     _prec:
   252                           	opt callstack 0
   253  000084                     	ds	2
   254  000086                     _flags:
   255                           	opt callstack 0
   256  000086                     	ds	2
   257                           
   258                           	psect	cstackBANK0
   259  000088                     __pcstackBANK0:
   260                           	opt callstack 0
   261  000088                     main@str:
   262                           	opt callstack 0
   263                           
   264                           ; 20 bytes @ 0x0
   265  000088                     	ds	20
   266  00009C                     main@f:
   267                           	opt callstack 0
   268                           
   269                           ; 2 bytes @ 0x14
   270  00009C                     	ds	2
   271  00009E                     main@ms:
   272                           	opt callstack 0
   273                           
   274                           ; 2 bytes @ 0x16
   275  00009E                     	ds	2
   276                           
   277                           	psect	cstackCOMRAM
   278  000001                     __pcstackCOMRAM:
   279                           	opt callstack 0
   280  000001                     ??_ISR:
   281                           
   282                           ; 1 bytes @ 0x0
   283  000001                     	ds	1
   284  000002                     ?_isspace:
   285                           	opt callstack 0
   286  000002                     ?_isdigit:
   287                           	opt callstack 0
   288  000002                     ?___wmul:
   289                           	opt callstack 0
   290  000002                     ?___fladd:
   291                           	opt callstack 0
   292  000002                     ?___xxtofl:
   293                           	opt callstack 0
   294  000002                     putch@c:
   295                           	opt callstack 0
   296  000002                     sleep@ms:
   297                           	opt callstack 0
   298  000002                     ___wmul@multiplier:
   299                           	opt callstack 0
   300  000002                     isdigit@c:
   301                           	opt callstack 0
   302  000002                     isspace@c:
   303                           	opt callstack 0
   304  000002                     ___fladd@b:
   305                           	opt callstack 0
   306  000002                     ___xxtofl@val:
   307                           	opt callstack 0
   308                           
   309                           ; 4 bytes @ 0x1
   310  000002                     	ds	1
   311  000003                     ?_fputc:
   312                           	opt callstack 0
   313  000003                     fputc@c:
   314                           	opt callstack 0
   315                           
   316                           ; 2 bytes @ 0x2
   317  000003                     	ds	1
   318  000004                     ??_sleep:
   319  000004                     ??_isspace:
   320  000004                     ??_isdigit:
   321  000004                     ___wmul@multiplicand:
   322                           	opt callstack 0
   323                           
   324                           ; 2 bytes @ 0x3
   325  000004                     	ds	1
   326  000005                     sleep@i:
   327                           	opt callstack 0
   328  000005                     fputc@fp:
   329                           	opt callstack 0
   330                           
   331                           ; 2 bytes @ 0x4
   332  000005                     	ds	1
   333  000006                     ??___xxtofl:
   334  000006                     ___wmul@product:
   335                           	opt callstack 0
   336  000006                     ___fladd@a:
   337                           	opt callstack 0
   338                           
   339                           ; 4 bytes @ 0x5
   340  000006                     	ds	1
   341  000007                     ??_fputc:
   342                           
   343                           ; 1 bytes @ 0x6
   344  000007                     	ds	1
   345  000008                     _isspace$1287:
   346                           	opt callstack 0
   347                           
   348                           ; 1 bytes @ 0x7
   349  000008                     	ds	1
   350  000009                     ?_atoi:
   351                           	opt callstack 0
   352  000009                     atoi@s:
   353                           	opt callstack 0
   354                           
   355                           ; 2 bytes @ 0x8
   356  000009                     	ds	1
   357  00000A                     ??___fladd:
   358  00000A                     ___xxtofl@sign:
   359                           	opt callstack 0
   360                           
   361                           ; 1 bytes @ 0x9
   362  00000A                     	ds	1
   363  00000B                     ??_atoi:
   364  00000B                     ___xxtofl@exp:
   365                           	opt callstack 0
   366                           
   367                           ; 1 bytes @ 0xA
   368  00000B                     	ds	1
   369  00000C                     ?_vfpfcnvrt:
   370                           	opt callstack 0
   371  00000C                     vfpfcnvrt@fp:
   372                           	opt callstack 0
   373  00000C                     putchar@c:
   374                           	opt callstack 0
   375  00000C                     ___xxtofl@arg:
   376                           	opt callstack 0
   377                           
   378                           ; 4 bytes @ 0xB
   379  00000C                     	ds	2
   380  00000E                     ___fladd@signs:
   381                           	opt callstack 0
   382  00000E                     read_line@s:
   383                           	opt callstack 0
   384  00000E                     vfpfcnvrt@fmt:
   385                           	opt callstack 0
   386                           
   387                           ; 2 bytes @ 0xD
   388  00000E                     	ds	1
   389  00000F                     ___fladd@aexp:
   390                           	opt callstack 0
   391  00000F                     atoi@neg:
   392                           	opt callstack 0
   393                           
   394                           ; 2 bytes @ 0xE
   395  00000F                     	ds	1
   396  000010                     ?___fldiv:
   397                           	opt callstack 0
   398  000010                     ___fladd@bexp:
   399                           	opt callstack 0
   400  000010                     read_line@max_len:
   401                           	opt callstack 0
   402  000010                     vfpfcnvrt@ap:
   403                           	opt callstack 0
   404  000010                     ___fldiv@b:
   405                           	opt callstack 0
   406                           
   407                           ; 4 bytes @ 0xF
   408  000010                     	ds	1
   409  000011                     ___fladd@grs:
   410                           	opt callstack 0
   411  000011                     _atoi$1269:
   412                           	opt callstack 0
   413                           
   414                           ; 2 bytes @ 0x10
   415  000011                     	ds	1
   416  000012                     ??_read_line:
   417  000012                     ?_vfprintf:
   418                           	opt callstack 0
   419  000012                     vfprintf@fp:
   420                           	opt callstack 0
   421                           
   422                           ; 2 bytes @ 0x11
   423  000012                     	ds	1
   424  000013                     read_line@i:
   425                           	opt callstack 0
   426  000013                     _atoi$1271:
   427                           	opt callstack 0
   428                           
   429                           ; 2 bytes @ 0x12
   430  000013                     	ds	1
   431  000014                     vfprintf@fmt:
   432                           	opt callstack 0
   433  000014                     ___fldiv@a:
   434                           	opt callstack 0
   435                           
   436                           ; 4 bytes @ 0x13
   437  000014                     	ds	1
   438  000015                     read_line@c:
   439                           	opt callstack 0
   440  000015                     _atoi$1270:
   441                           	opt callstack 0
   442                           
   443                           ; 1 bytes @ 0x14
   444  000015                     	ds	1
   445  000016                     vfprintf@ap:
   446                           	opt callstack 0
   447  000016                     atoi@n:
   448                           	opt callstack 0
   449                           
   450                           ; 2 bytes @ 0x15
   451  000016                     	ds	2
   452  000018                     ??___fldiv:
   453  000018                     vfprintf@cfmt:
   454                           	opt callstack 0
   455                           
   456                           ; 2 bytes @ 0x17
   457  000018                     	ds	2
   458  00001A                     ?_printf:
   459                           	opt callstack 0
   460  00001A                     printf@fmt:
   461                           	opt callstack 0
   462                           
   463                           ; 2 bytes @ 0x19
   464  00001A                     	ds	2
   465  00001C                     ___fldiv@rem:
   466                           	opt callstack 0
   467                           
   468                           ; 4 bytes @ 0x1B
   469  00001C                     	ds	2
   470  00001E                     printf@ap:
   471                           	opt callstack 0
   472                           
   473                           ; 2 bytes @ 0x1D
   474  00001E                     	ds	2
   475  000020                     ___fldiv@sign:
   476                           	opt callstack 0
   477                           
   478                           ; 1 bytes @ 0x1F
   479  000020                     	ds	1
   480  000021                     ___fldiv@new_exp:
   481                           	opt callstack 0
   482                           
   483                           ; 2 bytes @ 0x20
   484  000021                     	ds	2
   485  000023                     ___fldiv@grs:
   486                           	opt callstack 0
   487                           
   488                           ; 4 bytes @ 0x22
   489  000023                     	ds	4
   490  000027                     ___fldiv@bexp:
   491                           	opt callstack 0
   492                           
   493                           ; 1 bytes @ 0x26
   494  000027                     	ds	1
   495  000028                     ___fldiv@aexp:
   496                           	opt callstack 0
   497                           
   498                           ; 1 bytes @ 0x27
   499  000028                     	ds	1
   500  000029                     ?___flsub:
   501                           	opt callstack 0
   502  000029                     ___flsub@b:
   503                           	opt callstack 0
   504                           
   505                           ; 4 bytes @ 0x28
   506  000029                     	ds	4
   507  00002D                     ___flsub@a:
   508                           	opt callstack 0
   509                           
   510                           ; 4 bytes @ 0x2C
   511  00002D                     	ds	4
   512  000031                     ?___fltol:
   513                           	opt callstack 0
   514  000031                     ___fltol@f1:
   515                           	opt callstack 0
   516                           
   517                           ; 4 bytes @ 0x30
   518  000031                     	ds	4
   519  000035                     ??___fltol:
   520                           
   521                           ; 1 bytes @ 0x34
   522  000035                     	ds	4
   523  000039                     ___fltol@sign1:
   524                           	opt callstack 0
   525                           
   526                           ; 1 bytes @ 0x38
   527  000039                     	ds	1
   528  00003A                     ___fltol@exp1:
   529                           	opt callstack 0
   530                           
   531                           ; 1 bytes @ 0x39
   532  00003A                     	ds	1
   533  00003B                     Beep@frequency:
   534                           	opt callstack 0
   535                           
   536                           ; 2 bytes @ 0x3A
   537  00003B                     	ds	2
   538  00003D                     Beep@duration:
   539                           	opt callstack 0
   540                           
   541                           ; 2 bytes @ 0x3C
   542  00003D                     	ds	2
   543  00003F                     ??_Beep:
   544                           
   545                           ; 1 bytes @ 0x3E
   546  00003F                     	ds	1
   547  000040                     Beep@i:
   548                           	opt callstack 0
   549                           
   550                           ; 2 bytes @ 0x3F
   551  000040                     	ds	2
   552  000042                     ??_main:
   553                           
   554                           ; 1 bytes @ 0x41
   555  000042                     	ds	1
   556                           
   557 ;;
   558 ;;Main: autosize = 0, tempsize = 1, incstack = 0, save=0
   559 ;;
   560 ;; *************** function _main *****************
   561 ;; Defined at:
   562 ;;		line 38 in file "main.c"
   563 ;; Parameters:    Size  Location     Type
   564 ;;		None
   565 ;; Auto vars:     Size  Location     Type
   566 ;;  str            20    0[BANK0 ] unsigned char [20]
   567 ;;  ms              2   22[BANK0 ] int 
   568 ;;  f               2   20[BANK0 ] int 
   569 ;; Return value:  Size  Location     Type
   570 ;;                  1    wreg      void 
   571 ;; Registers used:
   572 ;;		wreg, fsr1l, fsr1h, fsr2l, fsr2h, status,2, status,0, tblptrl, tblptrh, tblptru, prodl, prodh, cstack
   573 ;; Tracked objects:
   574 ;;		On entry : 0/0
   575 ;;		On exit  : 0/0
   576 ;;		Unchanged: 0/0
   577 ;; Data sizes:     COMRAM   BANK0   BANK1   BANK2   BANK3   BANK4   BANK5   BANK6   BANK7   BANK8   BANK9  BANK10  BANK1
      +1  BANK12  BANK13  BANK14  BANK15
   578 ;;      Params:         0       0       0       0       0       0       0       0       0       0       0       0       
      +0       0       0       0       0
   579 ;;      Locals:         0      24       0       0       0       0       0       0       0       0       0       0       
      +0       0       0       0       0
   580 ;;      Temps:          1       0       0       0       0       0       0       0       0       0       0       0       
      +0       0       0       0       0
   581 ;;      Totals:         1      24       0       0       0       0       0       0       0       0       0       0       
      +0       0       0       0       0
   582 ;;Total ram usage:       25 bytes
   583 ;; Hardware stack levels required when called:    6
   584 ;; This function calls:
   585 ;;		_Beep
   586 ;;		_OSCILLATOR_Initialize
   587 ;;		_TIMER1_Initialize
   588 ;;		_UART_Initialize
   589 ;;		_atoi
   590 ;;		_peer_gynt_mountain_king
   591 ;;		_printf
   592 ;;		_read_line
   593 ;;		_sleep
   594 ;; This function is called by:
   595 ;;		Startup code after reset
   596 ;; This function uses a non-reentrant model
   597 ;;
   598                           
   599                           	psect	text0
   600  006B80                     __ptext0:
   601                           	opt callstack 0
   602  006B80                     _main:
   603                           	opt callstack 25
   604  006B80                     
   605                           ;main.c: 39:         if (str[0] != 0) f = atoi(str);
   606  006B80  0E00               	movlw	0
   607  006B82  0100               	movlb	0	; () banked
   608  006B84  6F9F               	movwf	(main@ms+1)& (0+255),b
   609  006B86  0E64               	movlw	100
   610  006B88  6F9E               	movwf	main@ms& (0+255),b
   611  006B8A                     
   612                           ; BSR set to: 0
   613                           ;main.c: 40:         Beep(f, ms);;main.c: 41:     }
   614  006B8A  EC1E  F038         	call	_OSCILLATOR_Initialize	;wreg free
   615  006B8E                     
   616                           ;main.c: 42:     return;
   617  006B8E  ECC6  F037         	call	_UART_Initialize	;wreg free
   618  006B92                     
   619                           ;main.c: 43: }
   620  006B92  0E51               	movlw	low STR_1
   621  006B94  6E1A               	movwf	printf@fmt^0,c
   622  006B96  0E10               	movlw	high STR_1
   623  006B98  6E1B               	movwf	(printf@fmt+1)^0,c
   624  006B9A  ECDA  F037         	call	_printf	;wreg free
   625  006B9E                     
   626                           ;main.c: 44: 
   627  006B9E  EC11  F038         	call	_TIMER1_Initialize	;wreg free
   628  006BA2                     
   629                           ;main.c: 45: void OSCILLATOR_Initialize(void) {
   630  006BA2  8EF2               	bsf	242,7,c	;volatile
   631  006BA4                     
   632                           ;main.c: 46: 
   633  006BA4  8CF2               	bsf	242,6,c	;volatile
   634  006BA6                     
   635                           ;main.c: 47:     OSCCONbits.SCS = 0b00;
   636  006BA6  010F               	movlb	15	; () banked
   637  006BA8  9138               	bcf	56,0,b	;volatile
   638  006BAA                     
   639                           ; BSR set to: 15
   640                           ;main.c: 48:     OSCCONbits.IRCF = 0b111;
   641  006BAA  9338               	bcf	56,1,b	;volatile
   642  006BAC                     
   643                           ; BSR set to: 15
   644                           ;main.c: 49:     OSCTUNEbits.PLLEN = 1;
   645  006BAC  9092               	bcf	146,0,c	;volatile
   646  006BAE                     
   647                           ; BSR set to: 15
   648                           ;main.c: 50:     while (OSCCONbits.HFIOFS == 0);
   649  006BAE  9292               	bcf	146,1,c	;volatile
   650  006BB0                     
   651                           ; BSR set to: 15
   652                           ;main.c: 51: 
   653  006BB0  9289               	bcf	137,1,c	;volatile
   654  006BB2                     
   655                           ; BSR set to: 15
   656                           ;main.c: 52: 
   657  006BB2  9089               	bcf	137,0,c	;volatile
   658  006BB4                     
   659                           ; BSR set to: 15
   660                           ;main.c: 53: }
   661  006BB4  0E02               	movlw	2
   662  006BB6  6E3C               	movwf	(Beep@frequency+1)^0,c
   663  006BB8  0EBA               	movlw	186
   664  006BBA  6E3B               	movwf	Beep@frequency^0,c
   665  006BBC  0E0A               	movlw	10
   666  006BBE  6E3E               	movwf	(Beep@duration+1)^0,c
   667  006BC0  0E9A               	movlw	154
   668  006BC2  6E3D               	movwf	Beep@duration^0,c
   669  006BC4  EC33  F034         	call	_Beep	;wreg free
   670  006BC8                     
   671                           ;main.c: 54: 
   672  006BC8  0E01               	movlw	1
   673  006BCA  6E45               	movwf	_on^0,c
   674  006BCC                     
   675                           ;main.c: 55: void TIMER1_Initialize(void) {
   676  006BCC  0E00               	movlw	0
   677  006BCE  6E46               	movwf	_cnt^0,c
   678  006BD0                     
   679                           ;main.c: 56:     T1CONbits.TMR1ON = 0;
   680  006BD0  B289               	btfsc	137,1,c	;volatile
   681  006BD2  EFED  F035         	goto	u3341
   682  006BD6  EFF0  F035         	goto	u3340
   683  006BDA                     u3341:
   684  006BDA  0E01               	movlw	1
   685  006BDC  EFF1  F035         	goto	u3346
   686  006BE0                     u3340:
   687  006BE0  0E00               	movlw	0
   688  006BE2                     u3346:
   689  006BE2  0AFF               	xorlw	255
   690  006BE4  6E42               	movwf	??_main^0,c
   691  006BE6  4642               	rlncf	??_main^0,f,c
   692  006BE8  5089               	movf	137,w,c	;volatile
   693  006BEA  1842               	xorwf	??_main^0,w,c
   694  006BEC  0BFD               	andlw	-3
   695  006BEE  1842               	xorwf	??_main^0,w,c
   696  006BF0  6E89               	movwf	137,c	;volatile
   697  006BF2                     
   698                           ;main.c: 57:     T1CONbits.TMR1CS = 0;
   699  006BF2  0E06               	movlw	6
   700  006BF4  6E03               	movwf	(sleep@ms+1)^0,c
   701  006BF6  0EB2               	movlw	178
   702  006BF8  6E02               	movwf	sleep@ms^0,c
   703  006BFA  EC79  F037         	call	_sleep	;wreg free
   704  006BFE                     
   705                           ;main.c: 58:     T1CONbits.T1RD16 = 1;
   706  006BFE  0E01               	movlw	low STR_2
   707  006C00  6E1A               	movwf	printf@fmt^0,c
   708  006C02  0E10               	movlw	high STR_2
   709  006C04  6E1B               	movwf	(printf@fmt+1)^0,c
   710  006C06  ECDA  F037         	call	_printf	;wreg free
   711                           
   712                           ;main.c: 59:     T1CONbits.T1CKPS = 3;
   713  006C0A  EC2E  F008         	call	_peer_gynt_mountain_king	;wreg free
   714  006C0E                     l3088:
   715                           
   716                           ;main.c: 61:     PIR1bits.TMR1IF = 0;
   717  006C0E  0E31               	movlw	low STR_3
   718  006C10  6E1A               	movwf	printf@fmt^0,c
   719  006C12  0E10               	movlw	high STR_3
   720  006C14  6E1B               	movwf	(printf@fmt+1)^0,c
   721  006C16  ECDA  F037         	call	_printf	;wreg free
   722  006C1A                     
   723                           ;main.c: 62:     PIE1bits.TMR1IE = 1;
   724  006C1A  0E88               	movlw	low main@str
   725  006C1C  6E0E               	movwf	read_line@s^0,c
   726  006C1E  0E00               	movlw	high main@str
   727  006C20  6E0F               	movwf	(read_line@s+1)^0,c
   728  006C22  0E00               	movlw	0
   729  006C24  6E11               	movwf	(read_line@max_len+1)^0,c
   730  006C26  0E14               	movlw	20
   731  006C28  6E10               	movwf	read_line@max_len^0,c
   732  006C2A  ECB9  F034         	call	_read_line	;wreg free
   733  006C2E                     
   734                           ;main.c: 63: }
   735  006C2E  0100               	movlb	0	; () banked
   736  006C30  5188               	movf	main@str& (0+255),w,b
   737  006C32  B4D8               	btfsc	status,2,c
   738  006C34  EF1E  F036         	goto	u3351
   739  006C38  EF20  F036         	goto	u3350
   740  006C3C                     u3351:
   741  006C3C  EF2A  F036         	goto	l3096
   742  006C40                     u3350:
   743  006C40                     
   744                           ; BSR set to: 0
   745  006C40  0E88               	movlw	low main@str
   746  006C42  6E09               	movwf	atoi@s^0,c
   747  006C44  0E00               	movlw	high main@str
   748  006C46  6E0A               	movwf	(atoi@s+1)^0,c
   749  006C48  EC6E  F033         	call	_atoi	;wreg free
   750  006C4C  C009  F09C         	movff	?_atoi,main@f
   751  006C50  C00A  F09D         	movff	?_atoi+1,main@f+1
   752  006C54                     l3096:
   753                           
   754                           ;main.c: 64: 
   755  006C54  C09C  F03B         	movff	main@f,Beep@frequency
   756  006C58  C09D  F03C         	movff	main@f+1,Beep@frequency+1
   757  006C5C  C09E  F03D         	movff	main@ms,Beep@duration
   758  006C60  C09F  F03E         	movff	main@ms+1,Beep@duration+1
   759  006C64  EC33  F034         	call	_Beep	;wreg free
   760  006C68  EF07  F036         	goto	l3088
   761  006C6C  EF48  F000         	goto	start
   762  006C70                     __end_of_main:
   763                           	opt callstack 0
   764                           
   765 ;; *************** function _read_line *****************
   766 ;; Defined at:
   767 ;;		line 129 in file "main.c"
   768 ;; Parameters:    Size  Location     Type
   769 ;;  s               2   13[COMRAM] PTR unsigned char 
   770 ;;		 -> main@str(20), 
   771 ;;  max_len         2   15[COMRAM] int 
   772 ;; Auto vars:     Size  Location     Type
   773 ;;  c               1   20[COMRAM] unsigned char 
   774 ;;  i               2   18[COMRAM] int 
   775 ;; Return value:  Size  Location     Type
   776 ;;                  1    wreg      void 
   777 ;; Registers used:
   778 ;;		wreg, fsr1l, fsr1h, fsr2l, fsr2h, status,2, status,0, cstack
   779 ;; Tracked objects:
   780 ;;		On entry : 0/0
   781 ;;		On exit  : 0/0
   782 ;;		Unchanged: 0/0
   783 ;; Data sizes:     COMRAM   BANK0   BANK1   BANK2   BANK3   BANK4   BANK5   BANK6   BANK7   BANK8   BANK9  BANK10  BANK1
      +1  BANK12  BANK13  BANK14  BANK15
   784 ;;      Params:         4       0       0       0       0       0       0       0       0       0       0       0       
      +0       0       0       0       0
   785 ;;      Locals:         3       0       0       0       0       0       0       0       0       0       0       0       
      +0       0       0       0       0
   786 ;;      Temps:          1       0       0       0       0       0       0       0       0       0       0       0       
      +0       0       0       0       0
   787 ;;      Totals:         8       0       0       0       0       0       0       0       0       0       0       0       
      +0       0       0       0       0
   788 ;;Total ram usage:        8 bytes
   789 ;; Hardware stack levels used:    1
   790 ;; Hardware stack levels required when called:    4
   791 ;; This function calls:
   792 ;;		_putchar
   793 ;;		_read_char
   794 ;; This function is called by:
   795 ;;		_main
   796 ;; This function uses a non-reentrant model
   797 ;;
   798                           
   799                           	psect	text1
   800  006972                     __ptext1:
   801                           	opt callstack 0
   802  006972                     _read_line:
   803                           	opt callstack 26
   804  006972                     
   805                           ;main.c: 130: 
   806  006972  0E00               	movlw	0
   807  006974  6E14               	movwf	(read_line@i+1)^0,c
   808  006976  0E00               	movlw	0
   809  006978  6E13               	movwf	read_line@i^0,c
   810  00697A                     l2976:
   811                           
   812                           ;main.c: 132:     int i;
   813  00697A  ECB1  F037         	call	_read_char	;wreg free
   814  00697E  6E15               	movwf	read_line@c^0,c
   815  006980                     
   816                           ;main.c: 133:     frequency = (uint16_t)((double)frequency / 4);
   817  006980  0E0D               	movlw	13
   818  006982  1815               	xorwf	read_line@c^0,w,c
   819  006984  A4D8               	btfss	status,2,c
   820  006986  EFC7  F034         	goto	u3211
   821  00698A  EFC9  F034         	goto	u3210
   822  00698E                     u3211:
   823  00698E  EFDE  F034         	goto	l2988
   824  006992                     u3210:
   825  006992                     
   826                           ;main.c: 134:     offset = (uint16_t) ((double) 65535 - ((double) 1000000 / (double) fre
      +                          quency));
   827  006992  C015  F00C         	movff	read_line@c,putchar@c
   828  006996  6A0D               	clrf	(putchar@c+1)^0,c
   829  006998  EC2B  F038         	call	_putchar	;wreg free
   830                           
   831                           ;main.c: 135:     TMR1 = offset;
   832  00699C  0E00               	movlw	0
   833  00699E  6E0D               	movwf	(putchar@c+1)^0,c
   834  0069A0  0E0A               	movlw	10
   835  0069A2  6E0C               	movwf	putchar@c^0,c
   836  0069A4  EC2B  F038         	call	_putchar	;wreg free
   837  0069A8                     
   838                           ;main.c: 136:     T1CONbits.TMR1ON = 1;
   839  0069A8  5013               	movf	read_line@i^0,w,c
   840  0069AA  240E               	addwf	read_line@s^0,w,c
   841  0069AC  6ED9               	movwf	fsr2l,c
   842  0069AE  5014               	movf	(read_line@i+1)^0,w,c
   843  0069B0  200F               	addwfc	(read_line@s+1)^0,w,c
   844  0069B2  6EDA               	movwf	fsr2h,c
   845  0069B4  0E00               	movlw	0
   846  0069B6  6EDF               	movwf	indf2,c
   847  0069B8  EF3C  F035         	goto	l107
   848  0069BC                     l2988:
   849  0069BC  0E7F               	movlw	127
   850  0069BE  1815               	xorwf	read_line@c^0,w,c
   851  0069C0  B4D8               	btfsc	status,2,c
   852  0069C2  EFE5  F034         	goto	u3221
   853  0069C6  EFE7  F034         	goto	u3220
   854  0069CA                     u3221:
   855  0069CA  EFF0  F034         	goto	l2992
   856  0069CE                     u3220:
   857  0069CE  0E08               	movlw	8
   858  0069D0  1815               	xorwf	read_line@c^0,w,c
   859  0069D2  A4D8               	btfss	status,2,c
   860  0069D4  EFEE  F034         	goto	u3231
   861  0069D8  EFF0  F034         	goto	u3230
   862  0069DC                     u3231:
   863  0069DC  EF12  F035         	goto	l2998
   864  0069E0                     u3230:
   865  0069E0                     l2992:
   866                           
   867                           ;main.c: 139:     }
   868  0069E0  BE14               	btfsc	(read_line@i+1)^0,7,c
   869  0069E2  EFFB  F034         	goto	u3241
   870  0069E6  5014               	movf	(read_line@i+1)^0,w,c
   871  0069E8  E108               	bnz	u3240
   872  0069EA  0413               	decf	read_line@i^0,w,c
   873  0069EC  A0D8               	btfss	status,0,c
   874  0069EE  EFFB  F034         	goto	u3241
   875  0069F2  EFFD  F034         	goto	u3240
   876  0069F6                     u3241:
   877  0069F6  EFBD  F034         	goto	l2976
   878  0069FA                     u3240:
   879  0069FA                     
   880                           ;main.c: 140:     T1CONbits.TMR1ON = 0;
   881  0069FA  C015  F00C         	movff	read_line@c,putchar@c
   882  0069FE  6A0D               	clrf	(putchar@c+1)^0,c
   883  006A00  EC2B  F038         	call	_putchar	;wreg free
   884                           
   885                           ;main.c: 141: }
   886  006A04  0E00               	movlw	0
   887  006A06  6E0D               	movwf	(putchar@c+1)^0,c
   888  006A08  0E20               	movlw	32
   889  006A0A  6E0C               	movwf	putchar@c^0,c
   890  006A0C  EC2B  F038         	call	_putchar	;wreg free
   891                           
   892                           ;main.c: 142: 
   893  006A10  C015  F00C         	movff	read_line@c,putchar@c
   894  006A14  6A0D               	clrf	(putchar@c+1)^0,c
   895  006A16  EC2B  F038         	call	_putchar	;wreg free
   896  006A1A                     
   897                           ;main.c: 143: void sleep(uint16_t ms) {
   898  006A1A  0613               	decf	read_line@i^0,f,c
   899  006A1C  A0D8               	btfss	status,0,c
   900  006A1E  0614               	decf	(read_line@i+1)^0,f,c
   901  006A20  EFBD  F034         	goto	l2976
   902  006A24                     l2998:
   903  006A24  0E1F               	movlw	31
   904  006A26  6415               	cpfsgt	read_line@c^0,c
   905  006A28  EF18  F035         	goto	u3251
   906  006A2C  EF1A  F035         	goto	u3250
   907  006A30                     u3251:
   908  006A30  EFBD  F034         	goto	l2976
   909  006A34                     u3250:
   910  006A34                     
   911                           ;main.c: 146:         _delay((unsigned long)((1)*(64000000/4000.0)));
   912  006A34  5010               	movf	read_line@max_len^0,w,c
   913  006A36  5C13               	subwf	read_line@i^0,w,c
   914  006A38  5014               	movf	(read_line@i+1)^0,w,c
   915  006A3A  0A80               	xorlw	128
   916  006A3C  6E12               	movwf	??_read_line^0,c
   917  006A3E  5011               	movf	(read_line@max_len+1)^0,w,c
   918  006A40  0A80               	xorlw	128
   919  006A42  5812               	subwfb	??_read_line^0,w,c
   920  006A44  B0D8               	btfsc	status,0,c
   921  006A46  EF27  F035         	goto	u3261
   922  006A4A  EF29  F035         	goto	u3260
   923  006A4E                     u3261:
   924  006A4E  EF3A  F035         	goto	l113
   925  006A52                     u3260:
   926  006A52                     
   927                           ;main.c: 147:     }
   928  006A52  C015  F00C         	movff	read_line@c,putchar@c
   929  006A56  6A0D               	clrf	(putchar@c+1)^0,c
   930  006A58  EC2B  F038         	call	_putchar	;wreg free
   931  006A5C                     
   932                           ;main.c: 148: }
   933  006A5C  5013               	movf	read_line@i^0,w,c
   934  006A5E  240E               	addwf	read_line@s^0,w,c
   935  006A60  6ED9               	movwf	fsr2l,c
   936  006A62  5014               	movf	(read_line@i+1)^0,w,c
   937  006A64  200F               	addwfc	(read_line@s+1)^0,w,c
   938  006A66  6EDA               	movwf	fsr2h,c
   939  006A68  C015  FFDF         	movff	read_line@c,indf2
   940  006A6C                     
   941                           ;main.c: 149: 
   942  006A6C  4A13               	infsnz	read_line@i^0,f,c
   943  006A6E  2A14               	incf	(read_line@i+1)^0,f,c
   944  006A70  EFBD  F034         	goto	l2976
   945  006A74                     l113:
   946  006A74  EFBD  F034         	goto	l2976
   947  006A78                     l107:
   948  006A78  0012               	return		;funcret
   949  006A7A                     __end_of_read_line:
   950                           	opt callstack 0
   951                           
   952 ;; *************** function _read_char *****************
   953 ;; Defined at:
   954 ;;		line 118 in file "main.c"
   955 ;; Parameters:    Size  Location     Type
   956 ;;		None
   957 ;; Auto vars:     Size  Location     Type
   958 ;;		None
   959 ;; Return value:  Size  Location     Type
   960 ;;                  1    wreg      unsigned char 
   961 ;; Registers used:
   962 ;;		wreg, status,2
   963 ;; Tracked objects:
   964 ;;		On entry : 0/0
   965 ;;		On exit  : 0/0
   966 ;;		Unchanged: 0/0
   967 ;; Data sizes:     COMRAM   BANK0   BANK1   BANK2   BANK3   BANK4   BANK5   BANK6   BANK7   BANK8   BANK9  BANK10  BANK1
      +1  BANK12  BANK13  BANK14  BANK15
   968 ;;      Params:         0       0       0       0       0       0       0       0       0       0       0       0       
      +0       0       0       0       0
   969 ;;      Locals:         0       0       0       0       0       0       0       0       0       0       0       0       
      +0       0       0       0       0
   970 ;;      Temps:          0       0       0       0       0       0       0       0       0       0       0       0       
      +0       0       0       0       0
   971 ;;      Totals:         0       0       0       0       0       0       0       0       0       0       0       0       
      +0       0       0       0       0
   972 ;;Total ram usage:        0 bytes
   973 ;; Hardware stack levels used:    1
   974 ;; Hardware stack levels required when called:    1
   975 ;; This function calls:
   976 ;;		Nothing
   977 ;; This function is called by:
   978 ;;		_read_line
   979 ;; This function uses a non-reentrant model
   980 ;;
   981                           
   982                           	psect	text2
   983  006F62                     __ptext2:
   984                           	opt callstack 0
   985  006F62                     _read_char:
   986                           	opt callstack 28
   987  006F62                     
   988                           ;main.c: 119:                 --i;
   989  006F62  EFBD  F037         	goto	l98
   990  006F66                     l99:
   991                           
   992                           ;main.c: 120:             }
   993  006F66  A2AB               	btfss	171,1,c	;volatile
   994  006F68  EFB8  F037         	goto	u3131
   995  006F6C  EFBA  F037         	goto	u3130
   996  006F70                     u3131:
   997  006F70  EFBD  F037         	goto	l98
   998  006F74                     u3130:
   999  006F74                     
  1000                           ;main.c: 121:         } else if (c >= 32) {
  1001  006F74  92AB               	bcf	171,1,c	;volatile
  1002                           
  1003                           ;main.c: 122:             if (i < max_len) {
  1004  006F76  98AB               	bcf	171,4,c	;volatile
  1005                           
  1006                           ;main.c: 123:                 putchar(c);
  1007  006F78  88AB               	bsf	171,4,c	;volatile
  1008  006F7A                     l98:
  1009                           
  1010                           ;main.c: 119:                 --i;
  1011  006F7A  AA9E               	btfss	158,5,c	;volatile
  1012  006F7C  EFC2  F037         	goto	u3141
  1013  006F80  EFC4  F037         	goto	u3140
  1014  006F84                     u3141:
  1015  006F84  EFB3  F037         	goto	l99
  1016  006F88                     u3140:
  1017  006F88                     
  1018                           ;main.c: 126:             }
  1019  006F88  50AE               	movf	174,w,c	;volatile
  1020  006F8A  0012               	return		;funcret
  1021  006F8C                     __end_of_read_char:
  1022                           	opt callstack 0
  1023                           
  1024 ;; *************** function _putchar *****************
  1025 ;; Defined at:
  1026 ;;		line 4 in file "C:\Program Files (x86)\Microchip\xc8\v2.10\pic\sources\c99\common\putchar.c"
  1027 ;; Parameters:    Size  Location     Type
  1028 ;;  c               2   11[COMRAM] int 
  1029 ;; Auto vars:     Size  Location     Type
  1030 ;;		None
  1031 ;; Return value:  Size  Location     Type
  1032 ;;                  2   11[COMRAM] int 
  1033 ;; Registers used:
  1034 ;;		wreg, fsr1l, fsr1h, fsr2l, fsr2h, status,2, status,0, cstack
  1035 ;; Tracked objects:
  1036 ;;		On entry : 0/0
  1037 ;;		On exit  : 0/0
  1038 ;;		Unchanged: 0/0
  1039 ;; Data sizes:     COMRAM   BANK0   BANK1   BANK2   BANK3   BANK4   BANK5   BANK6   BANK7   BANK8   BANK9  BANK10  BANK1
      +1  BANK12  BANK13  BANK14  BANK15
  1040 ;;      Params:         2       0       0       0       0       0       0       0       0       0       0       0       
      +0       0       0       0       0
  1041 ;;      Locals:         0       0       0       0       0       0       0       0       0       0       0       0       
      +0       0       0       0       0
  1042 ;;      Temps:          0       0       0       0       0       0       0       0       0       0       0       0       
      +0       0       0       0       0
  1043 ;;      Totals:         2       0       0       0       0       0       0       0       0       0       0       0       
      +0       0       0       0       0
  1044 ;;Total ram usage:        2 bytes
  1045 ;; Hardware stack levels used:    1
  1046 ;; Hardware stack levels required when called:    3
  1047 ;; This function calls:
  1048 ;;		_fputc
  1049 ;; This function is called by:
  1050 ;;		_read_line
  1051 ;; This function uses a non-reentrant model
  1052 ;;
  1053                           
  1054                           	psect	text3
  1055  007056                     __ptext3:
  1056                           	opt callstack 0
  1057  007056                     _putchar:
  1058                           	opt callstack 26
  1059  007056                     
  1060                           ;	Return value of _putchar is never used
  1061  007056  C00C  F003         	movff	putchar@c,fputc@c
  1062  00705A  C00D  F004         	movff	putchar@c+1,fputc@c+1
  1063  00705E  0E00               	movlw	0
  1064  007060  6E05               	movwf	fputc@fp^0,c
  1065  007062  0E00               	movlw	0
  1066  007064  6E06               	movwf	(fputc@fp+1)^0,c
  1067  007066  ECAE  F036         	call	_fputc	;wreg free
  1068  00706A  0012               	return		;funcret
  1069  00706C                     __end_of_putchar:
  1070                           	opt callstack 0
  1071                           
  1072 ;; *************** function _printf *****************
  1073 ;; Defined at:
  1074 ;;		line 5 in file "C:\Program Files (x86)\Microchip\xc8\v2.10\pic\sources\c99\common\printf.c"
  1075 ;; Parameters:    Size  Location     Type
  1076 ;;  fmt             2   25[COMRAM] PTR const unsigned char 
  1077 ;;		 -> STR_3(32), STR_2(48), STR_1(10), 
  1078 ;; Auto vars:     Size  Location     Type
  1079 ;;  ap              2   29[COMRAM] PTR void [1]
  1080 ;;		 -> ?_printf(2), 
  1081 ;;  ret             2    0        int 
  1082 ;; Return value:  Size  Location     Type
  1083 ;;                  2   25[COMRAM] int 
  1084 ;; Registers used:
  1085 ;;		wreg, fsr1l, fsr1h, fsr2l, fsr2h, status,2, status,0, tblptrl, tblptrh, tblptru, cstack
  1086 ;; Tracked objects:
  1087 ;;		On entry : 0/0
  1088 ;;		On exit  : 0/0
  1089 ;;		Unchanged: 0/0
  1090 ;; Data sizes:     COMRAM   BANK0   BANK1   BANK2   BANK3   BANK4   BANK5   BANK6   BANK7   BANK8   BANK9  BANK10  BANK1
      +1  BANK12  BANK13  BANK14  BANK15
  1091 ;;      Params:         2       0       0       0       0       0       0       0       0       0       0       0       
      +0       0       0       0       0
  1092 ;;      Locals:         4       0       0       0       0       0       0       0       0       0       0       0       
      +0       0       0       0       0
  1093 ;;      Temps:          0       0       0       0       0       0       0       0       0       0       0       0       
      +0       0       0       0       0
  1094 ;;      Totals:         6       0       0       0       0       0       0       0       0       0       0       0       
      +0       0       0       0       0
  1095 ;;Total ram usage:        6 bytes
  1096 ;; Hardware stack levels used:    1
  1097 ;; Hardware stack levels required when called:    5
  1098 ;; This function calls:
  1099 ;;		_vfprintf
  1100 ;; This function is called by:
  1101 ;;		_main
  1102 ;; This function uses a non-reentrant model
  1103 ;;
  1104                           
  1105                           	psect	text4
  1106  006FB4                     __ptext4:
  1107                           	opt callstack 0
  1108  006FB4                     _printf:
  1109                           	opt callstack 25
  1110  006FB4  0E1C               	movlw	low (?_printf+2)
  1111  006FB6  6E1E               	movwf	printf@ap^0,c
  1112  006FB8  0E00               	movlw	high (?_printf+2)
  1113  006FBA  6E1F               	movwf	(printf@ap+1)^0,c
  1114  006FBC  0E00               	movlw	0
  1115  006FBE  6E12               	movwf	vfprintf@fp^0,c
  1116  006FC0  0E00               	movlw	0
  1117  006FC2  6E13               	movwf	(vfprintf@fp+1)^0,c
  1118  006FC4  C01A  F014         	movff	printf@fmt,vfprintf@fmt
  1119  006FC8  C01B  F015         	movff	printf@fmt+1,vfprintf@fmt+1
  1120  006FCC  0E1E               	movlw	low printf@ap
  1121  006FCE  6E16               	movwf	vfprintf@ap^0,c
  1122  006FD0  0E00               	movlw	high printf@ap
  1123  006FD2  6E17               	movwf	(vfprintf@ap+1)^0,c
  1124  006FD4  ECFC  F036         	call	_vfprintf	;wreg free
  1125  006FD8  0012               	return		;funcret
  1126  006FDA                     __end_of_printf:
  1127                           	opt callstack 0
  1128                           
  1129 ;; *************** function _vfprintf *****************
  1130 ;; Defined at:
  1131 ;;		line 1368 in file "C:\Program Files (x86)\Microchip\xc8\v2.10\pic\sources\c99\common\doprnt.c"
  1132 ;; Parameters:    Size  Location     Type
  1133 ;;  fp              2   17[COMRAM] PTR struct _IO_FILE
  1134 ;;		 -> NULL(0), 
  1135 ;;  fmt             2   19[COMRAM] PTR const unsigned char 
  1136 ;;		 -> STR_3(32), STR_2(48), STR_1(10), 
  1137 ;;  ap              2   21[COMRAM] PTR PTR void 
  1138 ;;		 -> printf@ap(2), 
  1139 ;; Auto vars:     Size  Location     Type
  1140 ;;  cfmt            2   23[COMRAM] PTR unsigned char 
  1141 ;;		 -> STR_3(32), STR_2(48), STR_1(10), 
  1142 ;; Return value:  Size  Location     Type
  1143 ;;                  2   17[COMRAM] int 
  1144 ;; Registers used:
  1145 ;;		wreg, fsr1l, fsr1h, fsr2l, fsr2h, status,2, status,0, tblptrl, tblptrh, tblptru, cstack
  1146 ;; Tracked objects:
  1147 ;;		On entry : 0/0
  1148 ;;		On exit  : 0/0
  1149 ;;		Unchanged: 0/0
  1150 ;; Data sizes:     COMRAM   BANK0   BANK1   BANK2   BANK3   BANK4   BANK5   BANK6   BANK7   BANK8   BANK9  BANK10  BANK1
      +1  BANK12  BANK13  BANK14  BANK15
  1151 ;;      Params:         6       0       0       0       0       0       0       0       0       0       0       0       
      +0       0       0       0       0
  1152 ;;      Locals:         2       0       0       0       0       0       0       0       0       0       0       0       
      +0       0       0       0       0
  1153 ;;      Temps:          0       0       0       0       0       0       0       0       0       0       0       0       
      +0       0       0       0       0
  1154 ;;      Totals:         8       0       0       0       0       0       0       0       0       0       0       0       
      +0       0       0       0       0
  1155 ;;Total ram usage:        8 bytes
  1156 ;; Hardware stack levels used:    1
  1157 ;; Hardware stack levels required when called:    4
  1158 ;; This function calls:
  1159 ;;		_vfpfcnvrt
  1160 ;; This function is called by:
  1161 ;;		_printf
  1162 ;; This function uses a non-reentrant model
  1163 ;;
  1164                           
  1165                           	psect	text5
  1166  006DF8                     __ptext5:
  1167                           	opt callstack 0
  1168  006DF8                     _vfprintf:
  1169                           	opt callstack 25
  1170  006DF8                     
  1171                           ;C:\Program Files (x86)\Microchip\xc8\v2.10\pic\sources\c99\common\doprnt.c: 1368: int v
      +                          fprintf(FILE *fp, const char *fmt, va_list ap);C:\Program Files (x86)\Microchip\xc8\v2.1
      +                          0\pic\sources\c99\common\doprnt.c: 1369: {;C:\Program Files (x86)\Microchip\xc8\v2.10\pi
      +                          c\sources\c99\common\doprnt.c: 1371:     char *cfmt;;C:\Program Files (x86)\Microchip\xc
      +                          8\v2.10\pic\sources\c99\common\doprnt.c: 1373:     cfmt = (char *)fmt;
  1172  006DF8  C014  F018         	movff	vfprintf@fmt,vfprintf@cfmt
  1173  006DFC  C015  F019         	movff	vfprintf@fmt+1,vfprintf@cfmt+1
  1174  006E00                     
  1175                           ;C:\Program Files (x86)\Microchip\xc8\v2.10\pic\sources\c99\common\doprnt.c: 1374:     n
      +                          out = 0;
  1176  006E00  0E00               	movlw	0
  1177  006E02  0100               	movlb	0	; () banked
  1178  006E04  6F81               	movwf	(_nout+1)& (0+255),b
  1179  006E06  0E00               	movlw	0
  1180  006E08  6F80               	movwf	_nout& (0+255),b
  1181                           
  1182                           ;C:\Program Files (x86)\Microchip\xc8\v2.10\pic\sources\c99\common\doprnt.c: 1375:     w
      +                          hile (*cfmt) {
  1183  006E0A  EF1A  F037         	goto	l2906
  1184  006E0E                     l2904:
  1185                           
  1186                           ; BSR set to: 0
  1187                           ;C:\Program Files (x86)\Microchip\xc8\v2.10\pic\sources\c99\common\doprnt.c: 1376:      
      +                             nout += vfpfcnvrt(fp, &cfmt, ap);
  1188  006E0E  C012  F00C         	movff	vfprintf@fp,vfpfcnvrt@fp
  1189  006E12  C013  F00D         	movff	vfprintf@fp+1,vfpfcnvrt@fp+1
  1190  006E16  0E18               	movlw	low vfprintf@cfmt
  1191  006E18  6E0E               	movwf	vfpfcnvrt@fmt^0,c
  1192  006E1A  0E00               	movlw	high vfprintf@cfmt
  1193  006E1C  6E0F               	movwf	(vfpfcnvrt@fmt+1)^0,c
  1194  006E1E  C016  F010         	movff	vfprintf@ap,vfpfcnvrt@ap
  1195  006E22  C017  F011         	movff	vfprintf@ap+1,vfpfcnvrt@ap+1
  1196  006E26  EC38  F036         	call	_vfpfcnvrt	;wreg free
  1197  006E2A  500C               	movf	?_vfpfcnvrt^0,w,c
  1198  006E2C  0100               	movlb	0	; () banked
  1199  006E2E  2780               	addwf	_nout& (0+255),f,b
  1200  006E30  500D               	movf	(?_vfpfcnvrt+1)^0,w,c
  1201  006E32  2381               	addwfc	(_nout+1)& (0+255),f,b
  1202  006E34                     l2906:
  1203                           
  1204                           ; BSR set to: 0
  1205                           ;C:\Program Files (x86)\Microchip\xc8\v2.10\pic\sources\c99\common\doprnt.c: 1375:     w
      +                          hile (*cfmt) {
  1206  006E34  C018  FFF6         	movff	vfprintf@cfmt,tblptrl
  1207  006E38  C019  FFF7         	movff	vfprintf@cfmt+1,tblptrh
  1208  006E3C                     	if	0	;tblptru may be non-zero
  1209  006E3C                     	endif
  1210  006E3C                     	if	0	;tblptru may be non-zero
  1211  006E3C                     	endif
  1212  006E3C  0008               	tblrd		*
  1213  006E3E  50F5               	movf	tablat,w,c
  1214  006E40  0900               	iorlw	0
  1215  006E42  A4D8               	btfss	status,2,c
  1216  006E44  EF26  F037         	goto	u3151
  1217  006E48  EF28  F037         	goto	u3150
  1218  006E4C                     u3151:
  1219  006E4C  EF07  F037         	goto	l2904
  1220  006E50                     u3150:
  1221  006E50                     
  1222                           ; BSR set to: 0
  1223                           ;C:\Program Files (x86)\Microchip\xc8\v2.10\pic\sources\c99\common\doprnt.c: 1378:     r
      +                          eturn nout;
  1224  006E50  C080  F012         	movff	_nout,?_vfprintf
  1225  006E54  C081  F013         	movff	_nout+1,?_vfprintf+1
  1226  006E58                     
  1227                           ; BSR set to: 0
  1228  006E58  0012               	return		;funcret
  1229  006E5A                     __end_of_vfprintf:
  1230                           	opt callstack 0
  1231                           
  1232 ;; *************** function _vfpfcnvrt *****************
  1233 ;; Defined at:
  1234 ;;		line 670 in file "C:\Program Files (x86)\Microchip\xc8\v2.10\pic\sources\c99\common\doprnt.c"
  1235 ;; Parameters:    Size  Location     Type
  1236 ;;  fp              2   11[COMRAM] PTR struct _IO_FILE
  1237 ;;		 -> NULL(0), 
  1238 ;;  fmt             2   13[COMRAM] PTR PTR unsigned char 
  1239 ;;		 -> vfprintf@cfmt(2), 
  1240 ;;  ap              2   15[COMRAM] PTR PTR void 
  1241 ;;		 -> printf@ap(2), 
  1242 ;; Auto vars:     Size  Location     Type
  1243 ;;  llu             8    0        unsigned long long 
  1244 ;;  ll              8    0        long long 
  1245 ;;  f               4    0        long long 
  1246 ;;  vp              3    0        PTR void 
  1247 ;;  ct              3    0        unsigned char [3]
  1248 ;;  cp              3    0        PTR unsigned char 
  1249 ;;  i               2    0        int 
  1250 ;;  done            2    0        int 
  1251 ;;  c               1    0        unsigned char 
  1252 ;; Return value:  Size  Location     Type
  1253 ;;                  2   11[COMRAM] int 
  1254 ;; Registers used:
  1255 ;;		wreg, fsr1l, fsr1h, fsr2l, fsr2h, status,2, status,0, tblptrl, tblptrh, tblptru, cstack
  1256 ;; Tracked objects:
  1257 ;;		On entry : 0/0
  1258 ;;		On exit  : 0/0
  1259 ;;		Unchanged: 0/0
  1260 ;; Data sizes:     COMRAM   BANK0   BANK1   BANK2   BANK3   BANK4   BANK5   BANK6   BANK7   BANK8   BANK9  BANK10  BANK1
      +1  BANK12  BANK13  BANK14  BANK15
  1261 ;;      Params:         6       0       0       0       0       0       0       0       0       0       0       0       
      +0       0       0       0       0
  1262 ;;      Locals:         0       0       0       0       0       0       0       0       0       0       0       0       
      +0       0       0       0       0
  1263 ;;      Temps:          0       0       0       0       0       0       0       0       0       0       0       0       
      +0       0       0       0       0
  1264 ;;      Totals:         6       0       0       0       0       0       0       0       0       0       0       0       
      +0       0       0       0       0
  1265 ;;Total ram usage:        6 bytes
  1266 ;; Hardware stack levels used:    1
  1267 ;; Hardware stack levels required when called:    3
  1268 ;; This function calls:
  1269 ;;		_fputc
  1270 ;; This function is called by:
  1271 ;;		_vfprintf
  1272 ;; This function uses a non-reentrant model
  1273 ;;
  1274                           
  1275                           	psect	text6
  1276  006C70                     __ptext6:
  1277                           	opt callstack 0
  1278  006C70                     _vfpfcnvrt:
  1279                           	opt callstack 25
  1280  006C70                     
  1281                           ;C:\Program Files (x86)\Microchip\xc8\v2.10\pic\sources\c99\common\doprnt.c: 670: static
      +                           int vfpfcnvrt(FILE *fp, char *fmt[], va_list ap);C:\Program Files (x86)\Microchip\xc8\v
      +                          2.10\pic\sources\c99\common\doprnt.c: 671: {;C:\Program Files (x86)\Microchip\xc8\v2.10\
      +                          pic\sources\c99\common\doprnt.c: 672:     char c, *cp, ct[3];;C:\Program Files (x86)\Mic
      +                          rochip\xc8\v2.10\pic\sources\c99\common\doprnt.c: 673:     int done, i;;C:\Program Files
      +                           (x86)\Microchip\xc8\v2.10\pic\sources\c99\common\doprnt.c: 674:     long long ll;
  1282  006C70  C00E  FFD9         	movff	vfpfcnvrt@fmt,fsr2l
  1283  006C74  C00F  FFDA         	movff	vfpfcnvrt@fmt+1,fsr2h
  1284  006C78  CFDE FFF6          	movff	postinc2,tblptrl
  1285  006C7C  CFDD FFF7          	movff	postdec2,tblptrh
  1286  006C80                     	if	0	;tblptru may be non-zero
  1287  006C80                     	endif
  1288  006C80                     	if	0	;tblptru may be non-zero
  1289  006C80                     	endif
  1290  006C80  0008               	tblrd		*
  1291  006C82  50F5               	movf	tablat,w,c
  1292  006C84  0A25               	xorlw	37
  1293  006C86  A4D8               	btfss	status,2,c
  1294  006C88  EF48  F036         	goto	u2691
  1295  006C8C  EF4A  F036         	goto	u2690
  1296  006C90                     u2691:
  1297  006C90  EF92  F036         	goto	l2628
  1298  006C94                     u2690:
  1299  006C94                     
  1300                           ;C:\Program Files (x86)\Microchip\xc8\v2.10\pic\sources\c99\common\doprnt.c: 681:       
      +                            ++*fmt;
  1301  006C94  C00E  FFD9         	movff	vfpfcnvrt@fmt,fsr2l
  1302  006C98  C00F  FFDA         	movff	vfpfcnvrt@fmt+1,fsr2h
  1303  006C9C  2ADE               	incf	postinc2,f,c
  1304  006C9E  0E00               	movlw	0
  1305  006CA0  22DD               	addwfc	postdec2,f,c
  1306  006CA2                     
  1307                           ;C:\Program Files (x86)\Microchip\xc8\v2.10\pic\sources\c99\common\doprnt.c: 683:       
      +                            flags = width = 0;
  1308  006CA2  0E00               	movlw	0
  1309  006CA4  0100               	movlb	0	; () banked
  1310  006CA6  6F83               	movwf	(_width+1)& (0+255),b
  1311  006CA8  0E00               	movlw	0
  1312  006CAA  6F82               	movwf	_width& (0+255),b
  1313  006CAC  C082  F086         	movff	_width,_flags
  1314  006CB0  C083  F087         	movff	_width+1,_flags+1
  1315  006CB4                     
  1316                           ; BSR set to: 0
  1317                           ;C:\Program Files (x86)\Microchip\xc8\v2.10\pic\sources\c99\common\doprnt.c: 684:       
      +                            prec = -1;
  1318  006CB4  6984               	setf	_prec& (0+255),b
  1319  006CB6  6985               	setf	(_prec+1)& (0+255),b
  1320  006CB8                     
  1321                           ; BSR set to: 0
  1322                           ;C:\Program Files (x86)\Microchip\xc8\v2.10\pic\sources\c99\common\doprnt.c: 1350:      
      +                             if ((*fmt)[0] == '%') {
  1323  006CB8  C00E  FFD9         	movff	vfpfcnvrt@fmt,fsr2l
  1324  006CBC  C00F  FFDA         	movff	vfpfcnvrt@fmt+1,fsr2h
  1325  006CC0  CFDE FFF6          	movff	postinc2,tblptrl
  1326  006CC4  CFDD FFF7          	movff	postdec2,tblptrh
  1327  006CC8                     	if	0	;tblptru may be non-zero
  1328  006CC8                     	endif
  1329  006CC8                     	if	0	;tblptru may be non-zero
  1330  006CC8                     	endif
  1331  006CC8  0008               	tblrd		*
  1332  006CCA  50F5               	movf	tablat,w,c
  1333  006CCC  0A25               	xorlw	37
  1334  006CCE  A4D8               	btfss	status,2,c
  1335  006CD0  EF6C  F036         	goto	u2701
  1336  006CD4  EF6E  F036         	goto	u2700
  1337  006CD8                     u2701:
  1338  006CD8  EF85  F036         	goto	l2622
  1339  006CDC                     u2700:
  1340  006CDC                     
  1341                           ; BSR set to: 0
  1342                           ;C:\Program Files (x86)\Microchip\xc8\v2.10\pic\sources\c99\common\doprnt.c: 1351:      
      +                                 ++*fmt;
  1343  006CDC  C00E  FFD9         	movff	vfpfcnvrt@fmt,fsr2l
  1344  006CE0  C00F  FFDA         	movff	vfpfcnvrt@fmt+1,fsr2h
  1345  006CE4  2ADE               	incf	postinc2,f,c
  1346  006CE6  0E00               	movlw	0
  1347  006CE8  22DD               	addwfc	postdec2,f,c
  1348  006CEA                     
  1349                           ; BSR set to: 0
  1350                           ;C:\Program Files (x86)\Microchip\xc8\v2.10\pic\sources\c99\common\doprnt.c: 1352:      
      +                                 fputc((int)'%', fp);
  1351  006CEA  0E00               	movlw	0
  1352  006CEC  6E04               	movwf	(fputc@c+1)^0,c
  1353  006CEE  0E25               	movlw	37
  1354  006CF0  6E03               	movwf	fputc@c^0,c
  1355  006CF2  C00C  F005         	movff	vfpfcnvrt@fp,fputc@fp
  1356  006CF6  C00D  F006         	movff	vfpfcnvrt@fp+1,fputc@fp+1
  1357  006CFA  ECAE  F036         	call	_fputc	;wreg free
  1358  006CFE                     l2618:
  1359                           
  1360                           ;C:\Program Files (x86)\Microchip\xc8\v2.10\pic\sources\c99\common\doprnt.c: 1353:      
      +                                 return 1;
  1361  006CFE  0E00               	movlw	0
  1362  006D00  6E0D               	movwf	(?_vfpfcnvrt+1)^0,c
  1363  006D02  0E01               	movlw	1
  1364  006D04  6E0C               	movwf	?_vfpfcnvrt^0,c
  1365  006D06  EFAD  F036         	goto	l171
  1366  006D0A                     l2622:
  1367                           
  1368                           ; BSR set to: 0
  1369                           ;C:\Program Files (x86)\Microchip\xc8\v2.10\pic\sources\c99\common\doprnt.c: 1357:      
      +                             ++*fmt;
  1370  006D0A  C00E  FFD9         	movff	vfpfcnvrt@fmt,fsr2l
  1371  006D0E  C00F  FFDA         	movff	vfpfcnvrt@fmt+1,fsr2h
  1372  006D12  2ADE               	incf	postinc2,f,c
  1373  006D14  0E00               	movlw	0
  1374  006D16  22DD               	addwfc	postdec2,f,c
  1375  006D18                     
  1376                           ; BSR set to: 0
  1377                           ;C:\Program Files (x86)\Microchip\xc8\v2.10\pic\sources\c99\common\doprnt.c: 1358:      
      +                             return 0;
  1378  006D18  0E00               	movlw	0
  1379  006D1A  6E0D               	movwf	(?_vfpfcnvrt+1)^0,c
  1380  006D1C  0E00               	movlw	0
  1381  006D1E  6E0C               	movwf	?_vfpfcnvrt^0,c
  1382  006D20  EFAD  F036         	goto	l171
  1383  006D24                     l2628:
  1384                           
  1385                           ;C:\Program Files (x86)\Microchip\xc8\v2.10\pic\sources\c99\common\doprnt.c: 1362:     f
      +                          putc((int)(*fmt)[0], fp);
  1386  006D24  C00E  FFD9         	movff	vfpfcnvrt@fmt,fsr2l
  1387  006D28  C00F  FFDA         	movff	vfpfcnvrt@fmt+1,fsr2h
  1388  006D2C  CFDE FFF6          	movff	postinc2,tblptrl
  1389  006D30  CFDD FFF7          	movff	postdec2,tblptrh
  1390  006D34                     	if	0	;tblptru may be non-zero
  1391  006D34                     	endif
  1392  006D34                     	if	0	;tblptru may be non-zero
  1393  006D34                     	endif
  1394  006D34  0008               	tblrd		*
  1395  006D36  50F5               	movf	tablat,w,c
  1396  006D38  6E03               	movwf	fputc@c^0,c
  1397  006D3A  6A04               	clrf	(fputc@c+1)^0,c
  1398  006D3C  C00C  F005         	movff	vfpfcnvrt@fp,fputc@fp
  1399  006D40  C00D  F006         	movff	vfpfcnvrt@fp+1,fputc@fp+1
  1400  006D44  ECAE  F036         	call	_fputc	;wreg free
  1401  006D48                     
  1402                           ;C:\Program Files (x86)\Microchip\xc8\v2.10\pic\sources\c99\common\doprnt.c: 1363:     +
      +                          +*fmt;
  1403  006D48  C00E  FFD9         	movff	vfpfcnvrt@fmt,fsr2l
  1404  006D4C  C00F  FFDA         	movff	vfpfcnvrt@fmt+1,fsr2h
  1405  006D50  2ADE               	incf	postinc2,f,c
  1406  006D52  0E00               	movlw	0
  1407  006D54  22DD               	addwfc	postdec2,f,c
  1408  006D56  EF7F  F036         	goto	l2618
  1409  006D5A                     l171:
  1410  006D5A  0012               	return		;funcret
  1411  006D5C                     __end_of_vfpfcnvrt:
  1412                           	opt callstack 0
  1413                           
  1414 ;; *************** function _fputc *****************
  1415 ;; Defined at:
  1416 ;;		line 8 in file "C:\Program Files (x86)\Microchip\xc8\v2.10\pic\sources\c99\common\nf_fputc.c"
  1417 ;; Parameters:    Size  Location     Type
  1418 ;;  c               2    2[COMRAM] int 
  1419 ;;  fp              2    4[COMRAM] PTR struct _IO_FILE
  1420 ;;		 -> NULL(0), 
  1421 ;; Auto vars:     Size  Location     Type
  1422 ;;		None
  1423 ;; Return value:  Size  Location     Type
  1424 ;;                  2    2[COMRAM] int 
  1425 ;; Registers used:
  1426 ;;		wreg, fsr1l, fsr1h, fsr2l, fsr2h, status,2, status,0, cstack
  1427 ;; Tracked objects:
  1428 ;;		On entry : 0/0
  1429 ;;		On exit  : 0/0
  1430 ;;		Unchanged: 0/0
  1431 ;; Data sizes:     COMRAM   BANK0   BANK1   BANK2   BANK3   BANK4   BANK5   BANK6   BANK7   BANK8   BANK9  BANK10  BANK1
      +1  BANK12  BANK13  BANK14  BANK15
  1432 ;;      Params:         4       0       0       0       0       0       0       0       0       0       0       0       
      +0       0       0       0       0
  1433 ;;      Locals:         0       0       0       0       0       0       0       0       0       0       0       0       
      +0       0       0       0       0
  1434 ;;      Temps:          5       0       0       0       0       0       0       0       0       0       0       0       
      +0       0       0       0       0
  1435 ;;      Totals:         9       0       0       0       0       0       0       0       0       0       0       0       
      +0       0       0       0       0
  1436 ;;Total ram usage:        9 bytes
  1437 ;; Hardware stack levels used:    1
  1438 ;; Hardware stack levels required when called:    2
  1439 ;; This function calls:
  1440 ;;		_putch
  1441 ;; This function is called by:
  1442 ;;		_vfpfcnvrt
  1443 ;;		_putchar
  1444 ;; This function uses a non-reentrant model
  1445 ;;
  1446                           
  1447                           	psect	text7
  1448  006D5C                     __ptext7:
  1449                           	opt callstack 0
  1450  006D5C                     _fputc:
  1451                           	opt callstack 26
  1452  006D5C  5005               	movf	fputc@fp^0,w,c
  1453  006D5E  1006               	iorwf	(fputc@fp+1)^0,w,c
  1454  006D60  B4D8               	btfsc	status,2,c
  1455  006D62  EFB5  F036         	goto	u2261
  1456  006D66  EFB7  F036         	goto	u2260
  1457  006D6A                     u2261:
  1458  006D6A  EFC0  F036         	goto	l2390
  1459  006D6E                     u2260:
  1460  006D6E  5005               	movf	fputc@fp^0,w,c
  1461  006D70  1006               	iorwf	(fputc@fp+1)^0,w,c
  1462  006D72  A4D8               	btfss	status,2,c
  1463  006D74  EFBE  F036         	goto	u2271
  1464  006D78  EFC0  F036         	goto	u2270
  1465  006D7C                     u2271:
  1466  006D7C  EFC5  F036         	goto	l2392
  1467  006D80                     u2270:
  1468  006D80                     l2390:
  1469  006D80  5003               	movf	fputc@c^0,w,c
  1470  006D82  EC36  F038         	call	_putch
  1471  006D86  EFF8  F036         	goto	l2398
  1472  006D8A                     l2392:
  1473  006D8A  EE20 F004          	lfsr	2,4
  1474  006D8E  5005               	movf	fputc@fp^0,w,c
  1475  006D90  26D9               	addwf	fsr2l,f,c
  1476  006D92  5006               	movf	(fputc@fp+1)^0,w,c
  1477  006D94  22DA               	addwfc	fsr2h,f,c
  1478  006D96  50DE               	movf	postinc2,w,c
  1479  006D98  10DE               	iorwf	postinc2,w,c
  1480  006D9A  B4D8               	btfsc	status,2,c
  1481  006D9C  EFD2  F036         	goto	u2281
  1482  006DA0  EFD4  F036         	goto	u2280
  1483  006DA4                     u2281:
  1484  006DA4  EFEF  F036         	goto	l2396
  1485  006DA8                     u2280:
  1486  006DA8  EE20 F004          	lfsr	2,4
  1487  006DAC  5005               	movf	fputc@fp^0,w,c
  1488  006DAE  26D9               	addwf	fsr2l,f,c
  1489  006DB0  5006               	movf	(fputc@fp+1)^0,w,c
  1490  006DB2  22DA               	addwfc	fsr2h,f,c
  1491  006DB4  EE10 F002          	lfsr	1,2
  1492  006DB8  5005               	movf	fputc@fp^0,w,c
  1493  006DBA  26E1               	addwf	fsr1l,f,c
  1494  006DBC  5006               	movf	(fputc@fp+1)^0,w,c
  1495  006DBE  22E2               	addwfc	fsr1h,f,c
  1496  006DC0  50DE               	movf	postinc2,w,c
  1497  006DC2  5CE6               	subwf	postinc1,w,c
  1498  006DC4  50E6               	movf	postinc1,w,c
  1499  006DC6  0A80               	xorlw	128
  1500  006DC8  6E0B               	movwf	(??_fputc+4)^0,c
  1501  006DCA  50DE               	movf	postinc2,w,c
  1502  006DCC  0A80               	xorlw	128
  1503  006DCE  580B               	subwfb	(??_fputc+4)^0,w,c
  1504  006DD0  B0D8               	btfsc	status,0,c
  1505  006DD2  EFED  F036         	goto	u2291
  1506  006DD6  EFEF  F036         	goto	u2290
  1507  006DDA                     u2291:
  1508  006DDA  EFF8  F036         	goto	l2398
  1509  006DDE                     u2290:
  1510  006DDE                     l2396:
  1511  006DDE  EE20 F002          	lfsr	2,2
  1512  006DE2  5005               	movf	fputc@fp^0,w,c
  1513  006DE4  26D9               	addwf	fsr2l,f,c
  1514  006DE6  5006               	movf	(fputc@fp+1)^0,w,c
  1515  006DE8  22DA               	addwfc	fsr2h,f,c
  1516  006DEA  2ADE               	incf	postinc2,f,c
  1517  006DEC  0E00               	movlw	0
  1518  006DEE  22DD               	addwfc	postdec2,f,c
  1519  006DF0                     l2398:
  1520  006DF0  C003  F003         	movff	fputc@c,?_fputc
  1521  006DF4  6A04               	clrf	(?_fputc+1)^0,c
  1522  006DF6  0012               	return		;funcret
  1523  006DF8                     __end_of_fputc:
  1524                           	opt callstack 0
  1525                           
  1526 ;; *************** function _putch *****************
  1527 ;; Defined at:
  1528 ;;		line 111 in file "main.c"
  1529 ;; Parameters:    Size  Location     Type
  1530 ;;  c               1    wreg     unsigned char 
  1531 ;; Auto vars:     Size  Location     Type
  1532 ;;  c               1    1[COMRAM] unsigned char 
  1533 ;; Return value:  Size  Location     Type
  1534 ;;                  1    wreg      void 
  1535 ;; Registers used:
  1536 ;;		wreg
  1537 ;; Tracked objects:
  1538 ;;		On entry : 0/0
  1539 ;;		On exit  : 0/0
  1540 ;;		Unchanged: 0/0
  1541 ;; Data sizes:     COMRAM   BANK0   BANK1   BANK2   BANK3   BANK4   BANK5   BANK6   BANK7   BANK8   BANK9  BANK10  BANK1
      +1  BANK12  BANK13  BANK14  BANK15
  1542 ;;      Params:         0       0       0       0       0       0       0       0       0       0       0       0       
      +0       0       0       0       0
  1543 ;;      Locals:         1       0       0       0       0       0       0       0       0       0       0       0       
      +0       0       0       0       0
  1544 ;;      Temps:          0       0       0       0       0       0       0       0       0       0       0       0       
      +0       0       0       0       0
  1545 ;;      Totals:         1       0       0       0       0       0       0       0       0       0       0       0       
      +0       0       0       0       0
  1546 ;;Total ram usage:        1 bytes
  1547 ;; Hardware stack levels used:    1
  1548 ;; Hardware stack levels required when called:    1
  1549 ;; This function calls:
  1550 ;;		Nothing
  1551 ;; This function is called by:
  1552 ;;		_fputc
  1553 ;; This function uses a non-reentrant model
  1554 ;;
  1555                           
  1556                           	psect	text8
  1557  00706C                     __ptext8:
  1558                           	opt callstack 0
  1559  00706C                     _putch:
  1560                           	opt callstack 26
  1561                           
  1562                           ;incstack = 0
  1563                           ;putch@c stored from wreg
  1564  00706C  6E02               	movwf	putch@c^0,c
  1565  00706E                     l92:
  1566                           
  1567                           ;main.c: 113:             return;
  1568  00706E  A2AC               	btfss	172,1,c	;volatile
  1569  007070  EF3C  F038         	goto	u2251
  1570  007074  EF3E  F038         	goto	u2250
  1571  007078                     u2251:
  1572  007078  EF37  F038         	goto	l92
  1573  00707C                     u2250:
  1574  00707C                     
  1575                           ;main.c: 115:             if (i > 0) {
  1576  00707C  C002  FFAD         	movff	putch@c,4013	;volatile
  1577  007080  0012               	return		;funcret
  1578  007082                     __end_of_putch:
  1579                           	opt callstack 0
  1580                           
  1581 ;; *************** function _peer_gynt_mountain_king *****************
  1582 ;; Defined at:
  1583 ;;		line 187 in file "main.c"
  1584 ;; Parameters:    Size  Location     Type
  1585 ;;		None
  1586 ;; Auto vars:     Size  Location     Type
  1587 ;;		None
  1588 ;; Return value:  Size  Location     Type
  1589 ;;                  1    wreg      void 
  1590 ;; Registers used:
  1591 ;;		wreg, status,2, status,0, cstack
  1592 ;; Tracked objects:
  1593 ;;		On entry : 0/0
  1594 ;;		On exit  : 0/0
  1595 ;;		Unchanged: 0/0
  1596 ;; Data sizes:     COMRAM   BANK0   BANK1   BANK2   BANK3   BANK4   BANK5   BANK6   BANK7   BANK8   BANK9  BANK10  BANK1
      +1  BANK12  BANK13  BANK14  BANK15
  1597 ;;      Params:         0       0       0       0       0       0       0       0       0       0       0       0       
      +0       0       0       0       0
  1598 ;;      Locals:         0       0       0       0       0       0       0       0       0       0       0       0       
      +0       0       0       0       0
  1599 ;;      Temps:          0       0       0       0       0       0       0       0       0       0       0       0       
      +0       0       0       0       0
  1600 ;;      Totals:         0       0       0       0       0       0       0       0       0       0       0       0       
      +0       0       0       0       0
  1601 ;;Total ram usage:        0 bytes
  1602 ;; Hardware stack levels used:    1
  1603 ;; Hardware stack levels required when called:    4
  1604 ;; This function calls:
  1605 ;;		_Beep
  1606 ;;		_sleep
  1607 ;; This function is called by:
  1608 ;;		_main
  1609 ;; This function uses a non-reentrant model
  1610 ;;
  1611                           
  1612                           	psect	text9
  1613  00105C                     __ptext9:
  1614                           	opt callstack 0
  1615  00105C                     _peer_gynt_mountain_king:
  1616                           	opt callstack 26
  1617  00105C                     
  1618                           ;main.c: 188:  Beep(65, 106);
  1619  00105C  0E00               	movlw	0
  1620  00105E  6E3C               	movwf	(Beep@frequency+1)^0,c
  1621  001060  0EB8               	movlw	184
  1622  001062  6E3B               	movwf	Beep@frequency^0,c
  1623  001064  0E06               	movlw	6
  1624  001066  6E3E               	movwf	(Beep@duration+1)^0,c
  1625  001068  0E76               	movlw	118
  1626  00106A  6E3D               	movwf	Beep@duration^0,c
  1627  00106C  EC33  F034         	call	_Beep	;wreg free
  1628                           
  1629                           ;main.c: 189:  sleep(110);
  1630  001070  0E00               	movlw	0
  1631  001072  6E03               	movwf	(sleep@ms+1)^0,c
  1632  001074  0E54               	movlw	84
  1633  001076  6E02               	movwf	sleep@ms^0,c
  1634  001078  EC79  F037         	call	_sleep	;wreg free
  1635                           
  1636                           ;main.c: 190:  Beep(82, 213);
  1637  00107C  0E00               	movlw	0
  1638  00107E  6E3C               	movwf	(Beep@frequency+1)^0,c
  1639  001080  0E3D               	movlw	61
  1640  001082  6E3B               	movwf	Beep@frequency^0,c
  1641  001084  0E00               	movlw	0
  1642  001086  6E3E               	movwf	(Beep@duration+1)^0,c
  1643  001088  0E6A               	movlw	106
  1644  00108A  6E3D               	movwf	Beep@duration^0,c
  1645  00108C  EC33  F034         	call	_Beep	;wreg free
  1646                           
  1647                           ;main.c: 191:  sleep(220);
  1648  001090  0E00               	movlw	0
  1649  001092  6E03               	movwf	(sleep@ms+1)^0,c
  1650  001094  0E6D               	movlw	109
  1651  001096  6E02               	movwf	sleep@ms^0,c
  1652  001098  EC79  F037         	call	_sleep	;wreg free
  1653                           
  1654                           ;main.c: 192:  Beep(61, 106);
  1655  00109C  0E00               	movlw	0
  1656  00109E  6E3C               	movwf	(Beep@frequency+1)^0,c
  1657  0010A0  0E45               	movlw	69
  1658  0010A2  6E3B               	movwf	Beep@frequency^0,c
  1659  0010A4  0E00               	movlw	0
  1660  0010A6  6E3E               	movwf	(Beep@duration+1)^0,c
  1661  0010A8  0E6A               	movlw	106
  1662  0010AA  6E3D               	movwf	Beep@duration^0,c
  1663  0010AC  EC33  F034         	call	_Beep	;wreg free
  1664                           
  1665                           ;main.c: 193:  sleep(109);
  1666  0010B0  0E00               	movlw	0
  1667  0010B2  6E03               	movwf	(sleep@ms+1)^0,c
  1668  0010B4  0E6E               	movlw	110
  1669  0010B6  6E02               	movwf	sleep@ms^0,c
  1670  0010B8  EC79  F037         	call	_sleep	;wreg free
  1671                           
  1672                           ;main.c: 194:  Beep(69, 106);
  1673  0010BC  0E00               	movlw	0
  1674  0010BE  6E3C               	movwf	(Beep@frequency+1)^0,c
  1675  0010C0  0E49               	movlw	73
  1676  0010C2  6E3B               	movwf	Beep@frequency^0,c
  1677  0010C4  0E00               	movlw	0
  1678  0010C6  6E3E               	movwf	(Beep@duration+1)^0,c
  1679  0010C8  0E6A               	movlw	106
  1680  0010CA  6E3D               	movwf	Beep@duration^0,c
  1681  0010CC  EC33  F034         	call	_Beep	;wreg free
  1682                           
  1683                           ;main.c: 195:  sleep(110);
  1684  0010D0  0E00               	movlw	0
  1685  0010D2  6E03               	movwf	(sleep@ms+1)^0,c
  1686  0010D4  0E6D               	movlw	109
  1687  0010D6  6E02               	movwf	sleep@ms^0,c
  1688  0010D8  EC79  F037         	call	_sleep	;wreg free
  1689                           
  1690                           ;main.c: 196:  Beep(73, 106);
  1691  0010DC  0E00               	movlw	0
  1692  0010DE  6E3C               	movwf	(Beep@frequency+1)^0,c
  1693  0010E0  0E52               	movlw	82
  1694  0010E2  6E3B               	movwf	Beep@frequency^0,c
  1695  0010E4  0E00               	movlw	0
  1696  0010E6  6E3E               	movwf	(Beep@duration+1)^0,c
  1697  0010E8  0E6A               	movlw	106
  1698  0010EA  6E3D               	movwf	Beep@duration^0,c
  1699  0010EC  EC33  F034         	call	_Beep	;wreg free
  1700                           
  1701                           ;main.c: 197:  sleep(109);
  1702  0010F0  0E00               	movlw	0
  1703  0010F2  6E03               	movwf	(sleep@ms+1)^0,c
  1704  0010F4  0E6E               	movlw	110
  1705  0010F6  6E02               	movwf	sleep@ms^0,c
  1706  0010F8  EC79  F037         	call	_sleep	;wreg free
  1707                           
  1708                           ;main.c: 198:  Beep(82, 106);
  1709  0010FC  0E00               	movlw	0
  1710  0010FE  6E3C               	movwf	(Beep@frequency+1)^0,c
  1711  001100  0E5C               	movlw	92
  1712  001102  6E3B               	movwf	Beep@frequency^0,c
  1713  001104  0E00               	movlw	0
  1714  001106  6E3E               	movwf	(Beep@duration+1)^0,c
  1715  001108  0E6A               	movlw	106
  1716  00110A  6E3D               	movwf	Beep@duration^0,c
  1717  00110C  EC33  F034         	call	_Beep	;wreg free
  1718                           
  1719                           ;main.c: 199:  sleep(110);
  1720  001110  0E00               	movlw	0
  1721  001112  6E03               	movwf	(sleep@ms+1)^0,c
  1722  001114  0E6D               	movlw	109
  1723  001116  6E02               	movwf	sleep@ms^0,c
  1724  001118  EC79  F037         	call	_sleep	;wreg free
  1725                           
  1726                           ;main.c: 200:  Beep(92, 106);
  1727  00111C  0E00               	movlw	0
  1728  00111E  6E3C               	movwf	(Beep@frequency+1)^0,c
  1729  001120  0E49               	movlw	73
  1730  001122  6E3B               	movwf	Beep@frequency^0,c
  1731  001124  0E00               	movlw	0
  1732  001126  6E3E               	movwf	(Beep@duration+1)^0,c
  1733  001128  0E6A               	movlw	106
  1734  00112A  6E3D               	movwf	Beep@duration^0,c
  1735  00112C  EC33  F034         	call	_Beep	;wreg free
  1736                           
  1737                           ;main.c: 201:  sleep(109);
  1738  001130  0E00               	movlw	0
  1739  001132  6E03               	movwf	(sleep@ms+1)^0,c
  1740  001134  0E6E               	movlw	110
  1741  001136  6E02               	movwf	sleep@ms^0,c
  1742  001138  EC79  F037         	call	_sleep	;wreg free
  1743                           
  1744                           ;main.c: 202:  Beep(73, 106);
  1745  00113C  0E00               	movlw	0
  1746  00113E  6E3C               	movwf	(Beep@frequency+1)^0,c
  1747  001140  0E5C               	movlw	92
  1748  001142  6E3B               	movwf	Beep@frequency^0,c
  1749  001144  0E00               	movlw	0
  1750  001146  6E3E               	movwf	(Beep@duration+1)^0,c
  1751  001148  0ED5               	movlw	213
  1752  00114A  6E3D               	movwf	Beep@duration^0,c
  1753  00114C  EC33  F034         	call	_Beep	;wreg free
  1754                           
  1755                           ;main.c: 203:  sleep(110);
  1756  001150  0E00               	movlw	0
  1757  001152  6E03               	movwf	(sleep@ms+1)^0,c
  1758  001154  0EDC               	movlw	220
  1759  001156  6E02               	movwf	sleep@ms^0,c
  1760  001158  EC79  F037         	call	_sleep	;wreg free
  1761                           
  1762                           ;main.c: 204:  Beep(92, 106);
  1763  00115C  0E00               	movlw	0
  1764  00115E  6E3C               	movwf	(Beep@frequency+1)^0,c
  1765  001160  0E57               	movlw	87
  1766  001162  6E3B               	movwf	Beep@frequency^0,c
  1767  001164  0E00               	movlw	0
  1768  001166  6E3E               	movwf	(Beep@duration+1)^0,c
  1769  001168  0E6A               	movlw	106
  1770  00116A  6E3D               	movwf	Beep@duration^0,c
  1771  00116C  EC33  F034         	call	_Beep	;wreg free
  1772                           
  1773                           ;main.c: 205:  sleep(109);
  1774  001170  0E00               	movlw	0
  1775  001172  6E03               	movwf	(sleep@ms+1)^0,c
  1776  001174  0E6D               	movlw	109
  1777  001176  6E02               	movwf	sleep@ms^0,c
  1778  001178  EC79  F037         	call	_sleep	;wreg free
  1779                           
  1780                           ;main.c: 206:  Beep(123, 106);
  1781  00117C  0E00               	movlw	0
  1782  00117E  6E3C               	movwf	(Beep@frequency+1)^0,c
  1783  001180  0E45               	movlw	69
  1784  001182  6E3B               	movwf	Beep@frequency^0,c
  1785  001184  0E00               	movlw	0
  1786  001186  6E3E               	movwf	(Beep@duration+1)^0,c
  1787  001188  0E6A               	movlw	106
  1788  00118A  6E3D               	movwf	Beep@duration^0,c
  1789  00118C  EC33  F034         	call	_Beep	;wreg free
  1790                           
  1791                           ;main.c: 207:  sleep(110);
  1792  001190  0E00               	movlw	0
  1793  001192  6E03               	movwf	(sleep@ms+1)^0,c
  1794  001194  0E6E               	movlw	110
  1795  001196  6E02               	movwf	sleep@ms^0,c
  1796  001198  EC79  F037         	call	_sleep	;wreg free
  1797                           
  1798                           ;main.c: 208:  Beep(110, 106);
  1799  00119C  0E00               	movlw	0
  1800  00119E  6E3C               	movwf	(Beep@frequency+1)^0,c
  1801  0011A0  0E57               	movlw	87
  1802  0011A2  6E3B               	movwf	Beep@frequency^0,c
  1803  0011A4  0E00               	movlw	0
  1804  0011A6  6E3E               	movwf	(Beep@duration+1)^0,c
  1805  0011A8  0ED5               	movlw	213
  1806  0011AA  6E3D               	movwf	Beep@duration^0,c
  1807  0011AC  EC33  F034         	call	_Beep	;wreg free
  1808                           
  1809                           ;main.c: 209:  sleep(109);
  1810  0011B0  0E00               	movlw	0
  1811  0011B2  6E03               	movwf	(sleep@ms+1)^0,c
  1812  0011B4  0EDC               	movlw	220
  1813  0011B6  6E02               	movwf	sleep@ms^0,c
  1814  0011B8  EC79  F037         	call	_sleep	;wreg free
  1815                           
  1816                           ;main.c: 210:  Beep(92, 106);
  1817  0011BC  0E00               	movlw	0
  1818  0011BE  6E3C               	movwf	(Beep@frequency+1)^0,c
  1819  0011C0  0E52               	movlw	82
  1820  0011C2  6E3B               	movwf	Beep@frequency^0,c
  1821  0011C4  0E00               	movlw	0
  1822  0011C6  6E3E               	movwf	(Beep@duration+1)^0,c
  1823  0011C8  0E6A               	movlw	106
  1824  0011CA  6E3D               	movwf	Beep@duration^0,c
  1825  0011CC  EC33  F034         	call	_Beep	;wreg free
  1826                           
  1827                           ;main.c: 211:  sleep(110);
  1828  0011D0  0E00               	movlw	0
  1829  0011D2  6E03               	movwf	(sleep@ms+1)^0,c
  1830  0011D4  0E6D               	movlw	109
  1831  0011D6  6E02               	movwf	sleep@ms^0,c
  1832  0011D8  EC79  F037         	call	_sleep	;wreg free
  1833                           
  1834                           ;main.c: 212:  Beep(73, 106);
  1835  0011DC  0E00               	movlw	0
  1836  0011DE  6E3C               	movwf	(Beep@frequency+1)^0,c
  1837  0011E0  0E41               	movlw	65
  1838  0011E2  6E3B               	movwf	Beep@frequency^0,c
  1839  0011E4  0E00               	movlw	0
  1840  0011E6  6E3E               	movwf	(Beep@duration+1)^0,c
  1841  0011E8  0E6A               	movlw	106
  1842  0011EA  6E3D               	movwf	Beep@duration^0,c
  1843  0011EC  EC33  F034         	call	_Beep	;wreg free
  1844                           
  1845                           ;main.c: 213:  sleep(109);
  1846  0011F0  0E00               	movlw	0
  1847  0011F2  6E03               	movwf	(sleep@ms+1)^0,c
  1848  0011F4  0E6E               	movlw	110
  1849  0011F6  6E02               	movwf	sleep@ms^0,c
  1850  0011F8  EC79  F037         	call	_sleep	;wreg free
  1851                           
  1852                           ;main.c: 214:  Beep(92, 106);
  1853  0011FC  0E00               	movlw	0
  1854  0011FE  6E3C               	movwf	(Beep@frequency+1)^0,c
  1855  001200  0E52               	movlw	82
  1856  001202  6E3B               	movwf	Beep@frequency^0,c
  1857  001204  0E00               	movlw	0
  1858  001206  6E3E               	movwf	(Beep@duration+1)^0,c
  1859  001208  0ED5               	movlw	213
  1860  00120A  6E3D               	movwf	Beep@duration^0,c
  1861  00120C  EC33  F034         	call	_Beep	;wreg free
  1862                           
  1863                           ;main.c: 215:  sleep(110);
  1864  001210  0E00               	movlw	0
  1865  001212  6E03               	movwf	(sleep@ms+1)^0,c
  1866  001214  0EDC               	movlw	220
  1867  001216  6E02               	movwf	sleep@ms^0,c
  1868  001218  EC79  F037         	call	_sleep	;wreg free
  1869                           
  1870                           ;main.c: 216:  Beep(110, 781);
  1871  00121C  0E00               	movlw	0
  1872  00121E  6E3C               	movwf	(Beep@frequency+1)^0,c
  1873  001220  0E3D               	movlw	61
  1874  001222  6E3B               	movwf	Beep@frequency^0,c
  1875  001224  0E00               	movlw	0
  1876  001226  6E3E               	movwf	(Beep@duration+1)^0,c
  1877  001228  0E6A               	movlw	106
  1878  00122A  6E3D               	movwf	Beep@duration^0,c
  1879  00122C  EC33  F034         	call	_Beep	;wreg free
  1880                           
  1881                           ;main.c: 217:  sleep(84);
  1882  001230  0E00               	movlw	0
  1883  001232  6E03               	movwf	(sleep@ms+1)^0,c
  1884  001234  0E6D               	movlw	109
  1885  001236  6E02               	movwf	sleep@ms^0,c
  1886  001238  EC79  F037         	call	_sleep	;wreg free
  1887                           
  1888                           ;main.c: 218:  Beep(123, 106);
  1889  00123C  0E00               	movlw	0
  1890  00123E  6E3C               	movwf	(Beep@frequency+1)^0,c
  1891  001240  0E45               	movlw	69
  1892  001242  6E3B               	movwf	Beep@frequency^0,c
  1893  001244  0E00               	movlw	0
  1894  001246  6E3E               	movwf	(Beep@duration+1)^0,c
  1895  001248  0E6A               	movlw	106
  1896  00124A  6E3D               	movwf	Beep@duration^0,c
  1897  00124C  EC33  F034         	call	_Beep	;wreg free
  1898                           
  1899                           ;main.c: 219:  sleep(109);
  1900  001250  0E00               	movlw	0
  1901  001252  6E03               	movwf	(sleep@ms+1)^0,c
  1902  001254  0E6E               	movlw	110
  1903  001256  6E02               	movwf	sleep@ms^0,c
  1904  001258  EC79  F037         	call	_sleep	;wreg free
  1905                           
  1906                           ;main.c: 220:  Beep(138, 106);
  1907  00125C  0E00               	movlw	0
  1908  00125E  6E3C               	movwf	(Beep@frequency+1)^0,c
  1909  001260  0E49               	movlw	73
  1910  001262  6E3B               	movwf	Beep@frequency^0,c
  1911  001264  0E00               	movlw	0
  1912  001266  6E3E               	movwf	(Beep@duration+1)^0,c
  1913  001268  0E6A               	movlw	106
  1914  00126A  6E3D               	movwf	Beep@duration^0,c
  1915  00126C  EC33  F034         	call	_Beep	;wreg free
  1916                           
  1917                           ;main.c: 221:  sleep(110);
  1918  001270  0E00               	movlw	0
  1919  001272  6E03               	movwf	(sleep@ms+1)^0,c
  1920  001274  0E6D               	movlw	109
  1921  001276  6E02               	movwf	sleep@ms^0,c
  1922  001278  EC79  F037         	call	_sleep	;wreg free
  1923                           
  1924                           ;main.c: 222:  Beep(146, 106);
  1925  00127C  0E00               	movlw	0
  1926  00127E  6E3C               	movwf	(Beep@frequency+1)^0,c
  1927  001280  0E52               	movlw	82
  1928  001282  6E3B               	movwf	Beep@frequency^0,c
  1929  001284  0E00               	movlw	0
  1930  001286  6E3E               	movwf	(Beep@duration+1)^0,c
  1931  001288  0E6A               	movlw	106
  1932  00128A  6E3D               	movwf	Beep@duration^0,c
  1933  00128C  EC33  F034         	call	_Beep	;wreg free
  1934                           
  1935                           ;main.c: 223:  sleep(109);
  1936  001290  0E00               	movlw	0
  1937  001292  6E03               	movwf	(sleep@ms+1)^0,c
  1938  001294  0E6E               	movlw	110
  1939  001296  6E02               	movwf	sleep@ms^0,c
  1940  001298  EC79  F037         	call	_sleep	;wreg free
  1941                           
  1942                           ;main.c: 224:  Beep(164, 106);
  1943  00129C  0E00               	movlw	0
  1944  00129E  6E3C               	movwf	(Beep@frequency+1)^0,c
  1945  0012A0  0E5C               	movlw	92
  1946  0012A2  6E3B               	movwf	Beep@frequency^0,c
  1947  0012A4  0E00               	movlw	0
  1948  0012A6  6E3E               	movwf	(Beep@duration+1)^0,c
  1949  0012A8  0E6A               	movlw	106
  1950  0012AA  6E3D               	movwf	Beep@duration^0,c
  1951  0012AC  EC33  F034         	call	_Beep	;wreg free
  1952                           
  1953                           ;main.c: 225:  sleep(110);
  1954  0012B0  0E00               	movlw	0
  1955  0012B2  6E03               	movwf	(sleep@ms+1)^0,c
  1956  0012B4  0E6D               	movlw	109
  1957  0012B6  6E02               	movwf	sleep@ms^0,c
  1958  0012B8  EC79  F037         	call	_sleep	;wreg free
  1959                           
  1960                           ;main.c: 226:  Beep(184, 106);
  1961  0012BC  0E00               	movlw	0
  1962  0012BE  6E3C               	movwf	(Beep@frequency+1)^0,c
  1963  0012C0  0E49               	movlw	73
  1964  0012C2  6E3B               	movwf	Beep@frequency^0,c
  1965  0012C4  0E00               	movlw	0
  1966  0012C6  6E3E               	movwf	(Beep@duration+1)^0,c
  1967  0012C8  0E6A               	movlw	106
  1968  0012CA  6E3D               	movwf	Beep@duration^0,c
  1969  0012CC  EC33  F034         	call	_Beep	;wreg free
  1970                           
  1971                           ;main.c: 227:  sleep(109);
  1972  0012D0  0E00               	movlw	0
  1973  0012D2  6E03               	movwf	(sleep@ms+1)^0,c
  1974  0012D4  0E6E               	movlw	110
  1975  0012D6  6E02               	movwf	sleep@ms^0,c
  1976  0012D8  EC79  F037         	call	_sleep	;wreg free
  1977                           
  1978                           ;main.c: 228:  Beep(146, 106);
  1979  0012DC  0E00               	movlw	0
  1980  0012DE  6E3C               	movwf	(Beep@frequency+1)^0,c
  1981  0012E0  0E5C               	movlw	92
  1982  0012E2  6E3B               	movwf	Beep@frequency^0,c
  1983  0012E4  0E00               	movlw	0
  1984  0012E6  6E3E               	movwf	(Beep@duration+1)^0,c
  1985  0012E8  0E6A               	movlw	106
  1986  0012EA  6E3D               	movwf	Beep@duration^0,c
  1987  0012EC  EC33  F034         	call	_Beep	;wreg free
  1988                           
  1989                           ;main.c: 229:  sleep(110);
  1990  0012F0  0E00               	movlw	0
  1991  0012F2  6E03               	movwf	(sleep@ms+1)^0,c
  1992  0012F4  0E6D               	movlw	109
  1993  0012F6  6E02               	movwf	sleep@ms^0,c
  1994  0012F8  EC79  F037         	call	_sleep	;wreg free
  1995                           
  1996                           ;main.c: 230:  Beep(184, 213);
  1997  0012FC  0E00               	movlw	0
  1998  0012FE  6E3C               	movwf	(Beep@frequency+1)^0,c
  1999  001300  0E7B               	movlw	123
  2000  001302  6E3B               	movwf	Beep@frequency^0,c
  2001  001304  0E00               	movlw	0
  2002  001306  6E3E               	movwf	(Beep@duration+1)^0,c
  2003  001308  0E6A               	movlw	106
  2004  00130A  6E3D               	movwf	Beep@duration^0,c
  2005  00130C  EC33  F034         	call	_Beep	;wreg free
  2006                           
  2007                           ;main.c: 231:  sleep(220);
  2008  001310  0E00               	movlw	0
  2009  001312  6E03               	movwf	(sleep@ms+1)^0,c
  2010  001314  0E6E               	movlw	110
  2011  001316  6E02               	movwf	sleep@ms^0,c
  2012  001318  EC79  F037         	call	_sleep	;wreg free
  2013                           
  2014                           ;main.c: 232:  Beep(174, 106);
  2015  00131C  0E00               	movlw	0
  2016  00131E  6E3C               	movwf	(Beep@frequency+1)^0,c
  2017  001320  0E6E               	movlw	110
  2018  001322  6E3B               	movwf	Beep@frequency^0,c
  2019  001324  0E00               	movlw	0
  2020  001326  6E3E               	movwf	(Beep@duration+1)^0,c
  2021  001328  0E6A               	movlw	106
  2022  00132A  6E3D               	movwf	Beep@duration^0,c
  2023  00132C  EC33  F034         	call	_Beep	;wreg free
  2024                           
  2025                           ;main.c: 233:  sleep(109);
  2026  001330  0E00               	movlw	0
  2027  001332  6E03               	movwf	(sleep@ms+1)^0,c
  2028  001334  0E6D               	movlw	109
  2029  001336  6E02               	movwf	sleep@ms^0,c
  2030  001338  EC79  F037         	call	_sleep	;wreg free
  2031                           
  2032                           ;main.c: 234:  Beep(138, 106);
  2033  00133C  0E00               	movlw	0
  2034  00133E  6E3C               	movwf	(Beep@frequency+1)^0,c
  2035  001340  0E5C               	movlw	92
  2036  001342  6E3B               	movwf	Beep@frequency^0,c
  2037  001344  0E00               	movlw	0
  2038  001346  6E3E               	movwf	(Beep@duration+1)^0,c
  2039  001348  0E6A               	movlw	106
  2040  00134A  6E3D               	movwf	Beep@duration^0,c
  2041  00134C  EC33  F034         	call	_Beep	;wreg free
  2042                           
  2043                           ;main.c: 235:  sleep(110);
  2044  001350  0E00               	movlw	0
  2045  001352  6E03               	movwf	(sleep@ms+1)^0,c
  2046  001354  0E6E               	movlw	110
  2047  001356  6E02               	movwf	sleep@ms^0,c
  2048  001358  EC79  F037         	call	_sleep	;wreg free
  2049                           
  2050                           ;main.c: 236:  Beep(174, 213);
  2051  00135C  0E00               	movlw	0
  2052  00135E  6E3C               	movwf	(Beep@frequency+1)^0,c
  2053  001360  0E49               	movlw	73
  2054  001362  6E3B               	movwf	Beep@frequency^0,c
  2055  001364  0E00               	movlw	0
  2056  001366  6E3E               	movwf	(Beep@duration+1)^0,c
  2057  001368  0E6A               	movlw	106
  2058  00136A  6E3D               	movwf	Beep@duration^0,c
  2059  00136C  EC33  F034         	call	_Beep	;wreg free
  2060                           
  2061                           ;main.c: 237:  sleep(220);
  2062  001370  0E00               	movlw	0
  2063  001372  6E03               	movwf	(sleep@ms+1)^0,c
  2064  001374  0E6D               	movlw	109
  2065  001376  6E02               	movwf	sleep@ms^0,c
  2066  001378  EC79  F037         	call	_sleep	;wreg free
  2067                           
  2068                           ;main.c: 238:  Beep(164, 106);
  2069  00137C  0E00               	movlw	0
  2070  00137E  6E3C               	movwf	(Beep@frequency+1)^0,c
  2071  001380  0E5C               	movlw	92
  2072  001382  6E3B               	movwf	Beep@frequency^0,c
  2073  001384  0E00               	movlw	0
  2074  001386  6E3E               	movwf	(Beep@duration+1)^0,c
  2075  001388  0E6A               	movlw	106
  2076  00138A  6E3D               	movwf	Beep@duration^0,c
  2077  00138C  EC33  F034         	call	_Beep	;wreg free
  2078                           
  2079                           ;main.c: 239:  sleep(109);
  2080  001390  0E00               	movlw	0
  2081  001392  6E03               	movwf	(sleep@ms+1)^0,c
  2082  001394  0E6E               	movlw	110
  2083  001396  6E02               	movwf	sleep@ms^0,c
  2084  001398  EC79  F037         	call	_sleep	;wreg free
  2085                           
  2086                           ;main.c: 240:  Beep(130, 106);
  2087  00139C  0E00               	movlw	0
  2088  00139E  6E3C               	movwf	(Beep@frequency+1)^0,c
  2089  0013A0  0E6E               	movlw	110
  2090  0013A2  6E3B               	movwf	Beep@frequency^0,c
  2091  0013A4  0E03               	movlw	3
  2092  0013A6  6E3E               	movwf	(Beep@duration+1)^0,c
  2093  0013A8  0E0D               	movlw	13
  2094  0013AA  6E3D               	movwf	Beep@duration^0,c
  2095  0013AC  EC33  F034         	call	_Beep	;wreg free
  2096                           
  2097                           ;main.c: 241:  sleep(110);
  2098  0013B0  0E00               	movlw	0
  2099  0013B2  6E03               	movwf	(sleep@ms+1)^0,c
  2100  0013B4  0E54               	movlw	84
  2101  0013B6  6E02               	movwf	sleep@ms^0,c
  2102  0013B8  EC79  F037         	call	_sleep	;wreg free
  2103                           
  2104                           ;main.c: 242:  Beep(164, 213);
  2105  0013BC  0E00               	movlw	0
  2106  0013BE  6E3C               	movwf	(Beep@frequency+1)^0,c
  2107  0013C0  0E7B               	movlw	123
  2108  0013C2  6E3B               	movwf	Beep@frequency^0,c
  2109  0013C4  0E00               	movlw	0
  2110  0013C6  6E3E               	movwf	(Beep@duration+1)^0,c
  2111  0013C8  0E6A               	movlw	106
  2112  0013CA  6E3D               	movwf	Beep@duration^0,c
  2113  0013CC  EC33  F034         	call	_Beep	;wreg free
  2114                           
  2115                           ;main.c: 243:  sleep(220);
  2116  0013D0  0E00               	movlw	0
  2117  0013D2  6E03               	movwf	(sleep@ms+1)^0,c
  2118  0013D4  0E6D               	movlw	109
  2119  0013D6  6E02               	movwf	sleep@ms^0,c
  2120  0013D8  EC79  F037         	call	_sleep	;wreg free
  2121                           
  2122                           ;main.c: 244:  Beep(123, 106);
  2123  0013DC  0E00               	movlw	0
  2124  0013DE  6E3C               	movwf	(Beep@frequency+1)^0,c
  2125  0013E0  0E8A               	movlw	138
  2126  0013E2  6E3B               	movwf	Beep@frequency^0,c
  2127  0013E4  0E00               	movlw	0
  2128  0013E6  6E3E               	movwf	(Beep@duration+1)^0,c
  2129  0013E8  0E6A               	movlw	106
  2130  0013EA  6E3D               	movwf	Beep@duration^0,c
  2131  0013EC  EC33  F034         	call	_Beep	;wreg free
  2132                           
  2133                           ;main.c: 245:  sleep(109);
  2134  0013F0  0E00               	movlw	0
  2135  0013F2  6E03               	movwf	(sleep@ms+1)^0,c
  2136  0013F4  0E6E               	movlw	110
  2137  0013F6  6E02               	movwf	sleep@ms^0,c
  2138  0013F8  EC79  F037         	call	_sleep	;wreg free
  2139                           
  2140                           ;main.c: 246:  Beep(138, 106);
  2141  0013FC  0E00               	movlw	0
  2142  0013FE  6E3C               	movwf	(Beep@frequency+1)^0,c
  2143  001400  0E92               	movlw	146
  2144  001402  6E3B               	movwf	Beep@frequency^0,c
  2145  001404  0E00               	movlw	0
  2146  001406  6E3E               	movwf	(Beep@duration+1)^0,c
  2147  001408  0E6A               	movlw	106
  2148  00140A  6E3D               	movwf	Beep@duration^0,c
  2149  00140C  EC33  F034         	call	_Beep	;wreg free
  2150                           
  2151                           ;main.c: 247:  sleep(110);
  2152  001410  0E00               	movlw	0
  2153  001412  6E03               	movwf	(sleep@ms+1)^0,c
  2154  001414  0E6D               	movlw	109
  2155  001416  6E02               	movwf	sleep@ms^0,c
  2156  001418  EC79  F037         	call	_sleep	;wreg free
  2157                           
  2158                           ;main.c: 248:  Beep(146, 106);
  2159  00141C  0E00               	movlw	0
  2160  00141E  6E3C               	movwf	(Beep@frequency+1)^0,c
  2161  001420  0EA4               	movlw	164
  2162  001422  6E3B               	movwf	Beep@frequency^0,c
  2163  001424  0E00               	movlw	0
  2164  001426  6E3E               	movwf	(Beep@duration+1)^0,c
  2165  001428  0E6A               	movlw	106
  2166  00142A  6E3D               	movwf	Beep@duration^0,c
  2167  00142C  EC33  F034         	call	_Beep	;wreg free
  2168                           
  2169                           ;main.c: 249:  sleep(109);
  2170  001430  0E00               	movlw	0
  2171  001432  6E03               	movwf	(sleep@ms+1)^0,c
  2172  001434  0E6E               	movlw	110
  2173  001436  6E02               	movwf	sleep@ms^0,c
  2174  001438  EC79  F037         	call	_sleep	;wreg free
  2175                           
  2176                           ;main.c: 250:  Beep(164, 106);
  2177  00143C  0E00               	movlw	0
  2178  00143E  6E3C               	movwf	(Beep@frequency+1)^0,c
  2179  001440  0EB8               	movlw	184
  2180  001442  6E3B               	movwf	Beep@frequency^0,c
  2181  001444  0E00               	movlw	0
  2182  001446  6E3E               	movwf	(Beep@duration+1)^0,c
  2183  001448  0E6A               	movlw	106
  2184  00144A  6E3D               	movwf	Beep@duration^0,c
  2185  00144C  EC33  F034         	call	_Beep	;wreg free
  2186                           
  2187                           ;main.c: 251:  sleep(110);
  2188  001450  0E00               	movlw	0
  2189  001452  6E03               	movwf	(sleep@ms+1)^0,c
  2190  001454  0E6D               	movlw	109
  2191  001456  6E02               	movwf	sleep@ms^0,c
  2192  001458  EC79  F037         	call	_sleep	;wreg free
  2193                           
  2194                           ;main.c: 252:  Beep(184, 106);
  2195  00145C  0E00               	movlw	0
  2196  00145E  6E3C               	movwf	(Beep@frequency+1)^0,c
  2197  001460  0E92               	movlw	146
  2198  001462  6E3B               	movwf	Beep@frequency^0,c
  2199  001464  0E00               	movlw	0
  2200  001466  6E3E               	movwf	(Beep@duration+1)^0,c
  2201  001468  0E6A               	movlw	106
  2202  00146A  6E3D               	movwf	Beep@duration^0,c
  2203  00146C  EC33  F034         	call	_Beep	;wreg free
  2204                           
  2205                           ;main.c: 253:  sleep(109);
  2206  001470  0E00               	movlw	0
  2207  001472  6E03               	movwf	(sleep@ms+1)^0,c
  2208  001474  0E6E               	movlw	110
  2209  001476  6E02               	movwf	sleep@ms^0,c
  2210  001478  EC79  F037         	call	_sleep	;wreg free
  2211                           
  2212                           ;main.c: 254:  Beep(146, 106);
  2213  00147C  0E00               	movlw	0
  2214  00147E  6E3C               	movwf	(Beep@frequency+1)^0,c
  2215  001480  0EB8               	movlw	184
  2216  001482  6E3B               	movwf	Beep@frequency^0,c
  2217  001484  0E00               	movlw	0
  2218  001486  6E3E               	movwf	(Beep@duration+1)^0,c
  2219  001488  0ED5               	movlw	213
  2220  00148A  6E3D               	movwf	Beep@duration^0,c
  2221  00148C  EC33  F034         	call	_Beep	;wreg free
  2222                           
  2223                           ;main.c: 255:  sleep(110);
  2224  001490  0E00               	movlw	0
  2225  001492  6E03               	movwf	(sleep@ms+1)^0,c
  2226  001494  0EDC               	movlw	220
  2227  001496  6E02               	movwf	sleep@ms^0,c
  2228  001498  EC79  F037         	call	_sleep	;wreg free
  2229                           
  2230                           ;main.c: 256:  Beep(184, 106);
  2231  00149C  0E00               	movlw	0
  2232  00149E  6E3C               	movwf	(Beep@frequency+1)^0,c
  2233  0014A0  0EAE               	movlw	174
  2234  0014A2  6E3B               	movwf	Beep@frequency^0,c
  2235  0014A4  0E00               	movlw	0
  2236  0014A6  6E3E               	movwf	(Beep@duration+1)^0,c
  2237  0014A8  0E6A               	movlw	106
  2238  0014AA  6E3D               	movwf	Beep@duration^0,c
  2239  0014AC  EC33  F034         	call	_Beep	;wreg free
  2240                           
  2241                           ;main.c: 257:  sleep(109);
  2242  0014B0  0E00               	movlw	0
  2243  0014B2  6E03               	movwf	(sleep@ms+1)^0,c
  2244  0014B4  0E6D               	movlw	109
  2245  0014B6  6E02               	movwf	sleep@ms^0,c
  2246  0014B8  EC79  F037         	call	_sleep	;wreg free
  2247                           
  2248                           ;main.c: 258:  Beep(246, 106);
  2249  0014BC  0E00               	movlw	0
  2250  0014BE  6E3C               	movwf	(Beep@frequency+1)^0,c
  2251  0014C0  0E8A               	movlw	138
  2252  0014C2  6E3B               	movwf	Beep@frequency^0,c
  2253  0014C4  0E00               	movlw	0
  2254  0014C6  6E3E               	movwf	(Beep@duration+1)^0,c
  2255  0014C8  0E6A               	movlw	106
  2256  0014CA  6E3D               	movwf	Beep@duration^0,c
  2257  0014CC  EC33  F034         	call	_Beep	;wreg free
  2258                           
  2259                           ;main.c: 259:  sleep(110);
  2260  0014D0  0E00               	movlw	0
  2261  0014D2  6E03               	movwf	(sleep@ms+1)^0,c
  2262  0014D4  0E6E               	movlw	110
  2263  0014D6  6E02               	movwf	sleep@ms^0,c
  2264  0014D8  EC79  F037         	call	_sleep	;wreg free
  2265                           
  2266                           ;main.c: 260:  Beep(220, 106);
  2267  0014DC  0E00               	movlw	0
  2268  0014DE  6E3C               	movwf	(Beep@frequency+1)^0,c
  2269  0014E0  0EAE               	movlw	174
  2270  0014E2  6E3B               	movwf	Beep@frequency^0,c
  2271  0014E4  0E00               	movlw	0
  2272  0014E6  6E3E               	movwf	(Beep@duration+1)^0,c
  2273  0014E8  0ED5               	movlw	213
  2274  0014EA  6E3D               	movwf	Beep@duration^0,c
  2275  0014EC  EC33  F034         	call	_Beep	;wreg free
  2276                           
  2277                           ;main.c: 261:  sleep(109);
  2278  0014F0  0E00               	movlw	0
  2279  0014F2  6E03               	movwf	(sleep@ms+1)^0,c
  2280  0014F4  0EDC               	movlw	220
  2281  0014F6  6E02               	movwf	sleep@ms^0,c
  2282  0014F8  EC79  F037         	call	_sleep	;wreg free
  2283                           
  2284                           ;main.c: 262:  Beep(184, 106);
  2285  0014FC  0E00               	movlw	0
  2286  0014FE  6E3C               	movwf	(Beep@frequency+1)^0,c
  2287  001500  0EA4               	movlw	164
  2288  001502  6E3B               	movwf	Beep@frequency^0,c
  2289  001504  0E00               	movlw	0
  2290  001506  6E3E               	movwf	(Beep@duration+1)^0,c
  2291  001508  0E6A               	movlw	106
  2292  00150A  6E3D               	movwf	Beep@duration^0,c
  2293  00150C  EC33  F034         	call	_Beep	;wreg free
  2294                           
  2295                           ;main.c: 263:  sleep(110);
  2296  001510  0E00               	movlw	0
  2297  001512  6E03               	movwf	(sleep@ms+1)^0,c
  2298  001514  0E6D               	movlw	109
  2299  001516  6E02               	movwf	sleep@ms^0,c
  2300  001518  EC79  F037         	call	_sleep	;wreg free
  2301                           
  2302                           ;main.c: 264:  Beep(146, 106);
  2303  00151C  0E00               	movlw	0
  2304  00151E  6E3C               	movwf	(Beep@frequency+1)^0,c
  2305  001520  0E82               	movlw	130
  2306  001522  6E3B               	movwf	Beep@frequency^0,c
  2307  001524  0E00               	movlw	0
  2308  001526  6E3E               	movwf	(Beep@duration+1)^0,c
  2309  001528  0E6A               	movlw	106
  2310  00152A  6E3D               	movwf	Beep@duration^0,c
  2311  00152C  EC33  F034         	call	_Beep	;wreg free
  2312                           
  2313                           ;main.c: 265:  sleep(109);
  2314  001530  0E00               	movlw	0
  2315  001532  6E03               	movwf	(sleep@ms+1)^0,c
  2316  001534  0E6E               	movlw	110
  2317  001536  6E02               	movwf	sleep@ms^0,c
  2318  001538  EC79  F037         	call	_sleep	;wreg free
  2319                           
  2320                           ;main.c: 266:  Beep(184, 106);
  2321  00153C  0E00               	movlw	0
  2322  00153E  6E3C               	movwf	(Beep@frequency+1)^0,c
  2323  001540  0EA4               	movlw	164
  2324  001542  6E3B               	movwf	Beep@frequency^0,c
  2325  001544  0E00               	movlw	0
  2326  001546  6E3E               	movwf	(Beep@duration+1)^0,c
  2327  001548  0ED5               	movlw	213
  2328  00154A  6E3D               	movwf	Beep@duration^0,c
  2329  00154C  EC33  F034         	call	_Beep	;wreg free
  2330                           
  2331                           ;main.c: 267:  sleep(110);
  2332  001550  0E00               	movlw	0
  2333  001552  6E03               	movwf	(sleep@ms+1)^0,c
  2334  001554  0EDC               	movlw	220
  2335  001556  6E02               	movwf	sleep@ms^0,c
  2336  001558  EC79  F037         	call	_sleep	;wreg free
  2337                           
  2338                           ;main.c: 268:  Beep(110, 781);
  2339  00155C  0E00               	movlw	0
  2340  00155E  6E3C               	movwf	(Beep@frequency+1)^0,c
  2341  001560  0E7B               	movlw	123
  2342  001562  6E3B               	movwf	Beep@frequency^0,c
  2343  001564  0E00               	movlw	0
  2344  001566  6E3E               	movwf	(Beep@duration+1)^0,c
  2345  001568  0E6A               	movlw	106
  2346  00156A  6E3D               	movwf	Beep@duration^0,c
  2347  00156C  EC33  F034         	call	_Beep	;wreg free
  2348                           
  2349                           ;main.c: 269:  sleep(84);
  2350  001570  0E00               	movlw	0
  2351  001572  6E03               	movwf	(sleep@ms+1)^0,c
  2352  001574  0E6D               	movlw	109
  2353  001576  6E02               	movwf	sleep@ms^0,c
  2354  001578  EC79  F037         	call	_sleep	;wreg free
  2355                           
  2356                           ;main.c: 270:  Beep(92, 106);
  2357  00157C  0E00               	movlw	0
  2358  00157E  6E3C               	movwf	(Beep@frequency+1)^0,c
  2359  001580  0E8A               	movlw	138
  2360  001582  6E3B               	movwf	Beep@frequency^0,c
  2361  001584  0E00               	movlw	0
  2362  001586  6E3E               	movwf	(Beep@duration+1)^0,c
  2363  001588  0E6A               	movlw	106
  2364  00158A  6E3D               	movwf	Beep@duration^0,c
  2365  00158C  EC33  F034         	call	_Beep	;wreg free
  2366                           
  2367                           ;main.c: 271:  sleep(109);
  2368  001590  0E00               	movlw	0
  2369  001592  6E03               	movwf	(sleep@ms+1)^0,c
  2370  001594  0E6E               	movlw	110
  2371  001596  6E02               	movwf	sleep@ms^0,c
  2372  001598  EC79  F037         	call	_sleep	;wreg free
  2373                           
  2374                           ;main.c: 272:  Beep(103, 106);
  2375  00159C  0E00               	movlw	0
  2376  00159E  6E3C               	movwf	(Beep@frequency+1)^0,c
  2377  0015A0  0E92               	movlw	146
  2378  0015A2  6E3B               	movwf	Beep@frequency^0,c
  2379  0015A4  0E00               	movlw	0
  2380  0015A6  6E3E               	movwf	(Beep@duration+1)^0,c
  2381  0015A8  0E6A               	movlw	106
  2382  0015AA  6E3D               	movwf	Beep@duration^0,c
  2383  0015AC  EC33  F034         	call	_Beep	;wreg free
  2384                           
  2385                           ;main.c: 273:  sleep(110);
  2386  0015B0  0E00               	movlw	0
  2387  0015B2  6E03               	movwf	(sleep@ms+1)^0,c
  2388  0015B4  0E6D               	movlw	109
  2389  0015B6  6E02               	movwf	sleep@ms^0,c
  2390  0015B8  EC79  F037         	call	_sleep	;wreg free
  2391                           
  2392                           ;main.c: 274:  Beep(116, 106);
  2393  0015BC  0E00               	movlw	0
  2394  0015BE  6E3C               	movwf	(Beep@frequency+1)^0,c
  2395  0015C0  0EA4               	movlw	164
  2396  0015C2  6E3B               	movwf	Beep@frequency^0,c
  2397  0015C4  0E00               	movlw	0
  2398  0015C6  6E3E               	movwf	(Beep@duration+1)^0,c
  2399  0015C8  0E6A               	movlw	106
  2400  0015CA  6E3D               	movwf	Beep@duration^0,c
  2401  0015CC  EC33  F034         	call	_Beep	;wreg free
  2402                           
  2403                           ;main.c: 275:  sleep(109);
  2404  0015D0  0E00               	movlw	0
  2405  0015D2  6E03               	movwf	(sleep@ms+1)^0,c
  2406  0015D4  0E6E               	movlw	110
  2407  0015D6  6E02               	movwf	sleep@ms^0,c
  2408  0015D8  EC79  F037         	call	_sleep	;wreg free
  2409                           
  2410                           ;main.c: 276:  Beep(123, 106);
  2411  0015DC  0E00               	movlw	0
  2412  0015DE  6E3C               	movwf	(Beep@frequency+1)^0,c
  2413  0015E0  0EB8               	movlw	184
  2414  0015E2  6E3B               	movwf	Beep@frequency^0,c
  2415  0015E4  0E00               	movlw	0
  2416  0015E6  6E3E               	movwf	(Beep@duration+1)^0,c
  2417  0015E8  0E6A               	movlw	106
  2418  0015EA  6E3D               	movwf	Beep@duration^0,c
  2419  0015EC  EC33  F034         	call	_Beep	;wreg free
  2420                           
  2421                           ;main.c: 277:  sleep(110);
  2422  0015F0  0E00               	movlw	0
  2423  0015F2  6E03               	movwf	(sleep@ms+1)^0,c
  2424  0015F4  0E6D               	movlw	109
  2425  0015F6  6E02               	movwf	sleep@ms^0,c
  2426  0015F8  EC79  F037         	call	_sleep	;wreg free
  2427                           
  2428                           ;main.c: 278:  Beep(138, 106);
  2429  0015FC  0E00               	movlw	0
  2430  0015FE  6E3C               	movwf	(Beep@frequency+1)^0,c
  2431  001600  0E92               	movlw	146
  2432  001602  6E3B               	movwf	Beep@frequency^0,c
  2433  001604  0E00               	movlw	0
  2434  001606  6E3E               	movwf	(Beep@duration+1)^0,c
  2435  001608  0E6A               	movlw	106
  2436  00160A  6E3D               	movwf	Beep@duration^0,c
  2437  00160C  EC33  F034         	call	_Beep	;wreg free
  2438                           
  2439                           ;main.c: 279:  sleep(109);
  2440  001610  0E00               	movlw	0
  2441  001612  6E03               	movwf	(sleep@ms+1)^0,c
  2442  001614  0E6E               	movlw	110
  2443  001616  6E02               	movwf	sleep@ms^0,c
  2444  001618  EC79  F037         	call	_sleep	;wreg free
  2445                           
  2446                           ;main.c: 280:  Beep(116, 106);
  2447  00161C  0E00               	movlw	0
  2448  00161E  6E3C               	movwf	(Beep@frequency+1)^0,c
  2449  001620  0EB8               	movlw	184
  2450  001622  6E3B               	movwf	Beep@frequency^0,c
  2451  001624  0E00               	movlw	0
  2452  001626  6E3E               	movwf	(Beep@duration+1)^0,c
  2453  001628  0E6A               	movlw	106
  2454  00162A  6E3D               	movwf	Beep@duration^0,c
  2455  00162C  EC33  F034         	call	_Beep	;wreg free
  2456                           
  2457                           ;main.c: 281:  sleep(110);
  2458  001630  0E00               	movlw	0
  2459  001632  6E03               	movwf	(sleep@ms+1)^0,c
  2460  001634  0E6D               	movlw	109
  2461  001636  6E02               	movwf	sleep@ms^0,c
  2462  001638  EC79  F037         	call	_sleep	;wreg free
  2463                           
  2464                           ;main.c: 282:  Beep(138, 213);
  2465  00163C  0E00               	movlw	0
  2466  00163E  6E3C               	movwf	(Beep@frequency+1)^0,c
  2467  001640  0EF6               	movlw	246
  2468  001642  6E3B               	movwf	Beep@frequency^0,c
  2469  001644  0E00               	movlw	0
  2470  001646  6E3E               	movwf	(Beep@duration+1)^0,c
  2471  001648  0E6A               	movlw	106
  2472  00164A  6E3D               	movwf	Beep@duration^0,c
  2473  00164C  EC33  F034         	call	_Beep	;wreg free
  2474                           
  2475                           ;main.c: 283:  sleep(220);
  2476  001650  0E00               	movlw	0
  2477  001652  6E03               	movwf	(sleep@ms+1)^0,c
  2478  001654  0E6E               	movlw	110
  2479  001656  6E02               	movwf	sleep@ms^0,c
  2480  001658  EC79  F037         	call	_sleep	;wreg free
  2481                           
  2482                           ;main.c: 284:  Beep(146, 106);
  2483  00165C  0E00               	movlw	0
  2484  00165E  6E3C               	movwf	(Beep@frequency+1)^0,c
  2485  001660  0EDC               	movlw	220
  2486  001662  6E3B               	movwf	Beep@frequency^0,c
  2487  001664  0E00               	movlw	0
  2488  001666  6E3E               	movwf	(Beep@duration+1)^0,c
  2489  001668  0E6A               	movlw	106
  2490  00166A  6E3D               	movwf	Beep@duration^0,c
  2491  00166C  EC33  F034         	call	_Beep	;wreg free
  2492                           
  2493                           ;main.c: 285:  sleep(109);
  2494  001670  0E00               	movlw	0
  2495  001672  6E03               	movwf	(sleep@ms+1)^0,c
  2496  001674  0E6D               	movlw	109
  2497  001676  6E02               	movwf	sleep@ms^0,c
  2498  001678  EC79  F037         	call	_sleep	;wreg free
  2499                           
  2500                           ;main.c: 286:  Beep(116, 106);
  2501  00167C  0E00               	movlw	0
  2502  00167E  6E3C               	movwf	(Beep@frequency+1)^0,c
  2503  001680  0EB8               	movlw	184
  2504  001682  6E3B               	movwf	Beep@frequency^0,c
  2505  001684  0E00               	movlw	0
  2506  001686  6E3E               	movwf	(Beep@duration+1)^0,c
  2507  001688  0E6A               	movlw	106
  2508  00168A  6E3D               	movwf	Beep@duration^0,c
  2509  00168C  EC33  F034         	call	_Beep	;wreg free
  2510                           
  2511                           ;main.c: 287:  sleep(110);
  2512  001690  0E00               	movlw	0
  2513  001692  6E03               	movwf	(sleep@ms+1)^0,c
  2514  001694  0E6E               	movlw	110
  2515  001696  6E02               	movwf	sleep@ms^0,c
  2516  001698  EC79  F037         	call	_sleep	;wreg free
  2517                           
  2518                           ;main.c: 288:  Beep(146, 213);
  2519  00169C  0E00               	movlw	0
  2520  00169E  6E3C               	movwf	(Beep@frequency+1)^0,c
  2521  0016A0  0E92               	movlw	146
  2522  0016A2  6E3B               	movwf	Beep@frequency^0,c
  2523  0016A4  0E00               	movlw	0
  2524  0016A6  6E3E               	movwf	(Beep@duration+1)^0,c
  2525  0016A8  0E6A               	movlw	106
  2526  0016AA  6E3D               	movwf	Beep@duration^0,c
  2527  0016AC  EC33  F034         	call	_Beep	;wreg free
  2528                           
  2529                           ;main.c: 289:  sleep(220);
  2530  0016B0  0E00               	movlw	0
  2531  0016B2  6E03               	movwf	(sleep@ms+1)^0,c
  2532  0016B4  0E6D               	movlw	109
  2533  0016B6  6E02               	movwf	sleep@ms^0,c
  2534  0016B8  EC79  F037         	call	_sleep	;wreg free
  2535                           
  2536                           ;main.c: 290:  Beep(138, 106);
  2537  0016BC  0E00               	movlw	0
  2538  0016BE  6E3C               	movwf	(Beep@frequency+1)^0,c
  2539  0016C0  0EB8               	movlw	184
  2540  0016C2  6E3B               	movwf	Beep@frequency^0,c
  2541  0016C4  0E00               	movlw	0
  2542  0016C6  6E3E               	movwf	(Beep@duration+1)^0,c
  2543  0016C8  0E6A               	movlw	106
  2544  0016CA  6E3D               	movwf	Beep@duration^0,c
  2545  0016CC  EC33  F034         	call	_Beep	;wreg free
  2546                           
  2547                           ;main.c: 291:  sleep(109);
  2548  0016D0  0E00               	movlw	0
  2549  0016D2  6E03               	movwf	(sleep@ms+1)^0,c
  2550  0016D4  0E6E               	movlw	110
  2551  0016D6  6E02               	movwf	sleep@ms^0,c
  2552  0016D8  EC79  F037         	call	_sleep	;wreg free
  2553                           
  2554                           ;main.c: 292:  Beep(116, 106);
  2555  0016DC  0E00               	movlw	0
  2556  0016DE  6E3C               	movwf	(Beep@frequency+1)^0,c
  2557  0016E0  0E6E               	movlw	110
  2558  0016E2  6E3B               	movwf	Beep@frequency^0,c
  2559  0016E4  0E03               	movlw	3
  2560  0016E6  6E3E               	movwf	(Beep@duration+1)^0,c
  2561  0016E8  0E0D               	movlw	13
  2562  0016EA  6E3D               	movwf	Beep@duration^0,c
  2563  0016EC  EC33  F034         	call	_Beep	;wreg free
  2564                           
  2565                           ;main.c: 293:  sleep(110);
  2566  0016F0  0E00               	movlw	0
  2567  0016F2  6E03               	movwf	(sleep@ms+1)^0,c
  2568  0016F4  0E54               	movlw	84
  2569  0016F6  6E02               	movwf	sleep@ms^0,c
  2570  0016F8  EC79  F037         	call	_sleep	;wreg free
  2571                           
  2572                           ;main.c: 294:  Beep(138, 213);
  2573  0016FC  0E00               	movlw	0
  2574  0016FE  6E3C               	movwf	(Beep@frequency+1)^0,c
  2575  001700  0E5C               	movlw	92
  2576  001702  6E3B               	movwf	Beep@frequency^0,c
  2577  001704  0E00               	movlw	0
  2578  001706  6E3E               	movwf	(Beep@duration+1)^0,c
  2579  001708  0E6A               	movlw	106
  2580  00170A  6E3D               	movwf	Beep@duration^0,c
  2581  00170C  EC33  F034         	call	_Beep	;wreg free
  2582                           
  2583                           ;main.c: 295:  sleep(220);
  2584  001710  0E00               	movlw	0
  2585  001712  6E03               	movwf	(sleep@ms+1)^0,c
  2586  001714  0E6D               	movlw	109
  2587  001716  6E02               	movwf	sleep@ms^0,c
  2588  001718  EC79  F037         	call	_sleep	;wreg free
  2589                           
  2590                           ;main.c: 296:  Beep(92, 106);
  2591  00171C  0E00               	movlw	0
  2592  00171E  6E3C               	movwf	(Beep@frequency+1)^0,c
  2593  001720  0E67               	movlw	103
  2594  001722  6E3B               	movwf	Beep@frequency^0,c
  2595  001724  0E00               	movlw	0
  2596  001726  6E3E               	movwf	(Beep@duration+1)^0,c
  2597  001728  0E6A               	movlw	106
  2598  00172A  6E3D               	movwf	Beep@duration^0,c
  2599  00172C  EC33  F034         	call	_Beep	;wreg free
  2600                           
  2601                           ;main.c: 297:  sleep(109);
  2602  001730  0E00               	movlw	0
  2603  001732  6E03               	movwf	(sleep@ms+1)^0,c
  2604  001734  0E6E               	movlw	110
  2605  001736  6E02               	movwf	sleep@ms^0,c
  2606  001738  EC79  F037         	call	_sleep	;wreg free
  2607                           
  2608                           ;main.c: 298:  Beep(103, 106);
  2609  00173C  0E00               	movlw	0
  2610  00173E  6E3C               	movwf	(Beep@frequency+1)^0,c
  2611  001740  0E74               	movlw	116
  2612  001742  6E3B               	movwf	Beep@frequency^0,c
  2613  001744  0E00               	movlw	0
  2614  001746  6E3E               	movwf	(Beep@duration+1)^0,c
  2615  001748  0E6A               	movlw	106
  2616  00174A  6E3D               	movwf	Beep@duration^0,c
  2617  00174C  EC33  F034         	call	_Beep	;wreg free
  2618                           
  2619                           ;main.c: 299:  sleep(110);
  2620  001750  0E00               	movlw	0
  2621  001752  6E03               	movwf	(sleep@ms+1)^0,c
  2622  001754  0E6D               	movlw	109
  2623  001756  6E02               	movwf	sleep@ms^0,c
  2624  001758  EC79  F037         	call	_sleep	;wreg free
  2625                           
  2626                           ;main.c: 300:  Beep(116, 106);
  2627  00175C  0E00               	movlw	0
  2628  00175E  6E3C               	movwf	(Beep@frequency+1)^0,c
  2629  001760  0E7B               	movlw	123
  2630  001762  6E3B               	movwf	Beep@frequency^0,c
  2631  001764  0E00               	movlw	0
  2632  001766  6E3E               	movwf	(Beep@duration+1)^0,c
  2633  001768  0E6A               	movlw	106
  2634  00176A  6E3D               	movwf	Beep@duration^0,c
  2635  00176C  EC33  F034         	call	_Beep	;wreg free
  2636                           
  2637                           ;main.c: 301:  sleep(109);
  2638  001770  0E00               	movlw	0
  2639  001772  6E03               	movwf	(sleep@ms+1)^0,c
  2640  001774  0E6E               	movlw	110
  2641  001776  6E02               	movwf	sleep@ms^0,c
  2642  001778  EC79  F037         	call	_sleep	;wreg free
  2643                           
  2644                           ;main.c: 302:  Beep(123, 106);
  2645  00177C  0E00               	movlw	0
  2646  00177E  6E3C               	movwf	(Beep@frequency+1)^0,c
  2647  001780  0E8A               	movlw	138
  2648  001782  6E3B               	movwf	Beep@frequency^0,c
  2649  001784  0E00               	movlw	0
  2650  001786  6E3E               	movwf	(Beep@duration+1)^0,c
  2651  001788  0E6A               	movlw	106
  2652  00178A  6E3D               	movwf	Beep@duration^0,c
  2653  00178C  EC33  F034         	call	_Beep	;wreg free
  2654                           
  2655                           ;main.c: 303:  sleep(110);
  2656  001790  0E00               	movlw	0
  2657  001792  6E03               	movwf	(sleep@ms+1)^0,c
  2658  001794  0E6D               	movlw	109
  2659  001796  6E02               	movwf	sleep@ms^0,c
  2660  001798  EC79  F037         	call	_sleep	;wreg free
  2661                           
  2662                           ;main.c: 304:  Beep(138, 106);
  2663  00179C  0E00               	movlw	0
  2664  00179E  6E3C               	movwf	(Beep@frequency+1)^0,c
  2665  0017A0  0E74               	movlw	116
  2666  0017A2  6E3B               	movwf	Beep@frequency^0,c
  2667  0017A4  0E00               	movlw	0
  2668  0017A6  6E3E               	movwf	(Beep@duration+1)^0,c
  2669  0017A8  0E6A               	movlw	106
  2670  0017AA  6E3D               	movwf	Beep@duration^0,c
  2671  0017AC  EC33  F034         	call	_Beep	;wreg free
  2672                           
  2673                           ;main.c: 305:  sleep(109);
  2674  0017B0  0E00               	movlw	0
  2675  0017B2  6E03               	movwf	(sleep@ms+1)^0,c
  2676  0017B4  0E6E               	movlw	110
  2677  0017B6  6E02               	movwf	sleep@ms^0,c
  2678  0017B8  EC79  F037         	call	_sleep	;wreg free
  2679                           
  2680                           ;main.c: 306:  Beep(116, 106);
  2681  0017BC  0E00               	movlw	0
  2682  0017BE  6E3C               	movwf	(Beep@frequency+1)^0,c
  2683  0017C0  0E8A               	movlw	138
  2684  0017C2  6E3B               	movwf	Beep@frequency^0,c
  2685  0017C4  0E00               	movlw	0
  2686  0017C6  6E3E               	movwf	(Beep@duration+1)^0,c
  2687  0017C8  0ED5               	movlw	213
  2688  0017CA  6E3D               	movwf	Beep@duration^0,c
  2689  0017CC  EC33  F034         	call	_Beep	;wreg free
  2690                           
  2691                           ;main.c: 307:  sleep(110);
  2692  0017D0  0E00               	movlw	0
  2693  0017D2  6E03               	movwf	(sleep@ms+1)^0,c
  2694  0017D4  0EDC               	movlw	220
  2695  0017D6  6E02               	movwf	sleep@ms^0,c
  2696  0017D8  EC79  F037         	call	_sleep	;wreg free
  2697                           
  2698                           ;main.c: 308:  Beep(138, 213);
  2699  0017DC  0E00               	movlw	0
  2700  0017DE  6E3C               	movwf	(Beep@frequency+1)^0,c
  2701  0017E0  0E92               	movlw	146
  2702  0017E2  6E3B               	movwf	Beep@frequency^0,c
  2703  0017E4  0E00               	movlw	0
  2704  0017E6  6E3E               	movwf	(Beep@duration+1)^0,c
  2705  0017E8  0E6A               	movlw	106
  2706  0017EA  6E3D               	movwf	Beep@duration^0,c
  2707  0017EC  EC33  F034         	call	_Beep	;wreg free
  2708                           
  2709                           ;main.c: 309:  sleep(220);
  2710  0017F0  0E00               	movlw	0
  2711  0017F2  6E03               	movwf	(sleep@ms+1)^0,c
  2712  0017F4  0E6D               	movlw	109
  2713  0017F6  6E02               	movwf	sleep@ms^0,c
  2714  0017F8  EC79  F037         	call	_sleep	;wreg free
  2715                           
  2716                           ;main.c: 310:  Beep(146, 106);
  2717  0017FC  0E00               	movlw	0
  2718  0017FE  6E3C               	movwf	(Beep@frequency+1)^0,c
  2719  001800  0E74               	movlw	116
  2720  001802  6E3B               	movwf	Beep@frequency^0,c
  2721  001804  0E00               	movlw	0
  2722  001806  6E3E               	movwf	(Beep@duration+1)^0,c
  2723  001808  0E6A               	movlw	106
  2724  00180A  6E3D               	movwf	Beep@duration^0,c
  2725  00180C  EC33  F034         	call	_Beep	;wreg free
  2726                           
  2727                           ;main.c: 311:  sleep(109);
  2728  001810  0E00               	movlw	0
  2729  001812  6E03               	movwf	(sleep@ms+1)^0,c
  2730  001814  0E6E               	movlw	110
  2731  001816  6E02               	movwf	sleep@ms^0,c
  2732  001818  EC79  F037         	call	_sleep	;wreg free
  2733                           
  2734                           ;main.c: 312:  Beep(116, 106);
  2735  00181C  0E00               	movlw	0
  2736  00181E  6E3C               	movwf	(Beep@frequency+1)^0,c
  2737  001820  0E92               	movlw	146
  2738  001822  6E3B               	movwf	Beep@frequency^0,c
  2739  001824  0E00               	movlw	0
  2740  001826  6E3E               	movwf	(Beep@duration+1)^0,c
  2741  001828  0ED5               	movlw	213
  2742  00182A  6E3D               	movwf	Beep@duration^0,c
  2743  00182C  EC33  F034         	call	_Beep	;wreg free
  2744                           
  2745                           ;main.c: 313:  sleep(110);
  2746  001830  0E00               	movlw	0
  2747  001832  6E03               	movwf	(sleep@ms+1)^0,c
  2748  001834  0EDC               	movlw	220
  2749  001836  6E02               	movwf	sleep@ms^0,c
  2750  001838  EC79  F037         	call	_sleep	;wreg free
  2751                           
  2752                           ;main.c: 314:  Beep(146, 213);
  2753  00183C  0E00               	movlw	0
  2754  00183E  6E3C               	movwf	(Beep@frequency+1)^0,c
  2755  001840  0E8A               	movlw	138
  2756  001842  6E3B               	movwf	Beep@frequency^0,c
  2757  001844  0E00               	movlw	0
  2758  001846  6E3E               	movwf	(Beep@duration+1)^0,c
  2759  001848  0E6A               	movlw	106
  2760  00184A  6E3D               	movwf	Beep@duration^0,c
  2761  00184C  EC33  F034         	call	_Beep	;wreg free
  2762                           
  2763                           ;main.c: 315:  sleep(220);
  2764  001850  0E00               	movlw	0
  2765  001852  6E03               	movwf	(sleep@ms+1)^0,c
  2766  001854  0E6D               	movlw	109
  2767  001856  6E02               	movwf	sleep@ms^0,c
  2768  001858  EC79  F037         	call	_sleep	;wreg free
  2769                           
  2770                           ;main.c: 316:  Beep(138, 425);
  2771  00185C  0E00               	movlw	0
  2772  00185E  6E3C               	movwf	(Beep@frequency+1)^0,c
  2773  001860  0E74               	movlw	116
  2774  001862  6E3B               	movwf	Beep@frequency^0,c
  2775  001864  0E00               	movlw	0
  2776  001866  6E3E               	movwf	(Beep@duration+1)^0,c
  2777  001868  0E6A               	movlw	106
  2778  00186A  6E3D               	movwf	Beep@duration^0,c
  2779  00186C  EC33  F034         	call	_Beep	;wreg free
  2780                           
  2781                           ;main.c: 317:  sleep(8);
  2782  001870  0E00               	movlw	0
  2783  001872  6E03               	movwf	(sleep@ms+1)^0,c
  2784  001874  0E6E               	movlw	110
  2785  001876  6E02               	movwf	sleep@ms^0,c
  2786  001878  EC79  F037         	call	_sleep	;wreg free
  2787                           
  2788                           ;main.c: 318:  Beep(69, 213);
  2789  00187C  0E00               	movlw	0
  2790  00187E  6E3C               	movwf	(Beep@frequency+1)^0,c
  2791  001880  0E8A               	movlw	138
  2792  001882  6E3B               	movwf	Beep@frequency^0,c
  2793  001884  0E00               	movlw	0
  2794  001886  6E3E               	movwf	(Beep@duration+1)^0,c
  2795  001888  0ED5               	movlw	213
  2796  00188A  6E3D               	movwf	Beep@duration^0,c
  2797  00188C  EC33  F034         	call	_Beep	;wreg free
  2798                           
  2799                           ;main.c: 319:  sleep(220);
  2800  001890  0E00               	movlw	0
  2801  001892  6E03               	movwf	(sleep@ms+1)^0,c
  2802  001894  0EDC               	movlw	220
  2803  001896  6E02               	movwf	sleep@ms^0,c
  2804  001898  EC79  F037         	call	_sleep	;wreg free
  2805                           
  2806                           ;main.c: 320:  Beep(184, 106);
  2807  00189C  0E00               	movlw	0
  2808  00189E  6E3C               	movwf	(Beep@frequency+1)^0,c
  2809  0018A0  0E5C               	movlw	92
  2810  0018A2  6E3B               	movwf	Beep@frequency^0,c
  2811  0018A4  0E00               	movlw	0
  2812  0018A6  6E3E               	movwf	(Beep@duration+1)^0,c
  2813  0018A8  0E6A               	movlw	106
  2814  0018AA  6E3D               	movwf	Beep@duration^0,c
  2815  0018AC  EC33  F034         	call	_Beep	;wreg free
  2816                           
  2817                           ;main.c: 321:  sleep(109);
  2818  0018B0  0E00               	movlw	0
  2819  0018B2  6E03               	movwf	(sleep@ms+1)^0,c
  2820  0018B4  0E6D               	movlw	109
  2821  0018B6  6E02               	movwf	sleep@ms^0,c
  2822  0018B8  EC79  F037         	call	_sleep	;wreg free
  2823                           
  2824                           ;main.c: 322:  Beep(207, 106);
  2825  0018BC  0E00               	movlw	0
  2826  0018BE  6E3C               	movwf	(Beep@frequency+1)^0,c
  2827  0018C0  0E67               	movlw	103
  2828  0018C2  6E3B               	movwf	Beep@frequency^0,c
  2829  0018C4  0E00               	movlw	0
  2830  0018C6  6E3E               	movwf	(Beep@duration+1)^0,c
  2831  0018C8  0E6A               	movlw	106
  2832  0018CA  6E3D               	movwf	Beep@duration^0,c
  2833  0018CC  EC33  F034         	call	_Beep	;wreg free
  2834                           
  2835                           ;main.c: 323:  sleep(110);
  2836  0018D0  0E00               	movlw	0
  2837  0018D2  6E03               	movwf	(sleep@ms+1)^0,c
  2838  0018D4  0E6E               	movlw	110
  2839  0018D6  6E02               	movwf	sleep@ms^0,c
  2840  0018D8  EC79  F037         	call	_sleep	;wreg free
  2841                           
  2842                           ;main.c: 324:  Beep(233, 106);
  2843  0018DC  0E00               	movlw	0
  2844  0018DE  6E3C               	movwf	(Beep@frequency+1)^0,c
  2845  0018E0  0E74               	movlw	116
  2846  0018E2  6E3B               	movwf	Beep@frequency^0,c
  2847  0018E4  0E00               	movlw	0
  2848  0018E6  6E3E               	movwf	(Beep@duration+1)^0,c
  2849  0018E8  0E6A               	movlw	106
  2850  0018EA  6E3D               	movwf	Beep@duration^0,c
  2851  0018EC  EC33  F034         	call	_Beep	;wreg free
  2852                           
  2853                           ;main.c: 325:  sleep(109);
  2854  0018F0  0E00               	movlw	0
  2855  0018F2  6E03               	movwf	(sleep@ms+1)^0,c
  2856  0018F4  0E6D               	movlw	109
  2857  0018F6  6E02               	movwf	sleep@ms^0,c
  2858  0018F8  EC79  F037         	call	_sleep	;wreg free
  2859                           
  2860                           ;main.c: 326:  Beep(246, 106);
  2861  0018FC  0E00               	movlw	0
  2862  0018FE  6E3C               	movwf	(Beep@frequency+1)^0,c
  2863  001900  0E7B               	movlw	123
  2864  001902  6E3B               	movwf	Beep@frequency^0,c
  2865  001904  0E00               	movlw	0
  2866  001906  6E3E               	movwf	(Beep@duration+1)^0,c
  2867  001908  0E6A               	movlw	106
  2868  00190A  6E3D               	movwf	Beep@duration^0,c
  2869  00190C  EC33  F034         	call	_Beep	;wreg free
  2870                           
  2871                           ;main.c: 327:  sleep(110);
  2872  001910  0E00               	movlw	0
  2873  001912  6E03               	movwf	(sleep@ms+1)^0,c
  2874  001914  0E6E               	movlw	110
  2875  001916  6E02               	movwf	sleep@ms^0,c
  2876  001918  EC79  F037         	call	_sleep	;wreg free
  2877                           
  2878                           ;main.c: 328:  Beep(277, 106);
  2879  00191C  0E00               	movlw	0
  2880  00191E  6E3C               	movwf	(Beep@frequency+1)^0,c
  2881  001920  0E8A               	movlw	138
  2882  001922  6E3B               	movwf	Beep@frequency^0,c
  2883  001924  0E00               	movlw	0
  2884  001926  6E3E               	movwf	(Beep@duration+1)^0,c
  2885  001928  0E6A               	movlw	106
  2886  00192A  6E3D               	movwf	Beep@duration^0,c
  2887  00192C  EC33  F034         	call	_Beep	;wreg free
  2888                           
  2889                           ;main.c: 329:  sleep(109);
  2890  001930  0E00               	movlw	0
  2891  001932  6E03               	movwf	(sleep@ms+1)^0,c
  2892  001934  0E6D               	movlw	109
  2893  001936  6E02               	movwf	sleep@ms^0,c
  2894  001938  EC79  F037         	call	_sleep	;wreg free
  2895                           
  2896                           ;main.c: 330:  Beep(233, 106);
  2897  00193C  0E00               	movlw	0
  2898  00193E  6E3C               	movwf	(Beep@frequency+1)^0,c
  2899  001940  0E74               	movlw	116
  2900  001942  6E3B               	movwf	Beep@frequency^0,c
  2901  001944  0E00               	movlw	0
  2902  001946  6E3E               	movwf	(Beep@duration+1)^0,c
  2903  001948  0E6A               	movlw	106
  2904  00194A  6E3D               	movwf	Beep@duration^0,c
  2905  00194C  EC33  F034         	call	_Beep	;wreg free
  2906                           
  2907                           ;main.c: 331:  sleep(110);
  2908  001950  0E00               	movlw	0
  2909  001952  6E03               	movwf	(sleep@ms+1)^0,c
  2910  001954  0E6E               	movlw	110
  2911  001956  6E02               	movwf	sleep@ms^0,c
  2912  001958  EC79  F037         	call	_sleep	;wreg free
  2913                           
  2914                           ;main.c: 332:  Beep(277, 213);
  2915  00195C  0E00               	movlw	0
  2916  00195E  6E3C               	movwf	(Beep@frequency+1)^0,c
  2917  001960  0E8A               	movlw	138
  2918  001962  6E3B               	movwf	Beep@frequency^0,c
  2919  001964  0E00               	movlw	0
  2920  001966  6E3E               	movwf	(Beep@duration+1)^0,c
  2921  001968  0ED5               	movlw	213
  2922  00196A  6E3D               	movwf	Beep@duration^0,c
  2923  00196C  EC33  F034         	call	_Beep	;wreg free
  2924                           
  2925                           ;main.c: 333:  sleep(220);
  2926  001970  0E00               	movlw	0
  2927  001972  6E03               	movwf	(sleep@ms+1)^0,c
  2928  001974  0EDC               	movlw	220
  2929  001976  6E02               	movwf	sleep@ms^0,c
  2930  001978  EC79  F037         	call	_sleep	;wreg free
  2931                           
  2932                           ;main.c: 334:  Beep(293, 106);
  2933  00197C  0E00               	movlw	0
  2934  00197E  6E3C               	movwf	(Beep@frequency+1)^0,c
  2935  001980  0E92               	movlw	146
  2936  001982  6E3B               	movwf	Beep@frequency^0,c
  2937  001984  0E00               	movlw	0
  2938  001986  6E3E               	movwf	(Beep@duration+1)^0,c
  2939  001988  0E6A               	movlw	106
  2940  00198A  6E3D               	movwf	Beep@duration^0,c
  2941  00198C  EC33  F034         	call	_Beep	;wreg free
  2942                           
  2943                           ;main.c: 335:  sleep(109);
  2944  001990  0E00               	movlw	0
  2945  001992  6E03               	movwf	(sleep@ms+1)^0,c
  2946  001994  0E6D               	movlw	109
  2947  001996  6E02               	movwf	sleep@ms^0,c
  2948  001998  EC79  F037         	call	_sleep	;wreg free
  2949                           
  2950                           ;main.c: 336:  Beep(233, 106);
  2951  00199C  0E00               	movlw	0
  2952  00199E  6E3C               	movwf	(Beep@frequency+1)^0,c
  2953  0019A0  0E74               	movlw	116
  2954  0019A2  6E3B               	movwf	Beep@frequency^0,c
  2955  0019A4  0E00               	movlw	0
  2956  0019A6  6E3E               	movwf	(Beep@duration+1)^0,c
  2957  0019A8  0E6A               	movlw	106
  2958  0019AA  6E3D               	movwf	Beep@duration^0,c
  2959  0019AC  EC33  F034         	call	_Beep	;wreg free
  2960                           
  2961                           ;main.c: 337:  sleep(110);
  2962  0019B0  0E00               	movlw	0
  2963  0019B2  6E03               	movwf	(sleep@ms+1)^0,c
  2964  0019B4  0E6E               	movlw	110
  2965  0019B6  6E02               	movwf	sleep@ms^0,c
  2966  0019B8  EC79  F037         	call	_sleep	;wreg free
  2967                           
  2968                           ;main.c: 338:  Beep(293, 213);
  2969  0019BC  0E00               	movlw	0
  2970  0019BE  6E3C               	movwf	(Beep@frequency+1)^0,c
  2971  0019C0  0E92               	movlw	146
  2972  0019C2  6E3B               	movwf	Beep@frequency^0,c
  2973  0019C4  0E00               	movlw	0
  2974  0019C6  6E3E               	movwf	(Beep@duration+1)^0,c
  2975  0019C8  0ED5               	movlw	213
  2976  0019CA  6E3D               	movwf	Beep@duration^0,c
  2977  0019CC  EC33  F034         	call	_Beep	;wreg free
  2978                           
  2979                           ;main.c: 339:  sleep(220);
  2980  0019D0  0E00               	movlw	0
  2981  0019D2  6E03               	movwf	(sleep@ms+1)^0,c
  2982  0019D4  0EDC               	movlw	220
  2983  0019D6  6E02               	movwf	sleep@ms^0,c
  2984  0019D8  EC79  F037         	call	_sleep	;wreg free
  2985                           
  2986                           ;main.c: 340:  Beep(277, 106);
  2987  0019DC  0E00               	movlw	0
  2988  0019DE  6E3C               	movwf	(Beep@frequency+1)^0,c
  2989  0019E0  0E8A               	movlw	138
  2990  0019E2  6E3B               	movwf	Beep@frequency^0,c
  2991  0019E4  0E01               	movlw	1
  2992  0019E6  6E3E               	movwf	(Beep@duration+1)^0,c
  2993  0019E8  0EA9               	movlw	169
  2994  0019EA  6E3D               	movwf	Beep@duration^0,c
  2995  0019EC  EC33  F034         	call	_Beep	;wreg free
  2996                           
  2997                           ;main.c: 341:  sleep(109);
  2998  0019F0  0E00               	movlw	0
  2999  0019F2  6E03               	movwf	(sleep@ms+1)^0,c
  3000  0019F4  0E08               	movlw	8
  3001  0019F6  6E02               	movwf	sleep@ms^0,c
  3002  0019F8  EC79  F037         	call	_sleep	;wreg free
  3003                           
  3004                           ;main.c: 342:  Beep(233, 106);
  3005  0019FC  0E00               	movlw	0
  3006  0019FE  6E3C               	movwf	(Beep@frequency+1)^0,c
  3007  001A00  0E45               	movlw	69
  3008  001A02  6E3B               	movwf	Beep@frequency^0,c
  3009  001A04  0E00               	movlw	0
  3010  001A06  6E3E               	movwf	(Beep@duration+1)^0,c
  3011  001A08  0ED5               	movlw	213
  3012  001A0A  6E3D               	movwf	Beep@duration^0,c
  3013  001A0C  EC33  F034         	call	_Beep	;wreg free
  3014                           
  3015                           ;main.c: 343:  sleep(110);
  3016  001A10  0E00               	movlw	0
  3017  001A12  6E03               	movwf	(sleep@ms+1)^0,c
  3018  001A14  0EDC               	movlw	220
  3019  001A16  6E02               	movwf	sleep@ms^0,c
  3020  001A18  EC79  F037         	call	_sleep	;wreg free
  3021                           
  3022                           ;main.c: 344:  Beep(277, 213);
  3023  001A1C  0E00               	movlw	0
  3024  001A1E  6E3C               	movwf	(Beep@frequency+1)^0,c
  3025  001A20  0EB8               	movlw	184
  3026  001A22  6E3B               	movwf	Beep@frequency^0,c
  3027  001A24  0E00               	movlw	0
  3028  001A26  6E3E               	movwf	(Beep@duration+1)^0,c
  3029  001A28  0E6A               	movlw	106
  3030  001A2A  6E3D               	movwf	Beep@duration^0,c
  3031  001A2C  EC33  F034         	call	_Beep	;wreg free
  3032                           
  3033                           ;main.c: 345:  sleep(220);
  3034  001A30  0E00               	movlw	0
  3035  001A32  6E03               	movwf	(sleep@ms+1)^0,c
  3036  001A34  0E6D               	movlw	109
  3037  001A36  6E02               	movwf	sleep@ms^0,c
  3038  001A38  EC79  F037         	call	_sleep	;wreg free
  3039                           
  3040                           ;main.c: 346:  Beep(184, 106);
  3041  001A3C  0E00               	movlw	0
  3042  001A3E  6E3C               	movwf	(Beep@frequency+1)^0,c
  3043  001A40  0ECF               	movlw	207
  3044  001A42  6E3B               	movwf	Beep@frequency^0,c
  3045  001A44  0E00               	movlw	0
  3046  001A46  6E3E               	movwf	(Beep@duration+1)^0,c
  3047  001A48  0E6A               	movlw	106
  3048  001A4A  6E3D               	movwf	Beep@duration^0,c
  3049  001A4C  EC33  F034         	call	_Beep	;wreg free
  3050                           
  3051                           ;main.c: 347:  sleep(109);
  3052  001A50  0E00               	movlw	0
  3053  001A52  6E03               	movwf	(sleep@ms+1)^0,c
  3054  001A54  0E6E               	movlw	110
  3055  001A56  6E02               	movwf	sleep@ms^0,c
  3056  001A58  EC79  F037         	call	_sleep	;wreg free
  3057                           
  3058                           ;main.c: 348:  Beep(207, 106);
  3059  001A5C  0E00               	movlw	0
  3060  001A5E  6E3C               	movwf	(Beep@frequency+1)^0,c
  3061  001A60  0EE9               	movlw	233
  3062  001A62  6E3B               	movwf	Beep@frequency^0,c
  3063  001A64  0E00               	movlw	0
  3064  001A66  6E3E               	movwf	(Beep@duration+1)^0,c
  3065  001A68  0E6A               	movlw	106
  3066  001A6A  6E3D               	movwf	Beep@duration^0,c
  3067  001A6C  EC33  F034         	call	_Beep	;wreg free
  3068                           
  3069                           ;main.c: 349:  sleep(110);
  3070  001A70  0E00               	movlw	0
  3071  001A72  6E03               	movwf	(sleep@ms+1)^0,c
  3072  001A74  0E6D               	movlw	109
  3073  001A76  6E02               	movwf	sleep@ms^0,c
  3074  001A78  EC79  F037         	call	_sleep	;wreg free
  3075                           
  3076                           ;main.c: 350:  Beep(233, 106);
  3077  001A7C  0E00               	movlw	0
  3078  001A7E  6E3C               	movwf	(Beep@frequency+1)^0,c
  3079  001A80  0EF6               	movlw	246
  3080  001A82  6E3B               	movwf	Beep@frequency^0,c
  3081  001A84  0E00               	movlw	0
  3082  001A86  6E3E               	movwf	(Beep@duration+1)^0,c
  3083  001A88  0E6A               	movlw	106
  3084  001A8A  6E3D               	movwf	Beep@duration^0,c
  3085  001A8C  EC33  F034         	call	_Beep	;wreg free
  3086                           
  3087                           ;main.c: 351:  sleep(109);
  3088  001A90  0E00               	movlw	0
  3089  001A92  6E03               	movwf	(sleep@ms+1)^0,c
  3090  001A94  0E6E               	movlw	110
  3091  001A96  6E02               	movwf	sleep@ms^0,c
  3092  001A98  EC79  F037         	call	_sleep	;wreg free
  3093                           
  3094                           ;main.c: 352:  Beep(246, 106);
  3095  001A9C  0E01               	movlw	1
  3096  001A9E  6E3C               	movwf	(Beep@frequency+1)^0,c
  3097  001AA0  0E15               	movlw	21
  3098  001AA2  6E3B               	movwf	Beep@frequency^0,c
  3099  001AA4  0E00               	movlw	0
  3100  001AA6  6E3E               	movwf	(Beep@duration+1)^0,c
  3101  001AA8  0E6A               	movlw	106
  3102  001AAA  6E3D               	movwf	Beep@duration^0,c
  3103  001AAC  EC33  F034         	call	_Beep	;wreg free
  3104                           
  3105                           ;main.c: 353:  sleep(110);
  3106  001AB0  0E00               	movlw	0
  3107  001AB2  6E03               	movwf	(sleep@ms+1)^0,c
  3108  001AB4  0E6D               	movlw	109
  3109  001AB6  6E02               	movwf	sleep@ms^0,c
  3110  001AB8  EC79  F037         	call	_sleep	;wreg free
  3111                           
  3112                           ;main.c: 354:  Beep(277, 106);
  3113  001ABC  0E00               	movlw	0
  3114  001ABE  6E3C               	movwf	(Beep@frequency+1)^0,c
  3115  001AC0  0EE9               	movlw	233
  3116  001AC2  6E3B               	movwf	Beep@frequency^0,c
  3117  001AC4  0E00               	movlw	0
  3118  001AC6  6E3E               	movwf	(Beep@duration+1)^0,c
  3119  001AC8  0E6A               	movlw	106
  3120  001ACA  6E3D               	movwf	Beep@duration^0,c
  3121  001ACC  EC33  F034         	call	_Beep	;wreg free
  3122                           
  3123                           ;main.c: 355:  sleep(109);
  3124  001AD0  0E00               	movlw	0
  3125  001AD2  6E03               	movwf	(sleep@ms+1)^0,c
  3126  001AD4  0E6E               	movlw	110
  3127  001AD6  6E02               	movwf	sleep@ms^0,c
  3128  001AD8  EC79  F037         	call	_sleep	;wreg free
  3129                           
  3130                           ;main.c: 356:  Beep(233, 106);
  3131  001ADC  0E01               	movlw	1
  3132  001ADE  6E3C               	movwf	(Beep@frequency+1)^0,c
  3133  001AE0  0E15               	movlw	21
  3134  001AE2  6E3B               	movwf	Beep@frequency^0,c
  3135  001AE4  0E00               	movlw	0
  3136  001AE6  6E3E               	movwf	(Beep@duration+1)^0,c
  3137  001AE8  0ED5               	movlw	213
  3138  001AEA  6E3D               	movwf	Beep@duration^0,c
  3139  001AEC  EC33  F034         	call	_Beep	;wreg free
  3140                           
  3141                           ;main.c: 357:  sleep(110);
  3142  001AF0  0E00               	movlw	0
  3143  001AF2  6E03               	movwf	(sleep@ms+1)^0,c
  3144  001AF4  0EDC               	movlw	220
  3145  001AF6  6E02               	movwf	sleep@ms^0,c
  3146  001AF8  EC79  F037         	call	_sleep	;wreg free
  3147                           
  3148                           ;main.c: 358:  Beep(277, 213);
  3149  001AFC  0E01               	movlw	1
  3150  001AFE  6E3C               	movwf	(Beep@frequency+1)^0,c
  3151  001B00  0E25               	movlw	37
  3152  001B02  6E3B               	movwf	Beep@frequency^0,c
  3153  001B04  0E00               	movlw	0
  3154  001B06  6E3E               	movwf	(Beep@duration+1)^0,c
  3155  001B08  0E6A               	movlw	106
  3156  001B0A  6E3D               	movwf	Beep@duration^0,c
  3157  001B0C  EC33  F034         	call	_Beep	;wreg free
  3158                           
  3159                           ;main.c: 359:  sleep(220);
  3160  001B10  0E00               	movlw	0
  3161  001B12  6E03               	movwf	(sleep@ms+1)^0,c
  3162  001B14  0E6D               	movlw	109
  3163  001B16  6E02               	movwf	sleep@ms^0,c
  3164  001B18  EC79  F037         	call	_sleep	;wreg free
  3165                           
  3166                           ;main.c: 360:  Beep(293, 106);
  3167  001B1C  0E00               	movlw	0
  3168  001B1E  6E3C               	movwf	(Beep@frequency+1)^0,c
  3169  001B20  0EE9               	movlw	233
  3170  001B22  6E3B               	movwf	Beep@frequency^0,c
  3171  001B24  0E00               	movlw	0
  3172  001B26  6E3E               	movwf	(Beep@duration+1)^0,c
  3173  001B28  0E6A               	movlw	106
  3174  001B2A  6E3D               	movwf	Beep@duration^0,c
  3175  001B2C  EC33  F034         	call	_Beep	;wreg free
  3176                           
  3177                           ;main.c: 361:  sleep(109);
  3178  001B30  0E00               	movlw	0
  3179  001B32  6E03               	movwf	(sleep@ms+1)^0,c
  3180  001B34  0E6E               	movlw	110
  3181  001B36  6E02               	movwf	sleep@ms^0,c
  3182  001B38  EC79  F037         	call	_sleep	;wreg free
  3183                           
  3184                           ;main.c: 362:  Beep(233, 106);
  3185  001B3C  0E01               	movlw	1
  3186  001B3E  6E3C               	movwf	(Beep@frequency+1)^0,c
  3187  001B40  0E25               	movlw	37
  3188  001B42  6E3B               	movwf	Beep@frequency^0,c
  3189  001B44  0E00               	movlw	0
  3190  001B46  6E3E               	movwf	(Beep@duration+1)^0,c
  3191  001B48  0ED5               	movlw	213
  3192  001B4A  6E3D               	movwf	Beep@duration^0,c
  3193  001B4C  EC33  F034         	call	_Beep	;wreg free
  3194                           
  3195                           ;main.c: 363:  sleep(110);
  3196  001B50  0E00               	movlw	0
  3197  001B52  6E03               	movwf	(sleep@ms+1)^0,c
  3198  001B54  0EDC               	movlw	220
  3199  001B56  6E02               	movwf	sleep@ms^0,c
  3200  001B58  EC79  F037         	call	_sleep	;wreg free
  3201                           
  3202                           ;main.c: 364:  Beep(293, 213);
  3203  001B5C  0E01               	movlw	1
  3204  001B5E  6E3C               	movwf	(Beep@frequency+1)^0,c
  3205  001B60  0E15               	movlw	21
  3206  001B62  6E3B               	movwf	Beep@frequency^0,c
  3207  001B64  0E00               	movlw	0
  3208  001B66  6E3E               	movwf	(Beep@duration+1)^0,c
  3209  001B68  0E6A               	movlw	106
  3210  001B6A  6E3D               	movwf	Beep@duration^0,c
  3211  001B6C  EC33  F034         	call	_Beep	;wreg free
  3212                           
  3213                           ;main.c: 365:  sleep(220);
  3214  001B70  0E00               	movlw	0
  3215  001B72  6E03               	movwf	(sleep@ms+1)^0,c
  3216  001B74  0E6D               	movlw	109
  3217  001B76  6E02               	movwf	sleep@ms^0,c
  3218  001B78  EC79  F037         	call	_sleep	;wreg free
  3219                           
  3220                           ;main.c: 366:  Beep(277, 425);
  3221  001B7C  0E00               	movlw	0
  3222  001B7E  6E3C               	movwf	(Beep@frequency+1)^0,c
  3223  001B80  0EE9               	movlw	233
  3224  001B82  6E3B               	movwf	Beep@frequency^0,c
  3225  001B84  0E00               	movlw	0
  3226  001B86  6E3E               	movwf	(Beep@duration+1)^0,c
  3227  001B88  0E6A               	movlw	106
  3228  001B8A  6E3D               	movwf	Beep@duration^0,c
  3229  001B8C  EC33  F034         	call	_Beep	;wreg free
  3230                           
  3231                           ;main.c: 367:  sleep(8);
  3232  001B90  0E00               	movlw	0
  3233  001B92  6E03               	movwf	(sleep@ms+1)^0,c
  3234  001B94  0E6E               	movlw	110
  3235  001B96  6E02               	movwf	sleep@ms^0,c
  3236  001B98  EC79  F037         	call	_sleep	;wreg free
  3237                           
  3238                           ;main.c: 368:  Beep(69, 213);
  3239  001B9C  0E01               	movlw	1
  3240  001B9E  6E3C               	movwf	(Beep@frequency+1)^0,c
  3241  001BA0  0E15               	movlw	21
  3242  001BA2  6E3B               	movwf	Beep@frequency^0,c
  3243  001BA4  0E00               	movlw	0
  3244  001BA6  6E3E               	movwf	(Beep@duration+1)^0,c
  3245  001BA8  0ED5               	movlw	213
  3246  001BAA  6E3D               	movwf	Beep@duration^0,c
  3247  001BAC  EC33  F034         	call	_Beep	;wreg free
  3248                           
  3249                           ;main.c: 369:  sleep(220);
  3250  001BB0  0E00               	movlw	0
  3251  001BB2  6E03               	movwf	(sleep@ms+1)^0,c
  3252  001BB4  0EDC               	movlw	220
  3253  001BB6  6E02               	movwf	sleep@ms^0,c
  3254  001BB8  EC79  F037         	call	_sleep	;wreg free
  3255                           
  3256                           ;main.c: 370:  Beep(61, 103);
  3257  001BBC  0E00               	movlw	0
  3258  001BBE  6E3C               	movwf	(Beep@frequency+1)^0,c
  3259  001BC0  0EB8               	movlw	184
  3260  001BC2  6E3B               	movwf	Beep@frequency^0,c
  3261  001BC4  0E00               	movlw	0
  3262  001BC6  6E3E               	movwf	(Beep@duration+1)^0,c
  3263  001BC8  0E6A               	movlw	106
  3264  001BCA  6E3D               	movwf	Beep@duration^0,c
  3265  001BCC  EC33  F034         	call	_Beep	;wreg free
  3266                           
  3267                           ;main.c: 371:  sleep(106);
  3268  001BD0  0E00               	movlw	0
  3269  001BD2  6E03               	movwf	(sleep@ms+1)^0,c
  3270  001BD4  0E6D               	movlw	109
  3271  001BD6  6E02               	movwf	sleep@ms^0,c
  3272  001BD8  EC79  F037         	call	_sleep	;wreg free
  3273                           
  3274                           ;main.c: 372:  Beep(69, 103);
  3275  001BDC  0E00               	movlw	0
  3276  001BDE  6E3C               	movwf	(Beep@frequency+1)^0,c
  3277  001BE0  0ECF               	movlw	207
  3278  001BE2  6E3B               	movwf	Beep@frequency^0,c
  3279  001BE4  0E00               	movlw	0
  3280  001BE6  6E3E               	movwf	(Beep@duration+1)^0,c
  3281  001BE8  0E6A               	movlw	106
  3282  001BEA  6E3D               	movwf	Beep@duration^0,c
  3283  001BEC  EC33  F034         	call	_Beep	;wreg free
  3284                           
  3285                           ;main.c: 373:  sleep(107);
  3286  001BF0  0E00               	movlw	0
  3287  001BF2  6E03               	movwf	(sleep@ms+1)^0,c
  3288  001BF4  0E6E               	movlw	110
  3289  001BF6  6E02               	movwf	sleep@ms^0,c
  3290  001BF8  EC79  F037         	call	_sleep	;wreg free
  3291                           
  3292                           ;main.c: 374:  Beep(73, 103);
  3293  001BFC  0E00               	movlw	0
  3294  001BFE  6E3C               	movwf	(Beep@frequency+1)^0,c
  3295  001C00  0EE9               	movlw	233
  3296  001C02  6E3B               	movwf	Beep@frequency^0,c
  3297  001C04  0E00               	movlw	0
  3298  001C06  6E3E               	movwf	(Beep@duration+1)^0,c
  3299  001C08  0E6A               	movlw	106
  3300  001C0A  6E3D               	movwf	Beep@duration^0,c
  3301  001C0C  EC33  F034         	call	_Beep	;wreg free
  3302                           
  3303                           ;main.c: 375:  sleep(106);
  3304  001C10  0E00               	movlw	0
  3305  001C12  6E03               	movwf	(sleep@ms+1)^0,c
  3306  001C14  0E6D               	movlw	109
  3307  001C16  6E02               	movwf	sleep@ms^0,c
  3308  001C18  EC79  F037         	call	_sleep	;wreg free
  3309                           
  3310                           ;main.c: 376:  Beep(82, 103);
  3311  001C1C  0E00               	movlw	0
  3312  001C1E  6E3C               	movwf	(Beep@frequency+1)^0,c
  3313  001C20  0EF6               	movlw	246
  3314  001C22  6E3B               	movwf	Beep@frequency^0,c
  3315  001C24  0E00               	movlw	0
  3316  001C26  6E3E               	movwf	(Beep@duration+1)^0,c
  3317  001C28  0E6A               	movlw	106
  3318  001C2A  6E3D               	movwf	Beep@duration^0,c
  3319  001C2C  EC33  F034         	call	_Beep	;wreg free
  3320                           
  3321                           ;main.c: 377:  sleep(107);
  3322  001C30  0E00               	movlw	0
  3323  001C32  6E03               	movwf	(sleep@ms+1)^0,c
  3324  001C34  0E6E               	movlw	110
  3325  001C36  6E02               	movwf	sleep@ms^0,c
  3326  001C38  EC79  F037         	call	_sleep	;wreg free
  3327                           
  3328                           ;main.c: 378:  Beep(92, 103);
  3329  001C3C  0E01               	movlw	1
  3330  001C3E  6E3C               	movwf	(Beep@frequency+1)^0,c
  3331  001C40  0E15               	movlw	21
  3332  001C42  6E3B               	movwf	Beep@frequency^0,c
  3333  001C44  0E00               	movlw	0
  3334  001C46  6E3E               	movwf	(Beep@duration+1)^0,c
  3335  001C48  0E6A               	movlw	106
  3336  001C4A  6E3D               	movwf	Beep@duration^0,c
  3337  001C4C  EC33  F034         	call	_Beep	;wreg free
  3338                           
  3339                           ;main.c: 379:  sleep(106);
  3340  001C50  0E00               	movlw	0
  3341  001C52  6E03               	movwf	(sleep@ms+1)^0,c
  3342  001C54  0E6D               	movlw	109
  3343  001C56  6E02               	movwf	sleep@ms^0,c
  3344  001C58  EC79  F037         	call	_sleep	;wreg free
  3345                           
  3346                           ;main.c: 380:  Beep(73, 103);
  3347  001C5C  0E00               	movlw	0
  3348  001C5E  6E3C               	movwf	(Beep@frequency+1)^0,c
  3349  001C60  0EE9               	movlw	233
  3350  001C62  6E3B               	movwf	Beep@frequency^0,c
  3351  001C64  0E00               	movlw	0
  3352  001C66  6E3E               	movwf	(Beep@duration+1)^0,c
  3353  001C68  0E6A               	movlw	106
  3354  001C6A  6E3D               	movwf	Beep@duration^0,c
  3355  001C6C  EC33  F034         	call	_Beep	;wreg free
  3356                           
  3357                           ;main.c: 381:  sleep(107);
  3358  001C70  0E00               	movlw	0
  3359  001C72  6E03               	movwf	(sleep@ms+1)^0,c
  3360  001C74  0E6E               	movlw	110
  3361  001C76  6E02               	movwf	sleep@ms^0,c
  3362  001C78  EC79  F037         	call	_sleep	;wreg free
  3363                           
  3364                           ;main.c: 382:  Beep(92, 207);
  3365  001C7C  0E01               	movlw	1
  3366  001C7E  6E3C               	movwf	(Beep@frequency+1)^0,c
  3367  001C80  0E15               	movlw	21
  3368  001C82  6E3B               	movwf	Beep@frequency^0,c
  3369  001C84  0E00               	movlw	0
  3370  001C86  6E3E               	movwf	(Beep@duration+1)^0,c
  3371  001C88  0ED5               	movlw	213
  3372  001C8A  6E3D               	movwf	Beep@duration^0,c
  3373  001C8C  EC33  F034         	call	_Beep	;wreg free
  3374                           
  3375                           ;main.c: 383:  sleep(214);
  3376  001C90  0E00               	movlw	0
  3377  001C92  6E03               	movwf	(sleep@ms+1)^0,c
  3378  001C94  0EDC               	movlw	220
  3379  001C96  6E02               	movwf	sleep@ms^0,c
  3380  001C98  EC79  F037         	call	_sleep	;wreg free
  3381                           
  3382                           ;main.c: 384:  Beep(87, 103);
  3383  001C9C  0E01               	movlw	1
  3384  001C9E  6E3C               	movwf	(Beep@frequency+1)^0,c
  3385  001CA0  0E25               	movlw	37
  3386  001CA2  6E3B               	movwf	Beep@frequency^0,c
  3387  001CA4  0E00               	movlw	0
  3388  001CA6  6E3E               	movwf	(Beep@duration+1)^0,c
  3389  001CA8  0E6A               	movlw	106
  3390  001CAA  6E3D               	movwf	Beep@duration^0,c
  3391  001CAC  EC33  F034         	call	_Beep	;wreg free
  3392                           
  3393                           ;main.c: 385:  sleep(106);
  3394  001CB0  0E00               	movlw	0
  3395  001CB2  6E03               	movwf	(sleep@ms+1)^0,c
  3396  001CB4  0E6D               	movlw	109
  3397  001CB6  6E02               	movwf	sleep@ms^0,c
  3398  001CB8  EC79  F037         	call	_sleep	;wreg free
  3399                           
  3400                           ;main.c: 386:  Beep(69, 103);
  3401  001CBC  0E00               	movlw	0
  3402  001CBE  6E3C               	movwf	(Beep@frequency+1)^0,c
  3403  001CC0  0EE9               	movlw	233
  3404  001CC2  6E3B               	movwf	Beep@frequency^0,c
  3405  001CC4  0E00               	movlw	0
  3406  001CC6  6E3E               	movwf	(Beep@duration+1)^0,c
  3407  001CC8  0E6A               	movlw	106
  3408  001CCA  6E3D               	movwf	Beep@duration^0,c
  3409  001CCC  EC33  F034         	call	_Beep	;wreg free
  3410                           
  3411                           ;main.c: 387:  sleep(107);
  3412  001CD0  0E00               	movlw	0
  3413  001CD2  6E03               	movwf	(sleep@ms+1)^0,c
  3414  001CD4  0E6E               	movlw	110
  3415  001CD6  6E02               	movwf	sleep@ms^0,c
  3416  001CD8  EC79  F037         	call	_sleep	;wreg free
  3417                           
  3418                           ;main.c: 388:  Beep(87, 207);
  3419  001CDC  0E01               	movlw	1
  3420  001CDE  6E3C               	movwf	(Beep@frequency+1)^0,c
  3421  001CE0  0E25               	movlw	37
  3422  001CE2  6E3B               	movwf	Beep@frequency^0,c
  3423  001CE4  0E00               	movlw	0
  3424  001CE6  6E3E               	movwf	(Beep@duration+1)^0,c
  3425  001CE8  0ED5               	movlw	213
  3426  001CEA  6E3D               	movwf	Beep@duration^0,c
  3427  001CEC  EC33  F034         	call	_Beep	;wreg free
  3428                           
  3429                           ;main.c: 389:  sleep(214);
  3430  001CF0  0E00               	movlw	0
  3431  001CF2  6E03               	movwf	(sleep@ms+1)^0,c
  3432  001CF4  0EDC               	movlw	220
  3433  001CF6  6E02               	movwf	sleep@ms^0,c
  3434  001CF8  EC79  F037         	call	_sleep	;wreg free
  3435                           
  3436                           ;main.c: 390:  Beep(82, 103);
  3437  001CFC  0E01               	movlw	1
  3438  001CFE  6E3C               	movwf	(Beep@frequency+1)^0,c
  3439  001D00  0E15               	movlw	21
  3440  001D02  6E3B               	movwf	Beep@frequency^0,c
  3441  001D04  0E01               	movlw	1
  3442  001D06  6E3E               	movwf	(Beep@duration+1)^0,c
  3443  001D08  0EA9               	movlw	169
  3444  001D0A  6E3D               	movwf	Beep@duration^0,c
  3445  001D0C  EC33  F034         	call	_Beep	;wreg free
  3446                           
  3447                           ;main.c: 391:  sleep(106);
  3448  001D10  0E00               	movlw	0
  3449  001D12  6E03               	movwf	(sleep@ms+1)^0,c
  3450  001D14  0E08               	movlw	8
  3451  001D16  6E02               	movwf	sleep@ms^0,c
  3452  001D18  EC79  F037         	call	_sleep	;wreg free
  3453                           
  3454                           ;main.c: 392:  Beep(65, 103);
  3455  001D1C  0E00               	movlw	0
  3456  001D1E  6E3C               	movwf	(Beep@frequency+1)^0,c
  3457  001D20  0E45               	movlw	69
  3458  001D22  6E3B               	movwf	Beep@frequency^0,c
  3459  001D24  0E00               	movlw	0
  3460  001D26  6E3E               	movwf	(Beep@duration+1)^0,c
  3461  001D28  0ED5               	movlw	213
  3462  001D2A  6E3D               	movwf	Beep@duration^0,c
  3463  001D2C  EC33  F034         	call	_Beep	;wreg free
  3464                           
  3465                           ;main.c: 393:  sleep(107);
  3466  001D30  0E00               	movlw	0
  3467  001D32  6E03               	movwf	(sleep@ms+1)^0,c
  3468  001D34  0EDC               	movlw	220
  3469  001D36  6E02               	movwf	sleep@ms^0,c
  3470  001D38  EC79  F037         	call	_sleep	;wreg free
  3471                           
  3472                           ;main.c: 394:  Beep(82, 207);
  3473  001D3C  0E00               	movlw	0
  3474  001D3E  6E3C               	movwf	(Beep@frequency+1)^0,c
  3475  001D40  0E3D               	movlw	61
  3476  001D42  6E3B               	movwf	Beep@frequency^0,c
  3477  001D44  0E00               	movlw	0
  3478  001D46  6E3E               	movwf	(Beep@duration+1)^0,c
  3479  001D48  0E67               	movlw	103
  3480  001D4A  6E3D               	movwf	Beep@duration^0,c
  3481  001D4C  EC33  F034         	call	_Beep	;wreg free
  3482                           
  3483                           ;main.c: 395:  sleep(214);
  3484  001D50  0E00               	movlw	0
  3485  001D52  6E03               	movwf	(sleep@ms+1)^0,c
  3486  001D54  0E6A               	movlw	106
  3487  001D56  6E02               	movwf	sleep@ms^0,c
  3488  001D58  EC79  F037         	call	_sleep	;wreg free
  3489                           
  3490                           ;main.c: 396:  Beep(61, 103);
  3491  001D5C  0E00               	movlw	0
  3492  001D5E  6E3C               	movwf	(Beep@frequency+1)^0,c
  3493  001D60  0E45               	movlw	69
  3494  001D62  6E3B               	movwf	Beep@frequency^0,c
  3495  001D64  0E00               	movlw	0
  3496  001D66  6E3E               	movwf	(Beep@duration+1)^0,c
  3497  001D68  0E67               	movlw	103
  3498  001D6A  6E3D               	movwf	Beep@duration^0,c
  3499  001D6C  EC33  F034         	call	_Beep	;wreg free
  3500                           
  3501                           ;main.c: 397:  sleep(106);
  3502  001D70  0E00               	movlw	0
  3503  001D72  6E03               	movwf	(sleep@ms+1)^0,c
  3504  001D74  0E6B               	movlw	107
  3505  001D76  6E02               	movwf	sleep@ms^0,c
  3506  001D78  EC79  F037         	call	_sleep	;wreg free
  3507                           
  3508                           ;main.c: 398:  Beep(69, 103);
  3509  001D7C  0E00               	movlw	0
  3510  001D7E  6E3C               	movwf	(Beep@frequency+1)^0,c
  3511  001D80  0E49               	movlw	73
  3512  001D82  6E3B               	movwf	Beep@frequency^0,c
  3513  001D84  0E00               	movlw	0
  3514  001D86  6E3E               	movwf	(Beep@duration+1)^0,c
  3515  001D88  0E67               	movlw	103
  3516  001D8A  6E3D               	movwf	Beep@duration^0,c
  3517  001D8C  EC33  F034         	call	_Beep	;wreg free
  3518                           
  3519                           ;main.c: 399:  sleep(107);
  3520  001D90  0E00               	movlw	0
  3521  001D92  6E03               	movwf	(sleep@ms+1)^0,c
  3522  001D94  0E6A               	movlw	106
  3523  001D96  6E02               	movwf	sleep@ms^0,c
  3524  001D98  EC79  F037         	call	_sleep	;wreg free
  3525                           
  3526                           ;main.c: 400:  Beep(73, 103);
  3527  001D9C  0E00               	movlw	0
  3528  001D9E  6E3C               	movwf	(Beep@frequency+1)^0,c
  3529  001DA0  0E52               	movlw	82
  3530  001DA2  6E3B               	movwf	Beep@frequency^0,c
  3531  001DA4  0E00               	movlw	0
  3532  001DA6  6E3E               	movwf	(Beep@duration+1)^0,c
  3533  001DA8  0E67               	movlw	103
  3534  001DAA  6E3D               	movwf	Beep@duration^0,c
  3535  001DAC  EC33  F034         	call	_Beep	;wreg free
  3536                           
  3537                           ;main.c: 401:  sleep(106);
  3538  001DB0  0E00               	movlw	0
  3539  001DB2  6E03               	movwf	(sleep@ms+1)^0,c
  3540  001DB4  0E6B               	movlw	107
  3541  001DB6  6E02               	movwf	sleep@ms^0,c
  3542  001DB8  EC79  F037         	call	_sleep	;wreg free
  3543                           
  3544                           ;main.c: 402:  Beep(82, 103);
  3545  001DBC  0E00               	movlw	0
  3546  001DBE  6E3C               	movwf	(Beep@frequency+1)^0,c
  3547  001DC0  0E5C               	movlw	92
  3548  001DC2  6E3B               	movwf	Beep@frequency^0,c
  3549  001DC4  0E00               	movlw	0
  3550  001DC6  6E3E               	movwf	(Beep@duration+1)^0,c
  3551  001DC8  0E67               	movlw	103
  3552  001DCA  6E3D               	movwf	Beep@duration^0,c
  3553  001DCC  EC33  F034         	call	_Beep	;wreg free
  3554                           
  3555                           ;main.c: 403:  sleep(107);
  3556  001DD0  0E00               	movlw	0
  3557  001DD2  6E03               	movwf	(sleep@ms+1)^0,c
  3558  001DD4  0E6A               	movlw	106
  3559  001DD6  6E02               	movwf	sleep@ms^0,c
  3560  001DD8  EC79  F037         	call	_sleep	;wreg free
  3561                           
  3562                           ;main.c: 404:  Beep(92, 103);
  3563  001DDC  0E00               	movlw	0
  3564  001DDE  6E3C               	movwf	(Beep@frequency+1)^0,c
  3565  001DE0  0E49               	movlw	73
  3566  001DE2  6E3B               	movwf	Beep@frequency^0,c
  3567  001DE4  0E00               	movlw	0
  3568  001DE6  6E3E               	movwf	(Beep@duration+1)^0,c
  3569  001DE8  0E67               	movlw	103
  3570  001DEA  6E3D               	movwf	Beep@duration^0,c
  3571  001DEC  EC33  F034         	call	_Beep	;wreg free
  3572                           
  3573                           ;main.c: 405:  sleep(106);
  3574  001DF0  0E00               	movlw	0
  3575  001DF2  6E03               	movwf	(sleep@ms+1)^0,c
  3576  001DF4  0E6B               	movlw	107
  3577  001DF6  6E02               	movwf	sleep@ms^0,c
  3578  001DF8  EC79  F037         	call	_sleep	;wreg free
  3579                           
  3580                           ;main.c: 406:  Beep(73, 103);
  3581  001DFC  0E00               	movlw	0
  3582  001DFE  6E3C               	movwf	(Beep@frequency+1)^0,c
  3583  001E00  0E5C               	movlw	92
  3584  001E02  6E3B               	movwf	Beep@frequency^0,c
  3585  001E04  0E00               	movlw	0
  3586  001E06  6E3E               	movwf	(Beep@duration+1)^0,c
  3587  001E08  0ECF               	movlw	207
  3588  001E0A  6E3D               	movwf	Beep@duration^0,c
  3589  001E0C  EC33  F034         	call	_Beep	;wreg free
  3590                           
  3591                           ;main.c: 407:  sleep(107);
  3592  001E10  0E00               	movlw	0
  3593  001E12  6E03               	movwf	(sleep@ms+1)^0,c
  3594  001E14  0ED6               	movlw	214
  3595  001E16  6E02               	movwf	sleep@ms^0,c
  3596  001E18  EC79  F037         	call	_sleep	;wreg free
  3597                           
  3598                           ;main.c: 408:  Beep(92, 103);
  3599  001E1C  0E00               	movlw	0
  3600  001E1E  6E3C               	movwf	(Beep@frequency+1)^0,c
  3601  001E20  0E57               	movlw	87
  3602  001E22  6E3B               	movwf	Beep@frequency^0,c
  3603  001E24  0E00               	movlw	0
  3604  001E26  6E3E               	movwf	(Beep@duration+1)^0,c
  3605  001E28  0E67               	movlw	103
  3606  001E2A  6E3D               	movwf	Beep@duration^0,c
  3607  001E2C  EC33  F034         	call	_Beep	;wreg free
  3608                           
  3609                           ;main.c: 409:  sleep(106);
  3610  001E30  0E00               	movlw	0
  3611  001E32  6E03               	movwf	(sleep@ms+1)^0,c
  3612  001E34  0E6A               	movlw	106
  3613  001E36  6E02               	movwf	sleep@ms^0,c
  3614  001E38  EC79  F037         	call	_sleep	;wreg free
  3615                           
  3616                           ;main.c: 410:  Beep(123, 103);
  3617  001E3C  0E00               	movlw	0
  3618  001E3E  6E3C               	movwf	(Beep@frequency+1)^0,c
  3619  001E40  0E45               	movlw	69
  3620  001E42  6E3B               	movwf	Beep@frequency^0,c
  3621  001E44  0E00               	movlw	0
  3622  001E46  6E3E               	movwf	(Beep@duration+1)^0,c
  3623  001E48  0E67               	movlw	103
  3624  001E4A  6E3D               	movwf	Beep@duration^0,c
  3625  001E4C  EC33  F034         	call	_Beep	;wreg free
  3626                           
  3627                           ;main.c: 411:  sleep(107);
  3628  001E50  0E00               	movlw	0
  3629  001E52  6E03               	movwf	(sleep@ms+1)^0,c
  3630  001E54  0E6B               	movlw	107
  3631  001E56  6E02               	movwf	sleep@ms^0,c
  3632  001E58  EC79  F037         	call	_sleep	;wreg free
  3633                           
  3634                           ;main.c: 412:  Beep(110, 103);
  3635  001E5C  0E00               	movlw	0
  3636  001E5E  6E3C               	movwf	(Beep@frequency+1)^0,c
  3637  001E60  0E57               	movlw	87
  3638  001E62  6E3B               	movwf	Beep@frequency^0,c
  3639  001E64  0E00               	movlw	0
  3640  001E66  6E3E               	movwf	(Beep@duration+1)^0,c
  3641  001E68  0ECF               	movlw	207
  3642  001E6A  6E3D               	movwf	Beep@duration^0,c
  3643  001E6C  EC33  F034         	call	_Beep	;wreg free
  3644                           
  3645                           ;main.c: 413:  sleep(106);
  3646  001E70  0E00               	movlw	0
  3647  001E72  6E03               	movwf	(sleep@ms+1)^0,c
  3648  001E74  0ED6               	movlw	214
  3649  001E76  6E02               	movwf	sleep@ms^0,c
  3650  001E78  EC79  F037         	call	_sleep	;wreg free
  3651                           
  3652                           ;main.c: 414:  Beep(92, 103);
  3653  001E7C  0E00               	movlw	0
  3654  001E7E  6E3C               	movwf	(Beep@frequency+1)^0,c
  3655  001E80  0E52               	movlw	82
  3656  001E82  6E3B               	movwf	Beep@frequency^0,c
  3657  001E84  0E00               	movlw	0
  3658  001E86  6E3E               	movwf	(Beep@duration+1)^0,c
  3659  001E88  0E67               	movlw	103
  3660  001E8A  6E3D               	movwf	Beep@duration^0,c
  3661  001E8C  EC33  F034         	call	_Beep	;wreg free
  3662                           
  3663                           ;main.c: 415:  sleep(107);
  3664  001E90  0E00               	movlw	0
  3665  001E92  6E03               	movwf	(sleep@ms+1)^0,c
  3666  001E94  0E6A               	movlw	106
  3667  001E96  6E02               	movwf	sleep@ms^0,c
  3668  001E98  EC79  F037         	call	_sleep	;wreg free
  3669                           
  3670                           ;main.c: 416:  Beep(73, 103);
  3671  001E9C  0E00               	movlw	0
  3672  001E9E  6E3C               	movwf	(Beep@frequency+1)^0,c
  3673  001EA0  0E41               	movlw	65
  3674  001EA2  6E3B               	movwf	Beep@frequency^0,c
  3675  001EA4  0E00               	movlw	0
  3676  001EA6  6E3E               	movwf	(Beep@duration+1)^0,c
  3677  001EA8  0E67               	movlw	103
  3678  001EAA  6E3D               	movwf	Beep@duration^0,c
  3679  001EAC  EC33  F034         	call	_Beep	;wreg free
  3680                           
  3681                           ;main.c: 417:  sleep(106);
  3682  001EB0  0E00               	movlw	0
  3683  001EB2  6E03               	movwf	(sleep@ms+1)^0,c
  3684  001EB4  0E6B               	movlw	107
  3685  001EB6  6E02               	movwf	sleep@ms^0,c
  3686  001EB8  EC79  F037         	call	_sleep	;wreg free
  3687                           
  3688                           ;main.c: 418:  Beep(92, 103);
  3689  001EBC  0E00               	movlw	0
  3690  001EBE  6E3C               	movwf	(Beep@frequency+1)^0,c
  3691  001EC0  0E52               	movlw	82
  3692  001EC2  6E3B               	movwf	Beep@frequency^0,c
  3693  001EC4  0E00               	movlw	0
  3694  001EC6  6E3E               	movwf	(Beep@duration+1)^0,c
  3695  001EC8  0ECF               	movlw	207
  3696  001ECA  6E3D               	movwf	Beep@duration^0,c
  3697  001ECC  EC33  F034         	call	_Beep	;wreg free
  3698                           
  3699                           ;main.c: 419:  sleep(107);
  3700  001ED0  0E00               	movlw	0
  3701  001ED2  6E03               	movwf	(sleep@ms+1)^0,c
  3702  001ED4  0ED6               	movlw	214
  3703  001ED6  6E02               	movwf	sleep@ms^0,c
  3704  001ED8  EC79  F037         	call	_sleep	;wreg free
  3705                           
  3706                           ;main.c: 420:  Beep(110, 760);
  3707  001EDC  0E00               	movlw	0
  3708  001EDE  6E3C               	movwf	(Beep@frequency+1)^0,c
  3709  001EE0  0E3D               	movlw	61
  3710  001EE2  6E3B               	movwf	Beep@frequency^0,c
  3711  001EE4  0E00               	movlw	0
  3712  001EE6  6E3E               	movwf	(Beep@duration+1)^0,c
  3713  001EE8  0E67               	movlw	103
  3714  001EEA  6E3D               	movwf	Beep@duration^0,c
  3715  001EEC  EC33  F034         	call	_Beep	;wreg free
  3716                           
  3717                           ;main.c: 421:  sleep(82);
  3718  001EF0  0E00               	movlw	0
  3719  001EF2  6E03               	movwf	(sleep@ms+1)^0,c
  3720  001EF4  0E6A               	movlw	106
  3721  001EF6  6E02               	movwf	sleep@ms^0,c
  3722  001EF8  EC79  F037         	call	_sleep	;wreg free
  3723                           
  3724                           ;main.c: 422:  Beep(123, 103);
  3725  001EFC  0E00               	movlw	0
  3726  001EFE  6E3C               	movwf	(Beep@frequency+1)^0,c
  3727  001F00  0E45               	movlw	69
  3728  001F02  6E3B               	movwf	Beep@frequency^0,c
  3729  001F04  0E00               	movlw	0
  3730  001F06  6E3E               	movwf	(Beep@duration+1)^0,c
  3731  001F08  0E67               	movlw	103
  3732  001F0A  6E3D               	movwf	Beep@duration^0,c
  3733  001F0C  EC33  F034         	call	_Beep	;wreg free
  3734                           
  3735                           ;main.c: 423:  sleep(106);
  3736  001F10  0E00               	movlw	0
  3737  001F12  6E03               	movwf	(sleep@ms+1)^0,c
  3738  001F14  0E6B               	movlw	107
  3739  001F16  6E02               	movwf	sleep@ms^0,c
  3740  001F18  EC79  F037         	call	_sleep	;wreg free
  3741                           
  3742                           ;main.c: 424:  Beep(138, 103);
  3743  001F1C  0E00               	movlw	0
  3744  001F1E  6E3C               	movwf	(Beep@frequency+1)^0,c
  3745  001F20  0E49               	movlw	73
  3746  001F22  6E3B               	movwf	Beep@frequency^0,c
  3747  001F24  0E00               	movlw	0
  3748  001F26  6E3E               	movwf	(Beep@duration+1)^0,c
  3749  001F28  0E67               	movlw	103
  3750  001F2A  6E3D               	movwf	Beep@duration^0,c
  3751  001F2C  EC33  F034         	call	_Beep	;wreg free
  3752                           
  3753                           ;main.c: 425:  sleep(107);
  3754  001F30  0E00               	movlw	0
  3755  001F32  6E03               	movwf	(sleep@ms+1)^0,c
  3756  001F34  0E6A               	movlw	106
  3757  001F36  6E02               	movwf	sleep@ms^0,c
  3758  001F38  EC79  F037         	call	_sleep	;wreg free
  3759                           
  3760                           ;main.c: 426:  Beep(146, 103);
  3761  001F3C  0E00               	movlw	0
  3762  001F3E  6E3C               	movwf	(Beep@frequency+1)^0,c
  3763  001F40  0E52               	movlw	82
  3764  001F42  6E3B               	movwf	Beep@frequency^0,c
  3765  001F44  0E00               	movlw	0
  3766  001F46  6E3E               	movwf	(Beep@duration+1)^0,c
  3767  001F48  0E67               	movlw	103
  3768  001F4A  6E3D               	movwf	Beep@duration^0,c
  3769  001F4C  EC33  F034         	call	_Beep	;wreg free
  3770                           
  3771                           ;main.c: 427:  sleep(106);
  3772  001F50  0E00               	movlw	0
  3773  001F52  6E03               	movwf	(sleep@ms+1)^0,c
  3774  001F54  0E6B               	movlw	107
  3775  001F56  6E02               	movwf	sleep@ms^0,c
  3776  001F58  EC79  F037         	call	_sleep	;wreg free
  3777                           
  3778                           ;main.c: 428:  Beep(164, 103);
  3779  001F5C  0E00               	movlw	0
  3780  001F5E  6E3C               	movwf	(Beep@frequency+1)^0,c
  3781  001F60  0E5C               	movlw	92
  3782  001F62  6E3B               	movwf	Beep@frequency^0,c
  3783  001F64  0E00               	movlw	0
  3784  001F66  6E3E               	movwf	(Beep@duration+1)^0,c
  3785  001F68  0E67               	movlw	103
  3786  001F6A  6E3D               	movwf	Beep@duration^0,c
  3787  001F6C  EC33  F034         	call	_Beep	;wreg free
  3788                           
  3789                           ;main.c: 429:  sleep(107);
  3790  001F70  0E00               	movlw	0
  3791  001F72  6E03               	movwf	(sleep@ms+1)^0,c
  3792  001F74  0E6A               	movlw	106
  3793  001F76  6E02               	movwf	sleep@ms^0,c
  3794  001F78  EC79  F037         	call	_sleep	;wreg free
  3795                           
  3796                           ;main.c: 430:  Beep(184, 103);
  3797  001F7C  0E00               	movlw	0
  3798  001F7E  6E3C               	movwf	(Beep@frequency+1)^0,c
  3799  001F80  0E49               	movlw	73
  3800  001F82  6E3B               	movwf	Beep@frequency^0,c
  3801  001F84  0E00               	movlw	0
  3802  001F86  6E3E               	movwf	(Beep@duration+1)^0,c
  3803  001F88  0E67               	movlw	103
  3804  001F8A  6E3D               	movwf	Beep@duration^0,c
  3805  001F8C  EC33  F034         	call	_Beep	;wreg free
  3806                           
  3807                           ;main.c: 431:  sleep(106);
  3808  001F90  0E00               	movlw	0
  3809  001F92  6E03               	movwf	(sleep@ms+1)^0,c
  3810  001F94  0E6B               	movlw	107
  3811  001F96  6E02               	movwf	sleep@ms^0,c
  3812  001F98  EC79  F037         	call	_sleep	;wreg free
  3813                           
  3814                           ;main.c: 432:  Beep(146, 103);
  3815  001F9C  0E00               	movlw	0
  3816  001F9E  6E3C               	movwf	(Beep@frequency+1)^0,c
  3817  001FA0  0E5C               	movlw	92
  3818  001FA2  6E3B               	movwf	Beep@frequency^0,c
  3819  001FA4  0E00               	movlw	0
  3820  001FA6  6E3E               	movwf	(Beep@duration+1)^0,c
  3821  001FA8  0E67               	movlw	103
  3822  001FAA  6E3D               	movwf	Beep@duration^0,c
  3823  001FAC  EC33  F034         	call	_Beep	;wreg free
  3824                           
  3825                           ;main.c: 433:  sleep(107);
  3826  001FB0  0E00               	movlw	0
  3827  001FB2  6E03               	movwf	(sleep@ms+1)^0,c
  3828  001FB4  0E6A               	movlw	106
  3829  001FB6  6E02               	movwf	sleep@ms^0,c
  3830  001FB8  EC79  F037         	call	_sleep	;wreg free
  3831                           
  3832                           ;main.c: 434:  Beep(184, 207);
  3833  001FBC  0E00               	movlw	0
  3834  001FBE  6E3C               	movwf	(Beep@frequency+1)^0,c
  3835  001FC0  0E7B               	movlw	123
  3836  001FC2  6E3B               	movwf	Beep@frequency^0,c
  3837  001FC4  0E00               	movlw	0
  3838  001FC6  6E3E               	movwf	(Beep@duration+1)^0,c
  3839  001FC8  0E67               	movlw	103
  3840  001FCA  6E3D               	movwf	Beep@duration^0,c
  3841  001FCC  EC33  F034         	call	_Beep	;wreg free
  3842                           
  3843                           ;main.c: 435:  sleep(214);
  3844  001FD0  0E00               	movlw	0
  3845  001FD2  6E03               	movwf	(sleep@ms+1)^0,c
  3846  001FD4  0E6B               	movlw	107
  3847  001FD6  6E02               	movwf	sleep@ms^0,c
  3848  001FD8  EC79  F037         	call	_sleep	;wreg free
  3849                           
  3850                           ;main.c: 436:  Beep(174, 103);
  3851  001FDC  0E00               	movlw	0
  3852  001FDE  6E3C               	movwf	(Beep@frequency+1)^0,c
  3853  001FE0  0E6E               	movlw	110
  3854  001FE2  6E3B               	movwf	Beep@frequency^0,c
  3855  001FE4  0E00               	movlw	0
  3856  001FE6  6E3E               	movwf	(Beep@duration+1)^0,c
  3857  001FE8  0E67               	movlw	103
  3858  001FEA  6E3D               	movwf	Beep@duration^0,c
  3859  001FEC  EC33  F034         	call	_Beep	;wreg free
  3860                           
  3861                           ;main.c: 437:  sleep(106);
  3862  001FF0  0E00               	movlw	0
  3863  001FF2  6E03               	movwf	(sleep@ms+1)^0,c
  3864  001FF4  0E6A               	movlw	106
  3865  001FF6  6E02               	movwf	sleep@ms^0,c
  3866  001FF8  EC79  F037         	call	_sleep	;wreg free
  3867                           
  3868                           ;main.c: 438:  Beep(138, 103);
  3869  001FFC  0E00               	movlw	0
  3870  001FFE  6E3C               	movwf	(Beep@frequency+1)^0,c
  3871  002000  0E5C               	movlw	92
  3872  002002  6E3B               	movwf	Beep@frequency^0,c
  3873  002004  0E00               	movlw	0
  3874  002006  6E3E               	movwf	(Beep@duration+1)^0,c
  3875  002008  0E67               	movlw	103
  3876  00200A  6E3D               	movwf	Beep@duration^0,c
  3877  00200C  EC33  F034         	call	_Beep	;wreg free
  3878                           
  3879                           ;main.c: 439:  sleep(107);
  3880  002010  0E00               	movlw	0
  3881  002012  6E03               	movwf	(sleep@ms+1)^0,c
  3882  002014  0E6B               	movlw	107
  3883  002016  6E02               	movwf	sleep@ms^0,c
  3884  002018  EC79  F037         	call	_sleep	;wreg free
  3885                           
  3886                           ;main.c: 440:  Beep(174, 207);
  3887  00201C  0E00               	movlw	0
  3888  00201E  6E3C               	movwf	(Beep@frequency+1)^0,c
  3889  002020  0E49               	movlw	73
  3890  002022  6E3B               	movwf	Beep@frequency^0,c
  3891  002024  0E00               	movlw	0
  3892  002026  6E3E               	movwf	(Beep@duration+1)^0,c
  3893  002028  0E67               	movlw	103
  3894  00202A  6E3D               	movwf	Beep@duration^0,c
  3895  00202C  EC33  F034         	call	_Beep	;wreg free
  3896                           
  3897                           ;main.c: 441:  sleep(214);
  3898  002030  0E00               	movlw	0
  3899  002032  6E03               	movwf	(sleep@ms+1)^0,c
  3900  002034  0E6A               	movlw	106
  3901  002036  6E02               	movwf	sleep@ms^0,c
  3902  002038  EC79  F037         	call	_sleep	;wreg free
  3903                           
  3904                           ;main.c: 442:  Beep(164, 103);
  3905  00203C  0E00               	movlw	0
  3906  00203E  6E3C               	movwf	(Beep@frequency+1)^0,c
  3907  002040  0E5C               	movlw	92
  3908  002042  6E3B               	movwf	Beep@frequency^0,c
  3909  002044  0E00               	movlw	0
  3910  002046  6E3E               	movwf	(Beep@duration+1)^0,c
  3911  002048  0E67               	movlw	103
  3912  00204A  6E3D               	movwf	Beep@duration^0,c
  3913  00204C  EC33  F034         	call	_Beep	;wreg free
  3914                           
  3915                           ;main.c: 443:  sleep(106);
  3916  002050  0E00               	movlw	0
  3917  002052  6E03               	movwf	(sleep@ms+1)^0,c
  3918  002054  0E6B               	movlw	107
  3919  002056  6E02               	movwf	sleep@ms^0,c
  3920  002058  EC79  F037         	call	_sleep	;wreg free
  3921                           
  3922                           ;main.c: 444:  Beep(130, 103);
  3923  00205C  0E00               	movlw	0
  3924  00205E  6E3C               	movwf	(Beep@frequency+1)^0,c
  3925  002060  0E6E               	movlw	110
  3926  002062  6E3B               	movwf	Beep@frequency^0,c
  3927  002064  0E02               	movlw	2
  3928  002066  6E3E               	movwf	(Beep@duration+1)^0,c
  3929  002068  0EF8               	movlw	248
  3930  00206A  6E3D               	movwf	Beep@duration^0,c
  3931  00206C  EC33  F034         	call	_Beep	;wreg free
  3932                           
  3933                           ;main.c: 445:  sleep(107);
  3934  002070  0E00               	movlw	0
  3935  002072  6E03               	movwf	(sleep@ms+1)^0,c
  3936  002074  0E52               	movlw	82
  3937  002076  6E02               	movwf	sleep@ms^0,c
  3938  002078  EC79  F037         	call	_sleep	;wreg free
  3939                           
  3940                           ;main.c: 446:  Beep(164, 207);
  3941  00207C  0E00               	movlw	0
  3942  00207E  6E3C               	movwf	(Beep@frequency+1)^0,c
  3943  002080  0E7B               	movlw	123
  3944  002082  6E3B               	movwf	Beep@frequency^0,c
  3945  002084  0E00               	movlw	0
  3946  002086  6E3E               	movwf	(Beep@duration+1)^0,c
  3947  002088  0E67               	movlw	103
  3948  00208A  6E3D               	movwf	Beep@duration^0,c
  3949  00208C  EC33  F034         	call	_Beep	;wreg free
  3950                           
  3951                           ;main.c: 447:  sleep(214);
  3952  002090  0E00               	movlw	0
  3953  002092  6E03               	movwf	(sleep@ms+1)^0,c
  3954  002094  0E6A               	movlw	106
  3955  002096  6E02               	movwf	sleep@ms^0,c
  3956  002098  EC79  F037         	call	_sleep	;wreg free
  3957                           
  3958                           ;main.c: 448:  Beep(123, 103);
  3959  00209C  0E00               	movlw	0
  3960  00209E  6E3C               	movwf	(Beep@frequency+1)^0,c
  3961  0020A0  0E8A               	movlw	138
  3962  0020A2  6E3B               	movwf	Beep@frequency^0,c
  3963  0020A4  0E00               	movlw	0
  3964  0020A6  6E3E               	movwf	(Beep@duration+1)^0,c
  3965  0020A8  0E67               	movlw	103
  3966  0020AA  6E3D               	movwf	Beep@duration^0,c
  3967  0020AC  EC33  F034         	call	_Beep	;wreg free
  3968                           
  3969                           ;main.c: 449:  sleep(106);
  3970  0020B0  0E00               	movlw	0
  3971  0020B2  6E03               	movwf	(sleep@ms+1)^0,c
  3972  0020B4  0E6B               	movlw	107
  3973  0020B6  6E02               	movwf	sleep@ms^0,c
  3974  0020B8  EC79  F037         	call	_sleep	;wreg free
  3975                           
  3976                           ;main.c: 450:  Beep(138, 103);
  3977  0020BC  0E00               	movlw	0
  3978  0020BE  6E3C               	movwf	(Beep@frequency+1)^0,c
  3979  0020C0  0E92               	movlw	146
  3980  0020C2  6E3B               	movwf	Beep@frequency^0,c
  3981  0020C4  0E00               	movlw	0
  3982  0020C6  6E3E               	movwf	(Beep@duration+1)^0,c
  3983  0020C8  0E67               	movlw	103
  3984  0020CA  6E3D               	movwf	Beep@duration^0,c
  3985  0020CC  EC33  F034         	call	_Beep	;wreg free
  3986                           
  3987                           ;main.c: 451:  sleep(107);
  3988  0020D0  0E00               	movlw	0
  3989  0020D2  6E03               	movwf	(sleep@ms+1)^0,c
  3990  0020D4  0E6A               	movlw	106
  3991  0020D6  6E02               	movwf	sleep@ms^0,c
  3992  0020D8  EC79  F037         	call	_sleep	;wreg free
  3993                           
  3994                           ;main.c: 452:  Beep(146, 103);
  3995  0020DC  0E00               	movlw	0
  3996  0020DE  6E3C               	movwf	(Beep@frequency+1)^0,c
  3997  0020E0  0EA4               	movlw	164
  3998  0020E2  6E3B               	movwf	Beep@frequency^0,c
  3999  0020E4  0E00               	movlw	0
  4000  0020E6  6E3E               	movwf	(Beep@duration+1)^0,c
  4001  0020E8  0E67               	movlw	103
  4002  0020EA  6E3D               	movwf	Beep@duration^0,c
  4003  0020EC  EC33  F034         	call	_Beep	;wreg free
  4004                           
  4005                           ;main.c: 453:  sleep(106);
  4006  0020F0  0E00               	movlw	0
  4007  0020F2  6E03               	movwf	(sleep@ms+1)^0,c
  4008  0020F4  0E6B               	movlw	107
  4009  0020F6  6E02               	movwf	sleep@ms^0,c
  4010  0020F8  EC79  F037         	call	_sleep	;wreg free
  4011                           
  4012                           ;main.c: 454:  Beep(164, 103);
  4013  0020FC  0E00               	movlw	0
  4014  0020FE  6E3C               	movwf	(Beep@frequency+1)^0,c
  4015  002100  0EB8               	movlw	184
  4016  002102  6E3B               	movwf	Beep@frequency^0,c
  4017  002104  0E00               	movlw	0
  4018  002106  6E3E               	movwf	(Beep@duration+1)^0,c
  4019  002108  0E67               	movlw	103
  4020  00210A  6E3D               	movwf	Beep@duration^0,c
  4021  00210C  EC33  F034         	call	_Beep	;wreg free
  4022                           
  4023                           ;main.c: 455:  sleep(107);
  4024  002110  0E00               	movlw	0
  4025  002112  6E03               	movwf	(sleep@ms+1)^0,c
  4026  002114  0E6A               	movlw	106
  4027  002116  6E02               	movwf	sleep@ms^0,c
  4028  002118  EC79  F037         	call	_sleep	;wreg free
  4029                           
  4030                           ;main.c: 456:  Beep(184, 103);
  4031  00211C  0E00               	movlw	0
  4032  00211E  6E3C               	movwf	(Beep@frequency+1)^0,c
  4033  002120  0E92               	movlw	146
  4034  002122  6E3B               	movwf	Beep@frequency^0,c
  4035  002124  0E00               	movlw	0
  4036  002126  6E3E               	movwf	(Beep@duration+1)^0,c
  4037  002128  0E67               	movlw	103
  4038  00212A  6E3D               	movwf	Beep@duration^0,c
  4039  00212C  EC33  F034         	call	_Beep	;wreg free
  4040                           
  4041                           ;main.c: 457:  sleep(106);
  4042  002130  0E00               	movlw	0
  4043  002132  6E03               	movwf	(sleep@ms+1)^0,c
  4044  002134  0E6B               	movlw	107
  4045  002136  6E02               	movwf	sleep@ms^0,c
  4046  002138  EC79  F037         	call	_sleep	;wreg free
  4047                           
  4048                           ;main.c: 458:  Beep(146, 103);
  4049  00213C  0E00               	movlw	0
  4050  00213E  6E3C               	movwf	(Beep@frequency+1)^0,c
  4051  002140  0EB8               	movlw	184
  4052  002142  6E3B               	movwf	Beep@frequency^0,c
  4053  002144  0E00               	movlw	0
  4054  002146  6E3E               	movwf	(Beep@duration+1)^0,c
  4055  002148  0ECF               	movlw	207
  4056  00214A  6E3D               	movwf	Beep@duration^0,c
  4057  00214C  EC33  F034         	call	_Beep	;wreg free
  4058                           
  4059                           ;main.c: 459:  sleep(107);
  4060  002150  0E00               	movlw	0
  4061  002152  6E03               	movwf	(sleep@ms+1)^0,c
  4062  002154  0ED6               	movlw	214
  4063  002156  6E02               	movwf	sleep@ms^0,c
  4064  002158  EC79  F037         	call	_sleep	;wreg free
  4065                           
  4066                           ;main.c: 460:  Beep(184, 103);
  4067  00215C  0E00               	movlw	0
  4068  00215E  6E3C               	movwf	(Beep@frequency+1)^0,c
  4069  002160  0EAE               	movlw	174
  4070  002162  6E3B               	movwf	Beep@frequency^0,c
  4071  002164  0E00               	movlw	0
  4072  002166  6E3E               	movwf	(Beep@duration+1)^0,c
  4073  002168  0E67               	movlw	103
  4074  00216A  6E3D               	movwf	Beep@duration^0,c
  4075  00216C  EC33  F034         	call	_Beep	;wreg free
  4076                           
  4077                           ;main.c: 461:  sleep(106);
  4078  002170  0E00               	movlw	0
  4079  002172  6E03               	movwf	(sleep@ms+1)^0,c
  4080  002174  0E6A               	movlw	106
  4081  002176  6E02               	movwf	sleep@ms^0,c
  4082  002178  EC79  F037         	call	_sleep	;wreg free
  4083                           
  4084                           ;main.c: 462:  Beep(246, 103);
  4085  00217C  0E00               	movlw	0
  4086  00217E  6E3C               	movwf	(Beep@frequency+1)^0,c
  4087  002180  0E8A               	movlw	138
  4088  002182  6E3B               	movwf	Beep@frequency^0,c
  4089  002184  0E00               	movlw	0
  4090  002186  6E3E               	movwf	(Beep@duration+1)^0,c
  4091  002188  0E67               	movlw	103
  4092  00218A  6E3D               	movwf	Beep@duration^0,c
  4093  00218C  EC33  F034         	call	_Beep	;wreg free
  4094                           
  4095                           ;main.c: 463:  sleep(107);
  4096  002190  0E00               	movlw	0
  4097  002192  6E03               	movwf	(sleep@ms+1)^0,c
  4098  002194  0E6B               	movlw	107
  4099  002196  6E02               	movwf	sleep@ms^0,c
  4100  002198  EC79  F037         	call	_sleep	;wreg free
  4101                           
  4102                           ;main.c: 464:  Beep(184, 103);
  4103  00219C  0E00               	movlw	0
  4104  00219E  6E3C               	movwf	(Beep@frequency+1)^0,c
  4105  0021A0  0EAE               	movlw	174
  4106  0021A2  6E3B               	movwf	Beep@frequency^0,c
  4107  0021A4  0E00               	movlw	0
  4108  0021A6  6E3E               	movwf	(Beep@duration+1)^0,c
  4109  0021A8  0ECF               	movlw	207
  4110  0021AA  6E3D               	movwf	Beep@duration^0,c
  4111  0021AC  EC33  F034         	call	_Beep	;wreg free
  4112                           
  4113                           ;main.c: 465:  sleep(106);
  4114  0021B0  0E00               	movlw	0
  4115  0021B2  6E03               	movwf	(sleep@ms+1)^0,c
  4116  0021B4  0ED6               	movlw	214
  4117  0021B6  6E02               	movwf	sleep@ms^0,c
  4118  0021B8  EC79  F037         	call	_sleep	;wreg free
  4119                           
  4120                           ;main.c: 466:  Beep(146, 103);
  4121  0021BC  0E00               	movlw	0
  4122  0021BE  6E3C               	movwf	(Beep@frequency+1)^0,c
  4123  0021C0  0EA4               	movlw	164
  4124  0021C2  6E3B               	movwf	Beep@frequency^0,c
  4125  0021C4  0E00               	movlw	0
  4126  0021C6  6E3E               	movwf	(Beep@duration+1)^0,c
  4127  0021C8  0E67               	movlw	103
  4128  0021CA  6E3D               	movwf	Beep@duration^0,c
  4129  0021CC  EC33  F034         	call	_Beep	;wreg free
  4130                           
  4131                           ;main.c: 467:  sleep(107);
  4132  0021D0  0E00               	movlw	0
  4133  0021D2  6E03               	movwf	(sleep@ms+1)^0,c
  4134  0021D4  0E6A               	movlw	106
  4135  0021D6  6E02               	movwf	sleep@ms^0,c
  4136  0021D8  EC79  F037         	call	_sleep	;wreg free
  4137                           
  4138                           ;main.c: 468:  Beep(184, 103);
  4139  0021DC  0E00               	movlw	0
  4140  0021DE  6E3C               	movwf	(Beep@frequency+1)^0,c
  4141  0021E0  0E82               	movlw	130
  4142  0021E2  6E3B               	movwf	Beep@frequency^0,c
  4143  0021E4  0E00               	movlw	0
  4144  0021E6  6E3E               	movwf	(Beep@duration+1)^0,c
  4145  0021E8  0E67               	movlw	103
  4146  0021EA  6E3D               	movwf	Beep@duration^0,c
  4147  0021EC  EC33  F034         	call	_Beep	;wreg free
  4148                           
  4149                           ;main.c: 469:  sleep(106);
  4150  0021F0  0E00               	movlw	0
  4151  0021F2  6E03               	movwf	(sleep@ms+1)^0,c
  4152  0021F4  0E6B               	movlw	107
  4153  0021F6  6E02               	movwf	sleep@ms^0,c
  4154  0021F8  EC79  F037         	call	_sleep	;wreg free
  4155                           
  4156                           ;main.c: 470:  Beep(246, 103);
  4157  0021FC  0E00               	movlw	0
  4158  0021FE  6E3C               	movwf	(Beep@frequency+1)^0,c
  4159  002200  0EA4               	movlw	164
  4160  002202  6E3B               	movwf	Beep@frequency^0,c
  4161  002204  0E00               	movlw	0
  4162  002206  6E3E               	movwf	(Beep@duration+1)^0,c
  4163  002208  0ECF               	movlw	207
  4164  00220A  6E3D               	movwf	Beep@duration^0,c
  4165  00220C  EC33  F034         	call	_Beep	;wreg free
  4166                           
  4167                           ;main.c: 471:  sleep(107);
  4168  002210  0E00               	movlw	0
  4169  002212  6E03               	movwf	(sleep@ms+1)^0,c
  4170  002214  0ED6               	movlw	214
  4171  002216  6E02               	movwf	sleep@ms^0,c
  4172  002218  EC79  F037         	call	_sleep	;wreg free
  4173                           
  4174                           ;main.c: 472:  Beep(123, 760);
  4175  00221C  0E00               	movlw	0
  4176  00221E  6E3C               	movwf	(Beep@frequency+1)^0,c
  4177  002220  0E7B               	movlw	123
  4178  002222  6E3B               	movwf	Beep@frequency^0,c
  4179  002224  0E00               	movlw	0
  4180  002226  6E3E               	movwf	(Beep@duration+1)^0,c
  4181  002228  0E67               	movlw	103
  4182  00222A  6E3D               	movwf	Beep@duration^0,c
  4183  00222C  EC33  F034         	call	_Beep	;wreg free
  4184                           
  4185                           ;main.c: 473:  sleep(82);
  4186  002230  0E00               	movlw	0
  4187  002232  6E03               	movwf	(sleep@ms+1)^0,c
  4188  002234  0E6A               	movlw	106
  4189  002236  6E02               	movwf	sleep@ms^0,c
  4190  002238  EC79  F037         	call	_sleep	;wreg free
  4191                           
  4192                           ;main.c: 474:  Beep(246, 103);
  4193  00223C  0E00               	movlw	0
  4194  00223E  6E3C               	movwf	(Beep@frequency+1)^0,c
  4195  002240  0E8A               	movlw	138
  4196  002242  6E3B               	movwf	Beep@frequency^0,c
  4197  002244  0E00               	movlw	0
  4198  002246  6E3E               	movwf	(Beep@duration+1)^0,c
  4199  002248  0E67               	movlw	103
  4200  00224A  6E3D               	movwf	Beep@duration^0,c
  4201  00224C  EC33  F034         	call	_Beep	;wreg free
  4202                           
  4203                           ;main.c: 475:  sleep(106);
  4204  002250  0E00               	movlw	0
  4205  002252  6E03               	movwf	(sleep@ms+1)^0,c
  4206  002254  0E6B               	movlw	107
  4207  002256  6E02               	movwf	sleep@ms^0,c
  4208  002258  EC79  F037         	call	_sleep	;wreg free
  4209                           
  4210                           ;main.c: 476:  Beep(277, 103);
  4211  00225C  0E00               	movlw	0
  4212  00225E  6E3C               	movwf	(Beep@frequency+1)^0,c
  4213  002260  0E92               	movlw	146
  4214  002262  6E3B               	movwf	Beep@frequency^0,c
  4215  002264  0E00               	movlw	0
  4216  002266  6E3E               	movwf	(Beep@duration+1)^0,c
  4217  002268  0E67               	movlw	103
  4218  00226A  6E3D               	movwf	Beep@duration^0,c
  4219  00226C  EC33  F034         	call	_Beep	;wreg free
  4220                           
  4221                           ;main.c: 477:  sleep(107);
  4222  002270  0E00               	movlw	0
  4223  002272  6E03               	movwf	(sleep@ms+1)^0,c
  4224  002274  0E6A               	movlw	106
  4225  002276  6E02               	movwf	sleep@ms^0,c
  4226  002278  EC79  F037         	call	_sleep	;wreg free
  4227                           
  4228                           ;main.c: 478:  Beep(184, 103);
  4229  00227C  0E00               	movlw	0
  4230  00227E  6E3C               	movwf	(Beep@frequency+1)^0,c
  4231  002280  0EA4               	movlw	164
  4232  002282  6E3B               	movwf	Beep@frequency^0,c
  4233  002284  0E00               	movlw	0
  4234  002286  6E3E               	movwf	(Beep@duration+1)^0,c
  4235  002288  0E67               	movlw	103
  4236  00228A  6E3D               	movwf	Beep@duration^0,c
  4237  00228C  EC33  F034         	call	_Beep	;wreg free
  4238                           
  4239                           ;main.c: 479:  sleep(1);
  4240  002290  0E00               	movlw	0
  4241  002292  6E03               	movwf	(sleep@ms+1)^0,c
  4242  002294  0E6B               	movlw	107
  4243  002296  6E02               	movwf	sleep@ms^0,c
  4244  002298  EC79  F037         	call	_sleep	;wreg free
  4245                           
  4246                           ;main.c: 480:  Beep(87, 95);
  4247  00229C  0E00               	movlw	0
  4248  00229E  6E3C               	movwf	(Beep@frequency+1)^0,c
  4249  0022A0  0EB8               	movlw	184
  4250  0022A2  6E3B               	movwf	Beep@frequency^0,c
  4251  0022A4  0E00               	movlw	0
  4252  0022A6  6E3E               	movwf	(Beep@duration+1)^0,c
  4253  0022A8  0E67               	movlw	103
  4254  0022AA  6E3D               	movwf	Beep@duration^0,c
  4255  0022AC  EC33  F034         	call	_Beep	;wreg free
  4256                           
  4257                           ;main.c: 481:  sleep(9);
  4258  0022B0  0E00               	movlw	0
  4259  0022B2  6E03               	movwf	(sleep@ms+1)^0,c
  4260  0022B4  0E6A               	movlw	106
  4261  0022B6  6E02               	movwf	sleep@ms^0,c
  4262  0022B8  EC79  F037         	call	_sleep	;wreg free
  4263                           
  4264                           ;main.c: 482:  Beep(329, 103);
  4265  0022BC  0E00               	movlw	0
  4266  0022BE  6E3C               	movwf	(Beep@frequency+1)^0,c
  4267  0022C0  0E92               	movlw	146
  4268  0022C2  6E3B               	movwf	Beep@frequency^0,c
  4269  0022C4  0E00               	movlw	0
  4270  0022C6  6E3E               	movwf	(Beep@duration+1)^0,c
  4271  0022C8  0E67               	movlw	103
  4272  0022CA  6E3D               	movwf	Beep@duration^0,c
  4273  0022CC  EC33  F034         	call	_Beep	;wreg free
  4274                           
  4275                           ;main.c: 483:  sleep(107);
  4276  0022D0  0E00               	movlw	0
  4277  0022D2  6E03               	movwf	(sleep@ms+1)^0,c
  4278  0022D4  0E6B               	movlw	107
  4279  0022D6  6E02               	movwf	sleep@ms^0,c
  4280  0022D8  EC79  F037         	call	_sleep	;wreg free
  4281                           
  4282                           ;main.c: 484:  Beep(369, 103);
  4283  0022DC  0E00               	movlw	0
  4284  0022DE  6E3C               	movwf	(Beep@frequency+1)^0,c
  4285  0022E0  0EB8               	movlw	184
  4286  0022E2  6E3B               	movwf	Beep@frequency^0,c
  4287  0022E4  0E00               	movlw	0
  4288  0022E6  6E3E               	movwf	(Beep@duration+1)^0,c
  4289  0022E8  0E67               	movlw	103
  4290  0022EA  6E3D               	movwf	Beep@duration^0,c
  4291  0022EC  EC33  F034         	call	_Beep	;wreg free
  4292                           
  4293                           ;main.c: 485:  sleep(106);
  4294  0022F0  0E00               	movlw	0
  4295  0022F2  6E03               	movwf	(sleep@ms+1)^0,c
  4296  0022F4  0E6A               	movlw	106
  4297  0022F6  6E02               	movwf	sleep@ms^0,c
  4298  0022F8  EC79  F037         	call	_sleep	;wreg free
  4299                           
  4300                           ;main.c: 486:  Beep(293, 103);
  4301  0022FC  0E00               	movlw	0
  4302  0022FE  6E3C               	movwf	(Beep@frequency+1)^0,c
  4303  002300  0EF6               	movlw	246
  4304  002302  6E3B               	movwf	Beep@frequency^0,c
  4305  002304  0E00               	movlw	0
  4306  002306  6E3E               	movwf	(Beep@duration+1)^0,c
  4307  002308  0E67               	movlw	103
  4308  00230A  6E3D               	movwf	Beep@duration^0,c
  4309  00230C  EC33  F034         	call	_Beep	;wreg free
  4310                           
  4311                           ;main.c: 487:  sleep(107);
  4312  002310  0E00               	movlw	0
  4313  002312  6E03               	movwf	(sleep@ms+1)^0,c
  4314  002314  0E6B               	movlw	107
  4315  002316  6E02               	movwf	sleep@ms^0,c
  4316  002318  EC79  F037         	call	_sleep	;wreg free
  4317                           
  4318                           ;main.c: 488:  Beep(184, 205);
  4319  00231C  0E00               	movlw	0
  4320  00231E  6E3C               	movwf	(Beep@frequency+1)^0,c
  4321  002320  0EB8               	movlw	184
  4322  002322  6E3B               	movwf	Beep@frequency^0,c
  4323  002324  0E00               	movlw	0
  4324  002326  6E3E               	movwf	(Beep@duration+1)^0,c
  4325  002328  0E67               	movlw	103
  4326  00232A  6E3D               	movwf	Beep@duration^0,c
  4327  00232C  EC33  F034         	call	_Beep	;wreg free
  4328                           
  4329                           ;main.c: 489:  sleep(3);
  4330  002330  0E00               	movlw	0
  4331  002332  6E03               	movwf	(sleep@ms+1)^0,c
  4332  002334  0E6A               	movlw	106
  4333  002336  6E02               	movwf	sleep@ms^0,c
  4334  002338  EC79  F037         	call	_sleep	;wreg free
  4335                           
  4336                           ;main.c: 490:  Beep(92, 103);
  4337  00233C  0E00               	movlw	0
  4338  00233E  6E3C               	movwf	(Beep@frequency+1)^0,c
  4339  002340  0E92               	movlw	146
  4340  002342  6E3B               	movwf	Beep@frequency^0,c
  4341  002344  0E00               	movlw	0
  4342  002346  6E3E               	movwf	(Beep@duration+1)^0,c
  4343  002348  0E67               	movlw	103
  4344  00234A  6E3D               	movwf	Beep@duration^0,c
  4345  00234C  EC33  F034         	call	_Beep	;wreg free
  4346                           
  4347                           ;main.c: 491:  sleep(107);
  4348  002350  0E00               	movlw	0
  4349  002352  6E03               	movwf	(sleep@ms+1)^0,c
  4350  002354  0E6B               	movlw	107
  4351  002356  6E02               	movwf	sleep@ms^0,c
  4352  002358  EC79  F037         	call	_sleep	;wreg free
  4353                           
  4354                           ;main.c: 492:  Beep(349, 103);
  4355  00235C  0E00               	movlw	0
  4356  00235E  6E3C               	movwf	(Beep@frequency+1)^0,c
  4357  002360  0EB8               	movlw	184
  4358  002362  6E3B               	movwf	Beep@frequency^0,c
  4359  002364  0E00               	movlw	0
  4360  002366  6E3E               	movwf	(Beep@duration+1)^0,c
  4361  002368  0E67               	movlw	103
  4362  00236A  6E3D               	movwf	Beep@duration^0,c
  4363  00236C  EC33  F034         	call	_Beep	;wreg free
  4364                           
  4365                           ;main.c: 493:  sleep(106);
  4366  002370  0E00               	movlw	0
  4367  002372  6E03               	movwf	(sleep@ms+1)^0,c
  4368  002374  0E6A               	movlw	106
  4369  002376  6E02               	movwf	sleep@ms^0,c
  4370  002378  EC79  F037         	call	_sleep	;wreg free
  4371                           
  4372                           ;main.c: 494:  Beep(277, 103);
  4373  00237C  0E00               	movlw	0
  4374  00237E  6E3C               	movwf	(Beep@frequency+1)^0,c
  4375  002380  0EF6               	movlw	246
  4376  002382  6E3B               	movwf	Beep@frequency^0,c
  4377  002384  0E00               	movlw	0
  4378  002386  6E3E               	movwf	(Beep@duration+1)^0,c
  4379  002388  0E67               	movlw	103
  4380  00238A  6E3D               	movwf	Beep@duration^0,c
  4381  00238C  EC33  F034         	call	_Beep	;wreg free
  4382                           
  4383                           ;main.c: 495:  sleep(107);
  4384  002390  0E00               	movlw	0
  4385  002392  6E03               	movwf	(sleep@ms+1)^0,c
  4386  002394  0E6B               	movlw	107
  4387  002396  6E02               	movwf	sleep@ms^0,c
  4388  002398  EC79  F037         	call	_sleep	;wreg free
  4389                           
  4390                           ;main.c: 496:  Beep(184, 205);
  4391  00239C  0E00               	movlw	0
  4392  00239E  6E3C               	movwf	(Beep@frequency+1)^0,c
  4393  0023A0  0E7B               	movlw	123
  4394  0023A2  6E3B               	movwf	Beep@frequency^0,c
  4395  0023A4  0E02               	movlw	2
  4396  0023A6  6E3E               	movwf	(Beep@duration+1)^0,c
  4397  0023A8  0EF8               	movlw	248
  4398  0023AA  6E3D               	movwf	Beep@duration^0,c
  4399  0023AC  EC33  F034         	call	_Beep	;wreg free
  4400                           
  4401                           ;main.c: 497:  sleep(3);
  4402  0023B0  0E00               	movlw	0
  4403  0023B2  6E03               	movwf	(sleep@ms+1)^0,c
  4404  0023B4  0E52               	movlw	82
  4405  0023B6  6E02               	movwf	sleep@ms^0,c
  4406  0023B8  EC79  F037         	call	_sleep	;wreg free
  4407                           
  4408                           ;main.c: 498:  Beep(92, 103);
  4409  0023BC  0E00               	movlw	0
  4410  0023BE  6E3C               	movwf	(Beep@frequency+1)^0,c
  4411  0023C0  0EF6               	movlw	246
  4412  0023C2  6E3B               	movwf	Beep@frequency^0,c
  4413  0023C4  0E00               	movlw	0
  4414  0023C6  6E3E               	movwf	(Beep@duration+1)^0,c
  4415  0023C8  0E67               	movlw	103
  4416  0023CA  6E3D               	movwf	Beep@duration^0,c
  4417  0023CC  EC33  F034         	call	_Beep	;wreg free
  4418                           
  4419                           ;main.c: 499:  sleep(107);
  4420  0023D0  0E00               	movlw	0
  4421  0023D2  6E03               	movwf	(sleep@ms+1)^0,c
  4422  0023D4  0E6A               	movlw	106
  4423  0023D6  6E02               	movwf	sleep@ms^0,c
  4424  0023D8  EC79  F037         	call	_sleep	;wreg free
  4425                           
  4426                           ;main.c: 500:  Beep(329, 103);
  4427  0023DC  0E01               	movlw	1
  4428  0023DE  6E3C               	movwf	(Beep@frequency+1)^0,c
  4429  0023E0  0E15               	movlw	21
  4430  0023E2  6E3B               	movwf	Beep@frequency^0,c
  4431  0023E4  0E00               	movlw	0
  4432  0023E6  6E3E               	movwf	(Beep@duration+1)^0,c
  4433  0023E8  0E67               	movlw	103
  4434  0023EA  6E3D               	movwf	Beep@duration^0,c
  4435  0023EC  EC33  F034         	call	_Beep	;wreg free
  4436                           
  4437                           ;main.c: 501:  sleep(106);
  4438  0023F0  0E00               	movlw	0
  4439  0023F2  6E03               	movwf	(sleep@ms+1)^0,c
  4440  0023F4  0E6B               	movlw	107
  4441  0023F6  6E02               	movwf	sleep@ms^0,c
  4442  0023F8  EC79  F037         	call	_sleep	;wreg free
  4443                           
  4444                           ;main.c: 502:  Beep(261, 103);
  4445  0023FC  0E00               	movlw	0
  4446  0023FE  6E3C               	movwf	(Beep@frequency+1)^0,c
  4447  002400  0EB8               	movlw	184
  4448  002402  6E3B               	movwf	Beep@frequency^0,c
  4449  002404  0E00               	movlw	0
  4450  002406  6E3E               	movwf	(Beep@duration+1)^0,c
  4451  002408  0E67               	movlw	103
  4452  00240A  6E3D               	movwf	Beep@duration^0,c
  4453  00240C  EC33  F034         	call	_Beep	;wreg free
  4454                           
  4455                           ;main.c: 503:  sleep(107);
  4456  002410  0E00               	movlw	0
  4457  002412  6E03               	movwf	(sleep@ms+1)^0,c
  4458  002414  0E01               	movlw	1
  4459  002416  6E02               	movwf	sleep@ms^0,c
  4460  002418  EC79  F037         	call	_sleep	;wreg free
  4461                           
  4462                           ;main.c: 504:  Beep(184, 205);
  4463  00241C  0E00               	movlw	0
  4464  00241E  6E3C               	movwf	(Beep@frequency+1)^0,c
  4465  002420  0E57               	movlw	87
  4466  002422  6E3B               	movwf	Beep@frequency^0,c
  4467  002424  0E00               	movlw	0
  4468  002426  6E3E               	movwf	(Beep@duration+1)^0,c
  4469  002428  0E5F               	movlw	95
  4470  00242A  6E3D               	movwf	Beep@duration^0,c
  4471  00242C  EC33  F034         	call	_Beep	;wreg free
  4472                           
  4473                           ;main.c: 505:  sleep(3);
  4474  002430  0E00               	movlw	0
  4475  002432  6E03               	movwf	(sleep@ms+1)^0,c
  4476  002434  0E09               	movlw	9
  4477  002436  6E02               	movwf	sleep@ms^0,c
  4478  002438  EC79  F037         	call	_sleep	;wreg free
  4479                           
  4480                           ;main.c: 506:  Beep(92, 103);
  4481  00243C  0E01               	movlw	1
  4482  00243E  6E3C               	movwf	(Beep@frequency+1)^0,c
  4483  002440  0E49               	movlw	73
  4484  002442  6E3B               	movwf	Beep@frequency^0,c
  4485  002444  0E00               	movlw	0
  4486  002446  6E3E               	movwf	(Beep@duration+1)^0,c
  4487  002448  0E67               	movlw	103
  4488  00244A  6E3D               	movwf	Beep@duration^0,c
  4489  00244C  EC33  F034         	call	_Beep	;wreg free
  4490                           
  4491                           ;main.c: 507:  sleep(107);
  4492  002450  0E00               	movlw	0
  4493  002452  6E03               	movwf	(sleep@ms+1)^0,c
  4494  002454  0E6B               	movlw	107
  4495  002456  6E02               	movwf	sleep@ms^0,c
  4496  002458  EC79  F037         	call	_sleep	;wreg free
  4497                           
  4498                           ;main.c: 508:  Beep(246, 103);
  4499  00245C  0E01               	movlw	1
  4500  00245E  6E3C               	movwf	(Beep@frequency+1)^0,c
  4501  002460  0E71               	movlw	113
  4502  002462  6E3B               	movwf	Beep@frequency^0,c
  4503  002464  0E00               	movlw	0
  4504  002466  6E3E               	movwf	(Beep@duration+1)^0,c
  4505  002468  0E67               	movlw	103
  4506  00246A  6E3D               	movwf	Beep@duration^0,c
  4507  00246C  EC33  F034         	call	_Beep	;wreg free
  4508                           
  4509                           ;main.c: 509:  sleep(106);
  4510  002470  0E00               	movlw	0
  4511  002472  6E03               	movwf	(sleep@ms+1)^0,c
  4512  002474  0E6A               	movlw	106
  4513  002476  6E02               	movwf	sleep@ms^0,c
  4514  002478  EC79  F037         	call	_sleep	;wreg free
  4515                           
  4516                           ;main.c: 510:  Beep(277, 103);
  4517  00247C  0E01               	movlw	1
  4518  00247E  6E3C               	movwf	(Beep@frequency+1)^0,c
  4519  002480  0E25               	movlw	37
  4520  002482  6E3B               	movwf	Beep@frequency^0,c
  4521  002484  0E00               	movlw	0
  4522  002486  6E3E               	movwf	(Beep@duration+1)^0,c
  4523  002488  0E67               	movlw	103
  4524  00248A  6E3D               	movwf	Beep@duration^0,c
  4525  00248C  EC33  F034         	call	_Beep	;wreg free
  4526                           
  4527                           ;main.c: 511:  sleep(107);
  4528  002490  0E00               	movlw	0
  4529  002492  6E03               	movwf	(sleep@ms+1)^0,c
  4530  002494  0E6B               	movlw	107
  4531  002496  6E02               	movwf	sleep@ms^0,c
  4532  002498  EC79  F037         	call	_sleep	;wreg free
  4533                           
  4534                           ;main.c: 512:  Beep(184, 103);
  4535  00249C  0E00               	movlw	0
  4536  00249E  6E3C               	movwf	(Beep@frequency+1)^0,c
  4537  0024A0  0EB8               	movlw	184
  4538  0024A2  6E3B               	movwf	Beep@frequency^0,c
  4539  0024A4  0E00               	movlw	0
  4540  0024A6  6E3E               	movwf	(Beep@duration+1)^0,c
  4541  0024A8  0ECD               	movlw	205
  4542  0024AA  6E3D               	movwf	Beep@duration^0,c
  4543  0024AC  EC33  F034         	call	_Beep	;wreg free
  4544                           
  4545                           ;main.c: 513:  sleep(1);
  4546  0024B0  0E00               	movlw	0
  4547  0024B2  6E03               	movwf	(sleep@ms+1)^0,c
  4548  0024B4  0E03               	movlw	3
  4549  0024B6  6E02               	movwf	sleep@ms^0,c
  4550  0024B8  EC79  F037         	call	_sleep	;wreg free
  4551                           
  4552                           ;main.c: 514:  Beep(87, 95);
  4553  0024BC  0E00               	movlw	0
  4554  0024BE  6E3C               	movwf	(Beep@frequency+1)^0,c
  4555  0024C0  0E5C               	movlw	92
  4556  0024C2  6E3B               	movwf	Beep@frequency^0,c
  4557  0024C4  0E00               	movlw	0
  4558  0024C6  6E3E               	movwf	(Beep@duration+1)^0,c
  4559  0024C8  0E67               	movlw	103
  4560  0024CA  6E3D               	movwf	Beep@duration^0,c
  4561  0024CC  EC33  F034         	call	_Beep	;wreg free
  4562                           
  4563                           ;main.c: 515:  sleep(9);
  4564  0024D0  0E00               	movlw	0
  4565  0024D2  6E03               	movwf	(sleep@ms+1)^0,c
  4566  0024D4  0E6B               	movlw	107
  4567  0024D6  6E02               	movwf	sleep@ms^0,c
  4568  0024D8  EC79  F037         	call	_sleep	;wreg free
  4569                           
  4570                           ;main.c: 516:  Beep(329, 103);
  4571  0024DC  0E01               	movlw	1
  4572  0024DE  6E3C               	movwf	(Beep@frequency+1)^0,c
  4573  0024E0  0E5D               	movlw	93
  4574  0024E2  6E3B               	movwf	Beep@frequency^0,c
  4575  0024E4  0E00               	movlw	0
  4576  0024E6  6E3E               	movwf	(Beep@duration+1)^0,c
  4577  0024E8  0E67               	movlw	103
  4578  0024EA  6E3D               	movwf	Beep@duration^0,c
  4579  0024EC  EC33  F034         	call	_Beep	;wreg free
  4580                           
  4581                           ;main.c: 517:  sleep(107);
  4582  0024F0  0E00               	movlw	0
  4583  0024F2  6E03               	movwf	(sleep@ms+1)^0,c
  4584  0024F4  0E6A               	movlw	106
  4585  0024F6  6E02               	movwf	sleep@ms^0,c
  4586  0024F8  EC79  F037         	call	_sleep	;wreg free
  4587                           
  4588                           ;main.c: 518:  Beep(369, 103);
  4589  0024FC  0E01               	movlw	1
  4590  0024FE  6E3C               	movwf	(Beep@frequency+1)^0,c
  4591  002500  0E15               	movlw	21
  4592  002502  6E3B               	movwf	Beep@frequency^0,c
  4593  002504  0E00               	movlw	0
  4594  002506  6E3E               	movwf	(Beep@duration+1)^0,c
  4595  002508  0E67               	movlw	103
  4596  00250A  6E3D               	movwf	Beep@duration^0,c
  4597  00250C  EC33  F034         	call	_Beep	;wreg free
  4598                           
  4599                           ;main.c: 519:  sleep(106);
  4600  002510  0E00               	movlw	0
  4601  002512  6E03               	movwf	(sleep@ms+1)^0,c
  4602  002514  0E6B               	movlw	107
  4603  002516  6E02               	movwf	sleep@ms^0,c
  4604  002518  EC79  F037         	call	_sleep	;wreg free
  4605                           
  4606                           ;main.c: 520:  Beep(293, 103);
  4607  00251C  0E00               	movlw	0
  4608  00251E  6E3C               	movwf	(Beep@frequency+1)^0,c
  4609  002520  0EB8               	movlw	184
  4610  002522  6E3B               	movwf	Beep@frequency^0,c
  4611  002524  0E00               	movlw	0
  4612  002526  6E3E               	movwf	(Beep@duration+1)^0,c
  4613  002528  0ECD               	movlw	205
  4614  00252A  6E3D               	movwf	Beep@duration^0,c
  4615  00252C  EC33  F034         	call	_Beep	;wreg free
  4616                           
  4617                           ;main.c: 521:  sleep(107);
  4618  002530  0E00               	movlw	0
  4619  002532  6E03               	movwf	(sleep@ms+1)^0,c
  4620  002534  0E03               	movlw	3
  4621  002536  6E02               	movwf	sleep@ms^0,c
  4622  002538  EC79  F037         	call	_sleep	;wreg free
  4623                           
  4624                           ;main.c: 522:  Beep(369, 103);
  4625  00253C  0E00               	movlw	0
  4626  00253E  6E3C               	movwf	(Beep@frequency+1)^0,c
  4627  002540  0E5C               	movlw	92
  4628  002542  6E3B               	movwf	Beep@frequency^0,c
  4629  002544  0E00               	movlw	0
  4630  002546  6E3E               	movwf	(Beep@duration+1)^0,c
  4631  002548  0E67               	movlw	103
  4632  00254A  6E3D               	movwf	Beep@duration^0,c
  4633  00254C  EC33  F034         	call	_Beep	;wreg free
  4634                           
  4635                           ;main.c: 523:  sleep(1);
  4636  002550  0E00               	movlw	0
  4637  002552  6E03               	movwf	(sleep@ms+1)^0,c
  4638  002554  0E6B               	movlw	107
  4639  002556  6E02               	movwf	sleep@ms^0,c
  4640  002558  EC79  F037         	call	_sleep	;wreg free
  4641                           
  4642                           ;main.c: 524:  Beep(87, 95);
  4643  00255C  0E01               	movlw	1
  4644  00255E  6E3C               	movwf	(Beep@frequency+1)^0,c
  4645  002560  0E49               	movlw	73
  4646  002562  6E3B               	movwf	Beep@frequency^0,c
  4647  002564  0E00               	movlw	0
  4648  002566  6E3E               	movwf	(Beep@duration+1)^0,c
  4649  002568  0E67               	movlw	103
  4650  00256A  6E3D               	movwf	Beep@duration^0,c
  4651  00256C  EC33  F034         	call	_Beep	;wreg free
  4652                           
  4653                           ;main.c: 525:  sleep(9);
  4654  002570  0E00               	movlw	0
  4655  002572  6E03               	movwf	(sleep@ms+1)^0,c
  4656  002574  0E6A               	movlw	106
  4657  002576  6E02               	movwf	sleep@ms^0,c
  4658  002578  EC79  F037         	call	_sleep	;wreg free
  4659                           
  4660                           ;main.c: 526:  Beep(493, 103);
  4661  00257C  0E01               	movlw	1
  4662  00257E  6E3C               	movwf	(Beep@frequency+1)^0,c
  4663  002580  0E05               	movlw	5
  4664  002582  6E3B               	movwf	Beep@frequency^0,c
  4665  002584  0E00               	movlw	0
  4666  002586  6E3E               	movwf	(Beep@duration+1)^0,c
  4667  002588  0E67               	movlw	103
  4668  00258A  6E3D               	movwf	Beep@duration^0,c
  4669  00258C  EC33  F034         	call	_Beep	;wreg free
  4670                           
  4671                           ;main.c: 527:  sleep(107);
  4672  002590  0E00               	movlw	0
  4673  002592  6E03               	movwf	(sleep@ms+1)^0,c
  4674  002594  0E6B               	movlw	107
  4675  002596  6E02               	movwf	sleep@ms^0,c
  4676  002598  EC79  F037         	call	_sleep	;wreg free
  4677                           
  4678                           ;main.c: 528:  Beep(440, 103);
  4679  00259C  0E00               	movlw	0
  4680  00259E  6E3C               	movwf	(Beep@frequency+1)^0,c
  4681  0025A0  0EB8               	movlw	184
  4682  0025A2  6E3B               	movwf	Beep@frequency^0,c
  4683  0025A4  0E00               	movlw	0
  4684  0025A6  6E3E               	movwf	(Beep@duration+1)^0,c
  4685  0025A8  0ECD               	movlw	205
  4686  0025AA  6E3D               	movwf	Beep@duration^0,c
  4687  0025AC  EC33  F034         	call	_Beep	;wreg free
  4688                           
  4689                           ;main.c: 529:  sleep(106);
  4690  0025B0  0E00               	movlw	0
  4691  0025B2  6E03               	movwf	(sleep@ms+1)^0,c
  4692  0025B4  0E03               	movlw	3
  4693  0025B6  6E02               	movwf	sleep@ms^0,c
  4694  0025B8  EC79  F037         	call	_sleep	;wreg free
  4695                           
  4696                           ;main.c: 530:  Beep(369, 103);
  4697  0025BC  0E00               	movlw	0
  4698  0025BE  6E3C               	movwf	(Beep@frequency+1)^0,c
  4699  0025C0  0E5C               	movlw	92
  4700  0025C2  6E3B               	movwf	Beep@frequency^0,c
  4701  0025C4  0E00               	movlw	0
  4702  0025C6  6E3E               	movwf	(Beep@duration+1)^0,c
  4703  0025C8  0E67               	movlw	103
  4704  0025CA  6E3D               	movwf	Beep@duration^0,c
  4705  0025CC  EC33  F034         	call	_Beep	;wreg free
  4706                           
  4707                           ;main.c: 531:  sleep(107);
  4708  0025D0  0E00               	movlw	0
  4709  0025D2  6E03               	movwf	(sleep@ms+1)^0,c
  4710  0025D4  0E6B               	movlw	107
  4711  0025D6  6E02               	movwf	sleep@ms^0,c
  4712  0025D8  EC79  F037         	call	_sleep	;wreg free
  4713                           
  4714                           ;main.c: 532:  Beep(220, 103);
  4715  0025DC  0E00               	movlw	0
  4716  0025DE  6E3C               	movwf	(Beep@frequency+1)^0,c
  4717  0025E0  0EF6               	movlw	246
  4718  0025E2  6E3B               	movwf	Beep@frequency^0,c
  4719  0025E4  0E00               	movlw	0
  4720  0025E6  6E3E               	movwf	(Beep@duration+1)^0,c
  4721  0025E8  0E67               	movlw	103
  4722  0025EA  6E3D               	movwf	Beep@duration^0,c
  4723  0025EC  EC33  F034         	call	_Beep	;wreg free
  4724                           
  4725                           ;main.c: 533:  sleep(1);
  4726  0025F0  0E00               	movlw	0
  4727  0025F2  6E03               	movwf	(sleep@ms+1)^0,c
  4728  0025F4  0E6A               	movlw	106
  4729  0025F6  6E02               	movwf	sleep@ms^0,c
  4730  0025F8  EC79  F037         	call	_sleep	;wreg free
  4731                           
  4732                           ;main.c: 534:  Beep(103, 95);
  4733  0025FC  0E01               	movlw	1
  4734  0025FE  6E3C               	movwf	(Beep@frequency+1)^0,c
  4735  002600  0E15               	movlw	21
  4736  002602  6E3B               	movwf	Beep@frequency^0,c
  4737  002604  0E00               	movlw	0
  4738  002606  6E3E               	movwf	(Beep@duration+1)^0,c
  4739  002608  0E67               	movlw	103
  4740  00260A  6E3D               	movwf	Beep@duration^0,c
  4741  00260C  EC33  F034         	call	_Beep	;wreg free
  4742                           
  4743                           ;main.c: 535:  sleep(9);
  4744  002610  0E00               	movlw	0
  4745  002612  6E03               	movwf	(sleep@ms+1)^0,c
  4746  002614  0E6B               	movlw	107
  4747  002616  6E02               	movwf	sleep@ms^0,c
  4748  002618  EC79  F037         	call	_sleep	;wreg free
  4749                           
  4750                           ;main.c: 536:  Beep(369, 103);
  4751  00261C  0E00               	movlw	0
  4752  00261E  6E3C               	movwf	(Beep@frequency+1)^0,c
  4753  002620  0EB8               	movlw	184
  4754  002622  6E3B               	movwf	Beep@frequency^0,c
  4755  002624  0E00               	movlw	0
  4756  002626  6E3E               	movwf	(Beep@duration+1)^0,c
  4757  002628  0E67               	movlw	103
  4758  00262A  6E3D               	movwf	Beep@duration^0,c
  4759  00262C  EC33  F034         	call	_Beep	;wreg free
  4760                           
  4761                           ;main.c: 537:  sleep(107);
  4762  002630  0E00               	movlw	0
  4763  002632  6E03               	movwf	(sleep@ms+1)^0,c
  4764  002634  0E01               	movlw	1
  4765  002636  6E02               	movwf	sleep@ms^0,c
  4766  002638  EC79  F037         	call	_sleep	;wreg free
  4767                           
  4768                           ;main.c: 538:  Beep(440, 756);
  4769  00263C  0E00               	movlw	0
  4770  00263E  6E3C               	movwf	(Beep@frequency+1)^0,c
  4771  002640  0E57               	movlw	87
  4772  002642  6E3B               	movwf	Beep@frequency^0,c
  4773  002644  0E00               	movlw	0
  4774  002646  6E3E               	movwf	(Beep@duration+1)^0,c
  4775  002648  0E5F               	movlw	95
  4776  00264A  6E3D               	movwf	Beep@duration^0,c
  4777  00264C  EC33  F034         	call	_Beep	;wreg free
  4778                           
  4779                           ;main.c: 539:  sleep(82);
  4780  002650  0E00               	movlw	0
  4781  002652  6E03               	movwf	(sleep@ms+1)^0,c
  4782  002654  0E09               	movlw	9
  4783  002656  6E02               	movwf	sleep@ms^0,c
  4784  002658  EC79  F037         	call	_sleep	;wreg free
  4785                           
  4786                           ;main.c: 540:  Beep(493, 103);
  4787  00265C  0E01               	movlw	1
  4788  00265E  6E3C               	movwf	(Beep@frequency+1)^0,c
  4789  002660  0E49               	movlw	73
  4790  002662  6E3B               	movwf	Beep@frequency^0,c
  4791  002664  0E00               	movlw	0
  4792  002666  6E3E               	movwf	(Beep@duration+1)^0,c
  4793  002668  0E67               	movlw	103
  4794  00266A  6E3D               	movwf	Beep@duration^0,c
  4795  00266C  EC33  F034         	call	_Beep	;wreg free
  4796                           
  4797                           ;main.c: 541:  sleep(106);
  4798  002670  0E00               	movlw	0
  4799  002672  6E03               	movwf	(sleep@ms+1)^0,c
  4800  002674  0E6B               	movlw	107
  4801  002676  6E02               	movwf	sleep@ms^0,c
  4802  002678  EC79  F037         	call	_sleep	;wreg free
  4803                           
  4804                           ;main.c: 542:  Beep(554, 103);
  4805  00267C  0E01               	movlw	1
  4806  00267E  6E3C               	movwf	(Beep@frequency+1)^0,c
  4807  002680  0E71               	movlw	113
  4808  002682  6E3B               	movwf	Beep@frequency^0,c
  4809  002684  0E00               	movlw	0
  4810  002686  6E3E               	movwf	(Beep@duration+1)^0,c
  4811  002688  0E67               	movlw	103
  4812  00268A  6E3D               	movwf	Beep@duration^0,c
  4813  00268C  EC33  F034         	call	_Beep	;wreg free
  4814                           
  4815                           ;main.c: 543:  sleep(107);
  4816  002690  0E00               	movlw	0
  4817  002692  6E03               	movwf	(sleep@ms+1)^0,c
  4818  002694  0E6A               	movlw	106
  4819  002696  6E02               	movwf	sleep@ms^0,c
  4820  002698  EC79  F037         	call	_sleep	;wreg free
  4821                           
  4822                           ;main.c: 544:  Beep(369, 103);
  4823  00269C  0E01               	movlw	1
  4824  00269E  6E3C               	movwf	(Beep@frequency+1)^0,c
  4825  0026A0  0E25               	movlw	37
  4826  0026A2  6E3B               	movwf	Beep@frequency^0,c
  4827  0026A4  0E00               	movlw	0
  4828  0026A6  6E3E               	movwf	(Beep@duration+1)^0,c
  4829  0026A8  0E67               	movlw	103
  4830  0026AA  6E3D               	movwf	Beep@duration^0,c
  4831  0026AC  EC33  F034         	call	_Beep	;wreg free
  4832                           
  4833                           ;main.c: 545:  sleep(1);
  4834  0026B0  0E00               	movlw	0
  4835  0026B2  6E03               	movwf	(sleep@ms+1)^0,c
  4836  0026B4  0E6B               	movlw	107
  4837  0026B6  6E02               	movwf	sleep@ms^0,c
  4838  0026B8  EC79  F037         	call	_sleep	;wreg free
  4839                           
  4840                           ;main.c: 546:  Beep(87, 95);
  4841  0026BC  0E01               	movlw	1
  4842  0026BE  6E3C               	movwf	(Beep@frequency+1)^0,c
  4843  0026C0  0E71               	movlw	113
  4844  0026C2  6E3B               	movwf	Beep@frequency^0,c
  4845  0026C4  0E00               	movlw	0
  4846  0026C6  6E3E               	movwf	(Beep@duration+1)^0,c
  4847  0026C8  0E67               	movlw	103
  4848  0026CA  6E3D               	movwf	Beep@duration^0,c
  4849  0026CC  EC33  F034         	call	_Beep	;wreg free
  4850                           
  4851                           ;main.c: 547:  sleep(9);
  4852  0026D0  0E00               	movlw	0
  4853  0026D2  6E03               	movwf	(sleep@ms+1)^0,c
  4854  0026D4  0E01               	movlw	1
  4855  0026D6  6E02               	movwf	sleep@ms^0,c
  4856  0026D8  EC79  F037         	call	_sleep	;wreg free
  4857                           
  4858                           ;main.c: 548:  Beep(659, 103);
  4859  0026DC  0E00               	movlw	0
  4860  0026DE  6E3C               	movwf	(Beep@frequency+1)^0,c
  4861  0026E0  0E57               	movlw	87
  4862  0026E2  6E3B               	movwf	Beep@frequency^0,c
  4863  0026E4  0E00               	movlw	0
  4864  0026E6  6E3E               	movwf	(Beep@duration+1)^0,c
  4865  0026E8  0E5F               	movlw	95
  4866  0026EA  6E3D               	movwf	Beep@duration^0,c
  4867  0026EC  EC33  F034         	call	_Beep	;wreg free
  4868                           
  4869                           ;main.c: 549:  sleep(107);
  4870  0026F0  0E00               	movlw	0
  4871  0026F2  6E03               	movwf	(sleep@ms+1)^0,c
  4872  0026F4  0E09               	movlw	9
  4873  0026F6  6E02               	movwf	sleep@ms^0,c
  4874  0026F8  EC79  F037         	call	_sleep	;wreg free
  4875                           
  4876                           ;main.c: 550:  Beep(739, 103);
  4877  0026FC  0E01               	movlw	1
  4878  0026FE  6E3C               	movwf	(Beep@frequency+1)^0,c
  4879  002700  0EED               	movlw	237
  4880  002702  6E3B               	movwf	Beep@frequency^0,c
  4881  002704  0E00               	movlw	0
  4882  002706  6E3E               	movwf	(Beep@duration+1)^0,c
  4883  002708  0E67               	movlw	103
  4884  00270A  6E3D               	movwf	Beep@duration^0,c
  4885  00270C  EC33  F034         	call	_Beep	;wreg free
  4886                           
  4887                           ;main.c: 551:  sleep(106);
  4888  002710  0E00               	movlw	0
  4889  002712  6E03               	movwf	(sleep@ms+1)^0,c
  4890  002714  0E6B               	movlw	107
  4891  002716  6E02               	movwf	sleep@ms^0,c
  4892  002718  EC79  F037         	call	_sleep	;wreg free
  4893                           
  4894                           ;main.c: 552:  Beep(587, 103);
  4895  00271C  0E01               	movlw	1
  4896  00271E  6E3C               	movwf	(Beep@frequency+1)^0,c
  4897  002720  0EB8               	movlw	184
  4898  002722  6E3B               	movwf	Beep@frequency^0,c
  4899  002724  0E00               	movlw	0
  4900  002726  6E3E               	movwf	(Beep@duration+1)^0,c
  4901  002728  0E67               	movlw	103
  4902  00272A  6E3D               	movwf	Beep@duration^0,c
  4903  00272C  EC33  F034         	call	_Beep	;wreg free
  4904                           
  4905                           ;main.c: 553:  sleep(107);
  4906  002730  0E00               	movlw	0
  4907  002732  6E03               	movwf	(sleep@ms+1)^0,c
  4908  002734  0E6A               	movlw	106
  4909  002736  6E02               	movwf	sleep@ms^0,c
  4910  002738  EC79  F037         	call	_sleep	;wreg free
  4911                           
  4912                           ;main.c: 554:  Beep(369, 205);
  4913  00273C  0E01               	movlw	1
  4914  00273E  6E3C               	movwf	(Beep@frequency+1)^0,c
  4915  002740  0E71               	movlw	113
  4916  002742  6E3B               	movwf	Beep@frequency^0,c
  4917  002744  0E00               	movlw	0
  4918  002746  6E3E               	movwf	(Beep@duration+1)^0,c
  4919  002748  0E67               	movlw	103
  4920  00274A  6E3D               	movwf	Beep@duration^0,c
  4921  00274C  EC33  F034         	call	_Beep	;wreg free
  4922                           
  4923                           ;main.c: 555:  sleep(3);
  4924  002750  0E00               	movlw	0
  4925  002752  6E03               	movwf	(sleep@ms+1)^0,c
  4926  002754  0E6B               	movlw	107
  4927  002756  6E02               	movwf	sleep@ms^0,c
  4928  002758  EC79  F037         	call	_sleep	;wreg free
  4929                           
  4930                           ;main.c: 556:  Beep(92, 103);
  4931  00275C  0E00               	movlw	0
  4932  00275E  6E3C               	movwf	(Beep@frequency+1)^0,c
  4933  002760  0EDC               	movlw	220
  4934  002762  6E3B               	movwf	Beep@frequency^0,c
  4935  002764  0E00               	movlw	0
  4936  002766  6E3E               	movwf	(Beep@duration+1)^0,c
  4937  002768  0E67               	movlw	103
  4938  00276A  6E3D               	movwf	Beep@duration^0,c
  4939  00276C  EC33  F034         	call	_Beep	;wreg free
  4940                           
  4941                           ;main.c: 557:  sleep(107);
  4942  002770  0E00               	movlw	0
  4943  002772  6E03               	movwf	(sleep@ms+1)^0,c
  4944  002774  0E01               	movlw	1
  4945  002776  6E02               	movwf	sleep@ms^0,c
  4946  002778  EC79  F037         	call	_sleep	;wreg free
  4947                           
  4948                           ;main.c: 558:  Beep(698, 103);
  4949  00277C  0E00               	movlw	0
  4950  00277E  6E3C               	movwf	(Beep@frequency+1)^0,c
  4951  002780  0E67               	movlw	103
  4952  002782  6E3B               	movwf	Beep@frequency^0,c
  4953  002784  0E00               	movlw	0
  4954  002786  6E3E               	movwf	(Beep@duration+1)^0,c
  4955  002788  0E5F               	movlw	95
  4956  00278A  6E3D               	movwf	Beep@duration^0,c
  4957  00278C  EC33  F034         	call	_Beep	;wreg free
  4958                           
  4959                           ;main.c: 559:  sleep(106);
  4960  002790  0E00               	movlw	0
  4961  002792  6E03               	movwf	(sleep@ms+1)^0,c
  4962  002794  0E09               	movlw	9
  4963  002796  6E02               	movwf	sleep@ms^0,c
  4964  002798  EC79  F037         	call	_sleep	;wreg free
  4965                           
  4966                           ;main.c: 560:  Beep(554, 103);
  4967  00279C  0E01               	movlw	1
  4968  00279E  6E3C               	movwf	(Beep@frequency+1)^0,c
  4969  0027A0  0E71               	movlw	113
  4970  0027A2  6E3B               	movwf	Beep@frequency^0,c
  4971  0027A4  0E00               	movlw	0
  4972  0027A6  6E3E               	movwf	(Beep@duration+1)^0,c
  4973  0027A8  0E67               	movlw	103
  4974  0027AA  6E3D               	movwf	Beep@duration^0,c
  4975  0027AC  EC33  F034         	call	_Beep	;wreg free
  4976                           
  4977                           ;main.c: 561:  sleep(107);
  4978  0027B0  0E00               	movlw	0
  4979  0027B2  6E03               	movwf	(sleep@ms+1)^0,c
  4980  0027B4  0E6B               	movlw	107
  4981  0027B6  6E02               	movwf	sleep@ms^0,c
  4982  0027B8  EC79  F037         	call	_sleep	;wreg free
  4983                           
  4984                           ;main.c: 562:  Beep(369, 205);
  4985  0027BC  0E01               	movlw	1
  4986  0027BE  6E3C               	movwf	(Beep@frequency+1)^0,c
  4987  0027C0  0EB8               	movlw	184
  4988  0027C2  6E3B               	movwf	Beep@frequency^0,c
  4989  0027C4  0E02               	movlw	2
  4990  0027C6  6E3E               	movwf	(Beep@duration+1)^0,c
  4991  0027C8  0EF4               	movlw	244
  4992  0027CA  6E3D               	movwf	Beep@duration^0,c
  4993  0027CC  EC33  F034         	call	_Beep	;wreg free
  4994                           
  4995                           ;main.c: 563:  sleep(3);
  4996  0027D0  0E00               	movlw	0
  4997  0027D2  6E03               	movwf	(sleep@ms+1)^0,c
  4998  0027D4  0E52               	movlw	82
  4999  0027D6  6E02               	movwf	sleep@ms^0,c
  5000  0027D8  EC79  F037         	call	_sleep	;wreg free
  5001                           
  5002                           ;main.c: 564:  Beep(92, 103);
  5003  0027DC  0E01               	movlw	1
  5004  0027DE  6E3C               	movwf	(Beep@frequency+1)^0,c
  5005  0027E0  0EED               	movlw	237
  5006  0027E2  6E3B               	movwf	Beep@frequency^0,c
  5007  0027E4  0E00               	movlw	0
  5008  0027E6  6E3E               	movwf	(Beep@duration+1)^0,c
  5009  0027E8  0E67               	movlw	103
  5010  0027EA  6E3D               	movwf	Beep@duration^0,c
  5011  0027EC  EC33  F034         	call	_Beep	;wreg free
  5012                           
  5013                           ;main.c: 565:  sleep(107);
  5014  0027F0  0E00               	movlw	0
  5015  0027F2  6E03               	movwf	(sleep@ms+1)^0,c
  5016  0027F4  0E6A               	movlw	106
  5017  0027F6  6E02               	movwf	sleep@ms^0,c
  5018  0027F8  EC79  F037         	call	_sleep	;wreg free
  5019                           
  5020                           ;main.c: 566:  Beep(659, 103);
  5021  0027FC  0E02               	movlw	2
  5022  0027FE  6E3C               	movwf	(Beep@frequency+1)^0,c
  5023  002800  0E2A               	movlw	42
  5024  002802  6E3B               	movwf	Beep@frequency^0,c
  5025  002804  0E00               	movlw	0
  5026  002806  6E3E               	movwf	(Beep@duration+1)^0,c
  5027  002808  0E67               	movlw	103
  5028  00280A  6E3D               	movwf	Beep@duration^0,c
  5029  00280C  EC33  F034         	call	_Beep	;wreg free
  5030                           
  5031                           ;main.c: 567:  sleep(106);
  5032  002810  0E00               	movlw	0
  5033  002812  6E03               	movwf	(sleep@ms+1)^0,c
  5034  002814  0E6B               	movlw	107
  5035  002816  6E02               	movwf	sleep@ms^0,c
  5036  002818  EC79  F037         	call	_sleep	;wreg free
  5037                           
  5038                           ;main.c: 568:  Beep(523, 103);
  5039  00281C  0E01               	movlw	1
  5040  00281E  6E3C               	movwf	(Beep@frequency+1)^0,c
  5041  002820  0E71               	movlw	113
  5042  002822  6E3B               	movwf	Beep@frequency^0,c
  5043  002824  0E00               	movlw	0
  5044  002826  6E3E               	movwf	(Beep@duration+1)^0,c
  5045  002828  0E67               	movlw	103
  5046  00282A  6E3D               	movwf	Beep@duration^0,c
  5047  00282C  EC33  F034         	call	_Beep	;wreg free
  5048                           
  5049                           ;main.c: 569:  sleep(107);
  5050  002830  0E00               	movlw	0
  5051  002832  6E03               	movwf	(sleep@ms+1)^0,c
  5052  002834  0E01               	movlw	1
  5053  002836  6E02               	movwf	sleep@ms^0,c
  5054  002838  EC79  F037         	call	_sleep	;wreg free
  5055                           
  5056                           ;main.c: 570:  Beep(369, 205);
  5057  00283C  0E00               	movlw	0
  5058  00283E  6E3C               	movwf	(Beep@frequency+1)^0,c
  5059  002840  0E57               	movlw	87
  5060  002842  6E3B               	movwf	Beep@frequency^0,c
  5061  002844  0E00               	movlw	0
  5062  002846  6E3E               	movwf	(Beep@duration+1)^0,c
  5063  002848  0E5F               	movlw	95
  5064  00284A  6E3D               	movwf	Beep@duration^0,c
  5065  00284C  EC33  F034         	call	_Beep	;wreg free
  5066                           
  5067                           ;main.c: 571:  sleep(3);
  5068  002850  0E00               	movlw	0
  5069  002852  6E03               	movwf	(sleep@ms+1)^0,c
  5070  002854  0E09               	movlw	9
  5071  002856  6E02               	movwf	sleep@ms^0,c
  5072  002858  EC79  F037         	call	_sleep	;wreg free
  5073                           
  5074                           ;main.c: 572:  Beep(92, 103);
  5075  00285C  0E02               	movlw	2
  5076  00285E  6E3C               	movwf	(Beep@frequency+1)^0,c
  5077  002860  0E93               	movlw	147
  5078  002862  6E3B               	movwf	Beep@frequency^0,c
  5079  002864  0E00               	movlw	0
  5080  002866  6E3E               	movwf	(Beep@duration+1)^0,c
  5081  002868  0E67               	movlw	103
  5082  00286A  6E3D               	movwf	Beep@duration^0,c
  5083  00286C  EC33  F034         	call	_Beep	;wreg free
  5084                           
  5085                           ;main.c: 573:  sleep(107);
  5086  002870  0E00               	movlw	0
  5087  002872  6E03               	movwf	(sleep@ms+1)^0,c
  5088  002874  0E6B               	movlw	107
  5089  002876  6E02               	movwf	sleep@ms^0,c
  5090  002878  EC79  F037         	call	_sleep	;wreg free
  5091                           
  5092                           ;main.c: 574:  Beep(493, 103);
  5093  00287C  0E02               	movlw	2
  5094  00287E  6E3C               	movwf	(Beep@frequency+1)^0,c
  5095  002880  0EE3               	movlw	227
  5096  002882  6E3B               	movwf	Beep@frequency^0,c
  5097  002884  0E00               	movlw	0
  5098  002886  6E3E               	movwf	(Beep@duration+1)^0,c
  5099  002888  0E67               	movlw	103
  5100  00288A  6E3D               	movwf	Beep@duration^0,c
  5101  00288C  EC33  F034         	call	_Beep	;wreg free
  5102                           
  5103                           ;main.c: 575:  sleep(106);
  5104  002890  0E00               	movlw	0
  5105  002892  6E03               	movwf	(sleep@ms+1)^0,c
  5106  002894  0E6A               	movlw	106
  5107  002896  6E02               	movwf	sleep@ms^0,c
  5108  002898  EC79  F037         	call	_sleep	;wreg free
  5109                           
  5110                           ;main.c: 576:  Beep(554, 103);
  5111  00289C  0E02               	movlw	2
  5112  00289E  6E3C               	movwf	(Beep@frequency+1)^0,c
  5113  0028A0  0E4B               	movlw	75
  5114  0028A2  6E3B               	movwf	Beep@frequency^0,c
  5115  0028A4  0E00               	movlw	0
  5116  0028A6  6E3E               	movwf	(Beep@duration+1)^0,c
  5117  0028A8  0E67               	movlw	103
  5118  0028AA  6E3D               	movwf	Beep@duration^0,c
  5119  0028AC  EC33  F034         	call	_Beep	;wreg free
  5120                           
  5121                           ;main.c: 577:  sleep(107);
  5122  0028B0  0E00               	movlw	0
  5123  0028B2  6E03               	movwf	(sleep@ms+1)^0,c
  5124  0028B4  0E6B               	movlw	107
  5125  0028B6  6E02               	movwf	sleep@ms^0,c
  5126  0028B8  EC79  F037         	call	_sleep	;wreg free
  5127                           
  5128                           ;main.c: 578:  Beep(369, 103);
  5129  0028BC  0E01               	movlw	1
  5130  0028BE  6E3C               	movwf	(Beep@frequency+1)^0,c
  5131  0028C0  0E71               	movlw	113
  5132  0028C2  6E3B               	movwf	Beep@frequency^0,c
  5133  0028C4  0E00               	movlw	0
  5134  0028C6  6E3E               	movwf	(Beep@duration+1)^0,c
  5135  0028C8  0ECD               	movlw	205
  5136  0028CA  6E3D               	movwf	Beep@duration^0,c
  5137  0028CC  EC33  F034         	call	_Beep	;wreg free
  5138                           
  5139                           ;main.c: 579:  sleep(1);
  5140  0028D0  0E00               	movlw	0
  5141  0028D2  6E03               	movwf	(sleep@ms+1)^0,c
  5142  0028D4  0E03               	movlw	3
  5143  0028D6  6E02               	movwf	sleep@ms^0,c
  5144  0028D8  EC79  F037         	call	_sleep	;wreg free
  5145                           
  5146                           ;main.c: 580:  Beep(87, 95);
  5147  0028DC  0E00               	movlw	0
  5148  0028DE  6E3C               	movwf	(Beep@frequency+1)^0,c
  5149  0028E0  0E5C               	movlw	92
  5150  0028E2  6E3B               	movwf	Beep@frequency^0,c
  5151  0028E4  0E00               	movlw	0
  5152  0028E6  6E3E               	movwf	(Beep@duration+1)^0,c
  5153  0028E8  0E67               	movlw	103
  5154  0028EA  6E3D               	movwf	Beep@duration^0,c
  5155  0028EC  EC33  F034         	call	_Beep	;wreg free
  5156                           
  5157                           ;main.c: 581:  sleep(9);
  5158  0028F0  0E00               	movlw	0
  5159  0028F2  6E03               	movwf	(sleep@ms+1)^0,c
  5160  0028F4  0E6B               	movlw	107
  5161  0028F6  6E02               	movwf	sleep@ms^0,c
  5162  0028F8  EC79  F037         	call	_sleep	;wreg free
  5163                           
  5164                           ;main.c: 582:  Beep(659, 103);
  5165  0028FC  0E02               	movlw	2
  5166  0028FE  6E3C               	movwf	(Beep@frequency+1)^0,c
  5167  002900  0EBA               	movlw	186
  5168  002902  6E3B               	movwf	Beep@frequency^0,c
  5169  002904  0E00               	movlw	0
  5170  002906  6E3E               	movwf	(Beep@duration+1)^0,c
  5171  002908  0E67               	movlw	103
  5172  00290A  6E3D               	movwf	Beep@duration^0,c
  5173  00290C  EC33  F034         	call	_Beep	;wreg free
  5174                           
  5175                           ;main.c: 583:  sleep(107);
  5176  002910  0E00               	movlw	0
  5177  002912  6E03               	movwf	(sleep@ms+1)^0,c
  5178  002914  0E6A               	movlw	106
  5179  002916  6E02               	movwf	sleep@ms^0,c
  5180  002918  EC79  F037         	call	_sleep	;wreg free
  5181                           
  5182                           ;main.c: 584:  Beep(739, 103);
  5183  00291C  0E02               	movlw	2
  5184  00291E  6E3C               	movwf	(Beep@frequency+1)^0,c
  5185  002920  0E2A               	movlw	42
  5186  002922  6E3B               	movwf	Beep@frequency^0,c
  5187  002924  0E00               	movlw	0
  5188  002926  6E3E               	movwf	(Beep@duration+1)^0,c
  5189  002928  0E67               	movlw	103
  5190  00292A  6E3D               	movwf	Beep@duration^0,c
  5191  00292C  EC33  F034         	call	_Beep	;wreg free
  5192                           
  5193                           ;main.c: 585:  sleep(106);
  5194  002930  0E00               	movlw	0
  5195  002932  6E03               	movwf	(sleep@ms+1)^0,c
  5196  002934  0E6B               	movlw	107
  5197  002936  6E02               	movwf	sleep@ms^0,c
  5198  002938  EC79  F037         	call	_sleep	;wreg free
  5199                           
  5200                           ;main.c: 586:  Beep(587, 103);
  5201  00293C  0E01               	movlw	1
  5202  00293E  6E3C               	movwf	(Beep@frequency+1)^0,c
  5203  002940  0E71               	movlw	113
  5204  002942  6E3B               	movwf	Beep@frequency^0,c
  5205  002944  0E00               	movlw	0
  5206  002946  6E3E               	movwf	(Beep@duration+1)^0,c
  5207  002948  0ECD               	movlw	205
  5208  00294A  6E3D               	movwf	Beep@duration^0,c
  5209  00294C  EC33  F034         	call	_Beep	;wreg free
  5210                           
  5211                           ;main.c: 587:  sleep(107);
  5212  002950  0E00               	movlw	0
  5213  002952  6E03               	movwf	(sleep@ms+1)^0,c
  5214  002954  0E03               	movlw	3
  5215  002956  6E02               	movwf	sleep@ms^0,c
  5216  002958  EC79  F037         	call	_sleep	;wreg free
  5217                           
  5218                           ;main.c: 588:  Beep(739, 103);
  5219  00295C  0E00               	movlw	0
  5220  00295E  6E3C               	movwf	(Beep@frequency+1)^0,c
  5221  002960  0E5C               	movlw	92
  5222  002962  6E3B               	movwf	Beep@frequency^0,c
  5223  002964  0E00               	movlw	0
  5224  002966  6E3E               	movwf	(Beep@duration+1)^0,c
  5225  002968  0E67               	movlw	103
  5226  00296A  6E3D               	movwf	Beep@duration^0,c
  5227  00296C  EC33  F034         	call	_Beep	;wreg free
  5228                           
  5229                           ;main.c: 589:  sleep(1);
  5230  002970  0E00               	movlw	0
  5231  002972  6E03               	movwf	(sleep@ms+1)^0,c
  5232  002974  0E6B               	movlw	107
  5233  002976  6E02               	movwf	sleep@ms^0,c
  5234  002978  EC79  F037         	call	_sleep	;wreg free
  5235                           
  5236                           ;main.c: 590:  Beep(87, 95);
  5237  00297C  0E02               	movlw	2
  5238  00297E  6E3C               	movwf	(Beep@frequency+1)^0,c
  5239  002980  0E93               	movlw	147
  5240  002982  6E3B               	movwf	Beep@frequency^0,c
  5241  002984  0E00               	movlw	0
  5242  002986  6E3E               	movwf	(Beep@duration+1)^0,c
  5243  002988  0E67               	movlw	103
  5244  00298A  6E3D               	movwf	Beep@duration^0,c
  5245  00298C  EC33  F034         	call	_Beep	;wreg free
  5246                           
  5247                           ;main.c: 591:  sleep(9);
  5248  002990  0E00               	movlw	0
  5249  002992  6E03               	movwf	(sleep@ms+1)^0,c
  5250  002994  0E6A               	movlw	106
  5251  002996  6E02               	movwf	sleep@ms^0,c
  5252  002998  EC79  F037         	call	_sleep	;wreg free
  5253                           
  5254                           ;main.c: 592:  Beep(987, 103);
  5255  00299C  0E02               	movlw	2
  5256  00299E  6E3C               	movwf	(Beep@frequency+1)^0,c
  5257  0029A0  0E0B               	movlw	11
  5258  0029A2  6E3B               	movwf	Beep@frequency^0,c
  5259  0029A4  0E00               	movlw	0
  5260  0029A6  6E3E               	movwf	(Beep@duration+1)^0,c
  5261  0029A8  0E67               	movlw	103
  5262  0029AA  6E3D               	movwf	Beep@duration^0,c
  5263  0029AC  EC33  F034         	call	_Beep	;wreg free
  5264                           
  5265                           ;main.c: 593:  sleep(107);
  5266  0029B0  0E00               	movlw	0
  5267  0029B2  6E03               	movwf	(sleep@ms+1)^0,c
  5268  0029B4  0E6B               	movlw	107
  5269  0029B6  6E02               	movwf	sleep@ms^0,c
  5270  0029B8  EC79  F037         	call	_sleep	;wreg free
  5271                           
  5272                           ;main.c: 594:  Beep(880, 103);
  5273  0029BC  0E01               	movlw	1
  5274  0029BE  6E3C               	movwf	(Beep@frequency+1)^0,c
  5275  0029C0  0E71               	movlw	113
  5276  0029C2  6E3B               	movwf	Beep@frequency^0,c
  5277  0029C4  0E00               	movlw	0
  5278  0029C6  6E3E               	movwf	(Beep@duration+1)^0,c
  5279  0029C8  0ECD               	movlw	205
  5280  0029CA  6E3D               	movwf	Beep@duration^0,c
  5281  0029CC  EC33  F034         	call	_Beep	;wreg free
  5282                           
  5283                           ;main.c: 595:  sleep(106);
  5284  0029D0  0E00               	movlw	0
  5285  0029D2  6E03               	movwf	(sleep@ms+1)^0,c
  5286  0029D4  0E03               	movlw	3
  5287  0029D6  6E02               	movwf	sleep@ms^0,c
  5288  0029D8  EC79  F037         	call	_sleep	;wreg free
  5289                           
  5290                           ;main.c: 596:  Beep(739, 103);
  5291  0029DC  0E00               	movlw	0
  5292  0029DE  6E3C               	movwf	(Beep@frequency+1)^0,c
  5293  0029E0  0E5C               	movlw	92
  5294  0029E2  6E3B               	movwf	Beep@frequency^0,c
  5295  0029E4  0E00               	movlw	0
  5296  0029E6  6E3E               	movwf	(Beep@duration+1)^0,c
  5297  0029E8  0E67               	movlw	103
  5298  0029EA  6E3D               	movwf	Beep@duration^0,c
  5299  0029EC  EC33  F034         	call	_Beep	;wreg free
  5300                           
  5301                           ;main.c: 597:  sleep(107);
  5302  0029F0  0E00               	movlw	0
  5303  0029F2  6E03               	movwf	(sleep@ms+1)^0,c
  5304  0029F4  0E6B               	movlw	107
  5305  0029F6  6E02               	movwf	sleep@ms^0,c
  5306  0029F8  EC79  F037         	call	_sleep	;wreg free
  5307                           
  5308                           ;main.c: 598:  Beep(440, 103);
  5309  0029FC  0E01               	movlw	1
  5310  0029FE  6E3C               	movwf	(Beep@frequency+1)^0,c
  5311  002A00  0EED               	movlw	237
  5312  002A02  6E3B               	movwf	Beep@frequency^0,c
  5313  002A04  0E00               	movlw	0
  5314  002A06  6E3E               	movwf	(Beep@duration+1)^0,c
  5315  002A08  0E67               	movlw	103
  5316  002A0A  6E3D               	movwf	Beep@duration^0,c
  5317  002A0C  EC33  F034         	call	_Beep	;wreg free
  5318                           
  5319                           ;main.c: 599:  sleep(1);
  5320  002A10  0E00               	movlw	0
  5321  002A12  6E03               	movwf	(sleep@ms+1)^0,c
  5322  002A14  0E6A               	movlw	106
  5323  002A16  6E02               	movwf	sleep@ms^0,c
  5324  002A18  EC79  F037         	call	_sleep	;wreg free
  5325                           
  5326                           ;main.c: 600:  Beep(103, 95);
  5327  002A1C  0E02               	movlw	2
  5328  002A1E  6E3C               	movwf	(Beep@frequency+1)^0,c
  5329  002A20  0E2A               	movlw	42
  5330  002A22  6E3B               	movwf	Beep@frequency^0,c
  5331  002A24  0E00               	movlw	0
  5332  002A26  6E3E               	movwf	(Beep@duration+1)^0,c
  5333  002A28  0E67               	movlw	103
  5334  002A2A  6E3D               	movwf	Beep@duration^0,c
  5335  002A2C  EC33  F034         	call	_Beep	;wreg free
  5336                           
  5337                           ;main.c: 601:  sleep(9);
  5338  002A30  0E00               	movlw	0
  5339  002A32  6E03               	movwf	(sleep@ms+1)^0,c
  5340  002A34  0E6B               	movlw	107
  5341  002A36  6E02               	movwf	sleep@ms^0,c
  5342  002A38  EC79  F037         	call	_sleep	;wreg free
  5343                           
  5344                           ;main.c: 602:  Beep(739, 103);
  5345  002A3C  0E01               	movlw	1
  5346  002A3E  6E3C               	movwf	(Beep@frequency+1)^0,c
  5347  002A40  0E71               	movlw	113
  5348  002A42  6E3B               	movwf	Beep@frequency^0,c
  5349  002A44  0E00               	movlw	0
  5350  002A46  6E3E               	movwf	(Beep@duration+1)^0,c
  5351  002A48  0E67               	movlw	103
  5352  002A4A  6E3D               	movwf	Beep@duration^0,c
  5353  002A4C  EC33  F034         	call	_Beep	;wreg free
  5354                           
  5355                           ;main.c: 603:  sleep(107);
  5356  002A50  0E00               	movlw	0
  5357  002A52  6E03               	movwf	(sleep@ms+1)^0,c
  5358  002A54  0E01               	movlw	1
  5359  002A56  6E02               	movwf	sleep@ms^0,c
  5360  002A58  EC79  F037         	call	_sleep	;wreg free
  5361                           
  5362                           ;main.c: 604:  Beep(880, 756);
  5363  002A5C  0E00               	movlw	0
  5364  002A5E  6E3C               	movwf	(Beep@frequency+1)^0,c
  5365  002A60  0E57               	movlw	87
  5366  002A62  6E3B               	movwf	Beep@frequency^0,c
  5367  002A64  0E00               	movlw	0
  5368  002A66  6E3E               	movwf	(Beep@duration+1)^0,c
  5369  002A68  0E5F               	movlw	95
  5370  002A6A  6E3D               	movwf	Beep@duration^0,c
  5371  002A6C  EC33  F034         	call	_Beep	;wreg free
  5372                           
  5373                           ;main.c: 605:  sleep(82);
  5374  002A70  0E00               	movlw	0
  5375  002A72  6E03               	movwf	(sleep@ms+1)^0,c
  5376  002A74  0E09               	movlw	9
  5377  002A76  6E02               	movwf	sleep@ms^0,c
  5378  002A78  EC79  F037         	call	_sleep	;wreg free
  5379                           
  5380                           ;main.c: 606:  Beep(369, 103);
  5381  002A7C  0E02               	movlw	2
  5382  002A7E  6E3C               	movwf	(Beep@frequency+1)^0,c
  5383  002A80  0E93               	movlw	147
  5384  002A82  6E3B               	movwf	Beep@frequency^0,c
  5385  002A84  0E00               	movlw	0
  5386  002A86  6E3E               	movwf	(Beep@duration+1)^0,c
  5387  002A88  0E67               	movlw	103
  5388  002A8A  6E3D               	movwf	Beep@duration^0,c
  5389  002A8C  EC33  F034         	call	_Beep	;wreg free
  5390                           
  5391                           ;main.c: 607:  sleep(106);
  5392  002A90  0E00               	movlw	0
  5393  002A92  6E03               	movwf	(sleep@ms+1)^0,c
  5394  002A94  0E6B               	movlw	107
  5395  002A96  6E02               	movwf	sleep@ms^0,c
  5396  002A98  EC79  F037         	call	_sleep	;wreg free
  5397                           
  5398                           ;main.c: 608:  Beep(415, 103);
  5399  002A9C  0E02               	movlw	2
  5400  002A9E  6E3C               	movwf	(Beep@frequency+1)^0,c
  5401  002AA0  0EE3               	movlw	227
  5402  002AA2  6E3B               	movwf	Beep@frequency^0,c
  5403  002AA4  0E00               	movlw	0
  5404  002AA6  6E3E               	movwf	(Beep@duration+1)^0,c
  5405  002AA8  0E67               	movlw	103
  5406  002AAA  6E3D               	movwf	Beep@duration^0,c
  5407  002AAC  EC33  F034         	call	_Beep	;wreg free
  5408                           
  5409                           ;main.c: 609:  sleep(107);
  5410  002AB0  0E00               	movlw	0
  5411  002AB2  6E03               	movwf	(sleep@ms+1)^0,c
  5412  002AB4  0E6A               	movlw	106
  5413  002AB6  6E02               	movwf	sleep@ms^0,c
  5414  002AB8  EC79  F037         	call	_sleep	;wreg free
  5415                           
  5416                           ;main.c: 610:  Beep(466, 103);
  5417  002ABC  0E02               	movlw	2
  5418  002ABE  6E3C               	movwf	(Beep@frequency+1)^0,c
  5419  002AC0  0E4B               	movlw	75
  5420  002AC2  6E3B               	movwf	Beep@frequency^0,c
  5421  002AC4  0E00               	movlw	0
  5422  002AC6  6E3E               	movwf	(Beep@duration+1)^0,c
  5423  002AC8  0E67               	movlw	103
  5424  002ACA  6E3D               	movwf	Beep@duration^0,c
  5425  002ACC  EC33  F034         	call	_Beep	;wreg free
  5426                           
  5427                           ;main.c: 611:  sleep(1);
  5428  002AD0  0E00               	movlw	0
  5429  002AD2  6E03               	movwf	(sleep@ms+1)^0,c
  5430  002AD4  0E6B               	movlw	107
  5431  002AD6  6E02               	movwf	sleep@ms^0,c
  5432  002AD8  EC79  F037         	call	_sleep	;wreg free
  5433                           
  5434                           ;main.c: 612:  Beep(130, 95);
  5435  002ADC  0E02               	movlw	2
  5436  002ADE  6E3C               	movwf	(Beep@frequency+1)^0,c
  5437  002AE0  0EE3               	movlw	227
  5438  002AE2  6E3B               	movwf	Beep@frequency^0,c
  5439  002AE4  0E00               	movlw	0
  5440  002AE6  6E3E               	movwf	(Beep@duration+1)^0,c
  5441  002AE8  0E67               	movlw	103
  5442  002AEA  6E3D               	movwf	Beep@duration^0,c
  5443  002AEC  EC33  F034         	call	_Beep	;wreg free
  5444                           
  5445                           ;main.c: 613:  sleep(9);
  5446  002AF0  0E00               	movlw	0
  5447  002AF2  6E03               	movwf	(sleep@ms+1)^0,c
  5448  002AF4  0E01               	movlw	1
  5449  002AF6  6E02               	movwf	sleep@ms^0,c
  5450  002AF8  EC79  F037         	call	_sleep	;wreg free
  5451                           
  5452                           ;main.c: 614:  Beep(493, 103);
  5453  002AFC  0E00               	movlw	0
  5454  002AFE  6E3C               	movwf	(Beep@frequency+1)^0,c
  5455  002B00  0E57               	movlw	87
  5456  002B02  6E3B               	movwf	Beep@frequency^0,c
  5457  002B04  0E00               	movlw	0
  5458  002B06  6E3E               	movwf	(Beep@duration+1)^0,c
  5459  002B08  0E5F               	movlw	95
  5460  002B0A  6E3D               	movwf	Beep@duration^0,c
  5461  002B0C  EC33  F034         	call	_Beep	;wreg free
  5462                           
  5463                           ;main.c: 615:  sleep(107);
  5464  002B10  0E00               	movlw	0
  5465  002B12  6E03               	movwf	(sleep@ms+1)^0,c
  5466  002B14  0E09               	movlw	9
  5467  002B16  6E02               	movwf	sleep@ms^0,c
  5468  002B18  EC79  F037         	call	_sleep	;wreg free
  5469                           
  5470                           ;main.c: 616:  Beep(554, 103);
  5471  002B1C  0E03               	movlw	3
  5472  002B1E  6E3C               	movwf	(Beep@frequency+1)^0,c
  5473  002B20  0EDB               	movlw	219
  5474  002B22  6E3B               	movwf	Beep@frequency^0,c
  5475  002B24  0E00               	movlw	0
  5476  002B26  6E3E               	movwf	(Beep@duration+1)^0,c
  5477  002B28  0E67               	movlw	103
  5478  002B2A  6E3D               	movwf	Beep@duration^0,c
  5479  002B2C  EC33  F034         	call	_Beep	;wreg free
  5480                           
  5481                           ;main.c: 617:  sleep(106);
  5482  002B30  0E00               	movlw	0
  5483  002B32  6E03               	movwf	(sleep@ms+1)^0,c
  5484  002B34  0E6B               	movlw	107
  5485  002B36  6E02               	movwf	sleep@ms^0,c
  5486  002B38  EC79  F037         	call	_sleep	;wreg free
  5487                           
  5488                           ;main.c: 618:  Beep(466, 103);
  5489  002B3C  0E03               	movlw	3
  5490  002B3E  6E3C               	movwf	(Beep@frequency+1)^0,c
  5491  002B40  0E70               	movlw	112
  5492  002B42  6E3B               	movwf	Beep@frequency^0,c
  5493  002B44  0E00               	movlw	0
  5494  002B46  6E3E               	movwf	(Beep@duration+1)^0,c
  5495  002B48  0E67               	movlw	103
  5496  002B4A  6E3D               	movwf	Beep@duration^0,c
  5497  002B4C  EC33  F034         	call	_Beep	;wreg free
  5498                           
  5499                           ;main.c: 619:  sleep(107);
  5500  002B50  0E00               	movlw	0
  5501  002B52  6E03               	movwf	(sleep@ms+1)^0,c
  5502  002B54  0E6A               	movlw	106
  5503  002B56  6E02               	movwf	sleep@ms^0,c
  5504  002B58  EC79  F037         	call	_sleep	;wreg free
  5505                           
  5506                           ;main.c: 620:  Beep(554, 205);
  5507  002B5C  0E02               	movlw	2
  5508  002B5E  6E3C               	movwf	(Beep@frequency+1)^0,c
  5509  002B60  0EE3               	movlw	227
  5510  002B62  6E3B               	movwf	Beep@frequency^0,c
  5511  002B64  0E00               	movlw	0
  5512  002B66  6E3E               	movwf	(Beep@duration+1)^0,c
  5513  002B68  0E67               	movlw	103
  5514  002B6A  6E3D               	movwf	Beep@duration^0,c
  5515  002B6C  EC33  F034         	call	_Beep	;wreg free
  5516                           
  5517                           ;main.c: 621:  sleep(3);
  5518  002B70  0E00               	movlw	0
  5519  002B72  6E03               	movwf	(sleep@ms+1)^0,c
  5520  002B74  0E6B               	movlw	107
  5521  002B76  6E02               	movwf	sleep@ms^0,c
  5522  002B78  EC79  F037         	call	_sleep	;wreg free
  5523                           
  5524                           ;main.c: 622:  Beep(138, 103);
  5525  002B7C  0E01               	movlw	1
  5526  002B7E  6E3C               	movwf	(Beep@frequency+1)^0,c
  5527  002B80  0EB8               	movlw	184
  5528  002B82  6E3B               	movwf	Beep@frequency^0,c
  5529  002B84  0E00               	movlw	0
  5530  002B86  6E3E               	movwf	(Beep@duration+1)^0,c
  5531  002B88  0E67               	movlw	103
  5532  002B8A  6E3D               	movwf	Beep@duration^0,c
  5533  002B8C  EC33  F034         	call	_Beep	;wreg free
  5534                           
  5535                           ;main.c: 623:  sleep(107);
  5536  002B90  0E00               	movlw	0
  5537  002B92  6E03               	movwf	(sleep@ms+1)^0,c
  5538  002B94  0E01               	movlw	1
  5539  002B96  6E02               	movwf	sleep@ms^0,c
  5540  002B98  EC79  F037         	call	_sleep	;wreg free
  5541                           
  5542                           ;main.c: 624:  Beep(587, 103);
  5543  002B9C  0E00               	movlw	0
  5544  002B9E  6E3C               	movwf	(Beep@frequency+1)^0,c
  5545  002BA0  0E67               	movlw	103
  5546  002BA2  6E3B               	movwf	Beep@frequency^0,c
  5547  002BA4  0E00               	movlw	0
  5548  002BA6  6E3E               	movwf	(Beep@duration+1)^0,c
  5549  002BA8  0E5F               	movlw	95
  5550  002BAA  6E3D               	movwf	Beep@duration^0,c
  5551  002BAC  EC33  F034         	call	_Beep	;wreg free
  5552                           
  5553                           ;main.c: 625:  sleep(106);
  5554  002BB0  0E00               	movlw	0
  5555  002BB2  6E03               	movwf	(sleep@ms+1)^0,c
  5556  002BB4  0E09               	movlw	9
  5557  002BB6  6E02               	movwf	sleep@ms^0,c
  5558  002BB8  EC79  F037         	call	_sleep	;wreg free
  5559                           
  5560                           ;main.c: 626:  Beep(466, 103);
  5561  002BBC  0E02               	movlw	2
  5562  002BBE  6E3C               	movwf	(Beep@frequency+1)^0,c
  5563  002BC0  0EE3               	movlw	227
  5564  002BC2  6E3B               	movwf	Beep@frequency^0,c
  5565  002BC4  0E00               	movlw	0
  5566  002BC6  6E3E               	movwf	(Beep@duration+1)^0,c
  5567  002BC8  0E67               	movlw	103
  5568  002BCA  6E3D               	movwf	Beep@duration^0,c
  5569  002BCC  EC33  F034         	call	_Beep	;wreg free
  5570                           
  5571                           ;main.c: 627:  sleep(107);
  5572  002BD0  0E00               	movlw	0
  5573  002BD2  6E03               	movwf	(sleep@ms+1)^0,c
  5574  002BD4  0E6B               	movlw	107
  5575  002BD6  6E02               	movwf	sleep@ms^0,c
  5576  002BD8  EC79  F037         	call	_sleep	;wreg free
  5577                           
  5578                           ;main.c: 628:  Beep(587, 205);
  5579  002BDC  0E03               	movlw	3
  5580  002BDE  6E3C               	movwf	(Beep@frequency+1)^0,c
  5581  002BE0  0E70               	movlw	112
  5582  002BE2  6E3B               	movwf	Beep@frequency^0,c
  5583  002BE4  0E02               	movlw	2
  5584  002BE6  6E3E               	movwf	(Beep@duration+1)^0,c
  5585  002BE8  0EF4               	movlw	244
  5586  002BEA  6E3D               	movwf	Beep@duration^0,c
  5587  002BEC  EC33  F034         	call	_Beep	;wreg free
  5588                           
  5589                           ;main.c: 629:  sleep(3);
  5590  002BF0  0E00               	movlw	0
  5591  002BF2  6E03               	movwf	(sleep@ms+1)^0,c
  5592  002BF4  0E52               	movlw	82
  5593  002BF6  6E02               	movwf	sleep@ms^0,c
  5594  002BF8  EC79  F037         	call	_sleep	;wreg free
  5595                           
  5596                           ;main.c: 630:  Beep(146, 103);
  5597  002BFC  0E01               	movlw	1
  5598  002BFE  6E3C               	movwf	(Beep@frequency+1)^0,c
  5599  002C00  0E71               	movlw	113
  5600  002C02  6E3B               	movwf	Beep@frequency^0,c
  5601  002C04  0E00               	movlw	0
  5602  002C06  6E3E               	movwf	(Beep@duration+1)^0,c
  5603  002C08  0E67               	movlw	103
  5604  002C0A  6E3D               	movwf	Beep@duration^0,c
  5605  002C0C  EC33  F034         	call	_Beep	;wreg free
  5606                           
  5607                           ;main.c: 631:  sleep(107);
  5608  002C10  0E00               	movlw	0
  5609  002C12  6E03               	movwf	(sleep@ms+1)^0,c
  5610  002C14  0E6A               	movlw	106
  5611  002C16  6E02               	movwf	sleep@ms^0,c
  5612  002C18  EC79  F037         	call	_sleep	;wreg free
  5613                           
  5614                           ;main.c: 632:  Beep(554, 103);
  5615  002C1C  0E01               	movlw	1
  5616  002C1E  6E3C               	movwf	(Beep@frequency+1)^0,c
  5617  002C20  0E9F               	movlw	159
  5618  002C22  6E3B               	movwf	Beep@frequency^0,c
  5619  002C24  0E00               	movlw	0
  5620  002C26  6E3E               	movwf	(Beep@duration+1)^0,c
  5621  002C28  0E67               	movlw	103
  5622  002C2A  6E3D               	movwf	Beep@duration^0,c
  5623  002C2C  EC33  F034         	call	_Beep	;wreg free
  5624                           
  5625                           ;main.c: 633:  sleep(106);
  5626  002C30  0E00               	movlw	0
  5627  002C32  6E03               	movwf	(sleep@ms+1)^0,c
  5628  002C34  0E6B               	movlw	107
  5629  002C36  6E02               	movwf	sleep@ms^0,c
  5630  002C38  EC79  F037         	call	_sleep	;wreg free
  5631                           
  5632                           ;main.c: 634:  Beep(466, 103);
  5633  002C3C  0E01               	movlw	1
  5634  002C3E  6E3C               	movwf	(Beep@frequency+1)^0,c
  5635  002C40  0ED2               	movlw	210
  5636  002C42  6E3B               	movwf	Beep@frequency^0,c
  5637  002C44  0E00               	movlw	0
  5638  002C46  6E3E               	movwf	(Beep@duration+1)^0,c
  5639  002C48  0E67               	movlw	103
  5640  002C4A  6E3D               	movwf	Beep@duration^0,c
  5641  002C4C  EC33  F034         	call	_Beep	;wreg free
  5642                           
  5643                           ;main.c: 635:  sleep(107);
  5644  002C50  0E00               	movlw	0
  5645  002C52  6E03               	movwf	(sleep@ms+1)^0,c
  5646  002C54  0E01               	movlw	1
  5647  002C56  6E02               	movwf	sleep@ms^0,c
  5648  002C58  EC79  F037         	call	_sleep	;wreg free
  5649                           
  5650                           ;main.c: 636:  Beep(554, 205);
  5651  002C5C  0E00               	movlw	0
  5652  002C5E  6E3C               	movwf	(Beep@frequency+1)^0,c
  5653  002C60  0E82               	movlw	130
  5654  002C62  6E3B               	movwf	Beep@frequency^0,c
  5655  002C64  0E00               	movlw	0
  5656  002C66  6E3E               	movwf	(Beep@duration+1)^0,c
  5657  002C68  0E5F               	movlw	95
  5658  002C6A  6E3D               	movwf	Beep@duration^0,c
  5659  002C6C  EC33  F034         	call	_Beep	;wreg free
  5660                           
  5661                           ;main.c: 637:  sleep(3);
  5662  002C70  0E00               	movlw	0
  5663  002C72  6E03               	movwf	(sleep@ms+1)^0,c
  5664  002C74  0E09               	movlw	9
  5665  002C76  6E02               	movwf	sleep@ms^0,c
  5666  002C78  EC79  F037         	call	_sleep	;wreg free
  5667                           
  5668                           ;main.c: 638:  Beep(138, 103);
  5669  002C7C  0E01               	movlw	1
  5670  002C7E  6E3C               	movwf	(Beep@frequency+1)^0,c
  5671  002C80  0EED               	movlw	237
  5672  002C82  6E3B               	movwf	Beep@frequency^0,c
  5673  002C84  0E00               	movlw	0
  5674  002C86  6E3E               	movwf	(Beep@duration+1)^0,c
  5675  002C88  0E67               	movlw	103
  5676  002C8A  6E3D               	movwf	Beep@duration^0,c
  5677  002C8C  EC33  F034         	call	_Beep	;wreg free
  5678                           
  5679                           ;main.c: 639:  sleep(107);
  5680  002C90  0E00               	movlw	0
  5681  002C92  6E03               	movwf	(sleep@ms+1)^0,c
  5682  002C94  0E6B               	movlw	107
  5683  002C96  6E02               	movwf	sleep@ms^0,c
  5684  002C98  EC79  F037         	call	_sleep	;wreg free
  5685                           
  5686                           ;main.c: 640:  Beep(369, 103);
  5687  002C9C  0E02               	movlw	2
  5688  002C9E  6E3C               	movwf	(Beep@frequency+1)^0,c
  5689  002CA0  0E2A               	movlw	42
  5690  002CA2  6E3B               	movwf	Beep@frequency^0,c
  5691  002CA4  0E00               	movlw	0
  5692  002CA6  6E3E               	movwf	(Beep@duration+1)^0,c
  5693  002CA8  0E67               	movlw	103
  5694  002CAA  6E3D               	movwf	Beep@duration^0,c
  5695  002CAC  EC33  F034         	call	_Beep	;wreg free
  5696                           
  5697                           ;main.c: 641:  sleep(106);
  5698  002CB0  0E00               	movlw	0
  5699  002CB2  6E03               	movwf	(sleep@ms+1)^0,c
  5700  002CB4  0E6A               	movlw	106
  5701  002CB6  6E02               	movwf	sleep@ms^0,c
  5702  002CB8  EC79  F037         	call	_sleep	;wreg free
  5703                           
  5704                           ;main.c: 642:  Beep(415, 103);
  5705  002CBC  0E01               	movlw	1
  5706  002CBE  6E3C               	movwf	(Beep@frequency+1)^0,c
  5707  002CC0  0ED2               	movlw	210
  5708  002CC2  6E3B               	movwf	Beep@frequency^0,c
  5709  002CC4  0E00               	movlw	0
  5710  002CC6  6E3E               	movwf	(Beep@duration+1)^0,c
  5711  002CC8  0E67               	movlw	103
  5712  002CCA  6E3D               	movwf	Beep@duration^0,c
  5713  002CCC  EC33  F034         	call	_Beep	;wreg free
  5714                           
  5715                           ;main.c: 643:  sleep(107);
  5716  002CD0  0E00               	movlw	0
  5717  002CD2  6E03               	movwf	(sleep@ms+1)^0,c
  5718  002CD4  0E6B               	movlw	107
  5719  002CD6  6E02               	movwf	sleep@ms^0,c
  5720  002CD8  EC79  F037         	call	_sleep	;wreg free
  5721                           
  5722                           ;main.c: 644:  Beep(466, 103);
  5723  002CDC  0E02               	movlw	2
  5724  002CDE  6E3C               	movwf	(Beep@frequency+1)^0,c
  5725  002CE0  0E2A               	movlw	42
  5726  002CE2  6E3B               	movwf	Beep@frequency^0,c
  5727  002CE4  0E00               	movlw	0
  5728  002CE6  6E3E               	movwf	(Beep@duration+1)^0,c
  5729  002CE8  0ECD               	movlw	205
  5730  002CEA  6E3D               	movwf	Beep@duration^0,c
  5731  002CEC  EC33  F034         	call	_Beep	;wreg free
  5732                           
  5733                           ;main.c: 645:  sleep(1);
  5734  002CF0  0E00               	movlw	0
  5735  002CF2  6E03               	movwf	(sleep@ms+1)^0,c
  5736  002CF4  0E03               	movlw	3
  5737  002CF6  6E02               	movwf	sleep@ms^0,c
  5738  002CF8  EC79  F037         	call	_sleep	;wreg free
  5739                           
  5740                           ;main.c: 646:  Beep(130, 95);
  5741  002CFC  0E00               	movlw	0
  5742  002CFE  6E3C               	movwf	(Beep@frequency+1)^0,c
  5743  002D00  0E8A               	movlw	138
  5744  002D02  6E3B               	movwf	Beep@frequency^0,c
  5745  002D04  0E00               	movlw	0
  5746  002D06  6E3E               	movwf	(Beep@duration+1)^0,c
  5747  002D08  0E67               	movlw	103
  5748  002D0A  6E3D               	movwf	Beep@duration^0,c
  5749  002D0C  EC33  F034         	call	_Beep	;wreg free
  5750                           
  5751                           ;main.c: 647:  sleep(9);
  5752  002D10  0E00               	movlw	0
  5753  002D12  6E03               	movwf	(sleep@ms+1)^0,c
  5754  002D14  0E6B               	movlw	107
  5755  002D16  6E02               	movwf	sleep@ms^0,c
  5756  002D18  EC79  F037         	call	_sleep	;wreg free
  5757                           
  5758                           ;main.c: 648:  Beep(493, 103);
  5759  002D1C  0E02               	movlw	2
  5760  002D1E  6E3C               	movwf	(Beep@frequency+1)^0,c
  5761  002D20  0E4B               	movlw	75
  5762  002D22  6E3B               	movwf	Beep@frequency^0,c
  5763  002D24  0E00               	movlw	0
  5764  002D26  6E3E               	movwf	(Beep@duration+1)^0,c
  5765  002D28  0E67               	movlw	103
  5766  002D2A  6E3D               	movwf	Beep@duration^0,c
  5767  002D2C  EC33  F034         	call	_Beep	;wreg free
  5768                           
  5769                           ;main.c: 649:  sleep(107);
  5770  002D30  0E00               	movlw	0
  5771  002D32  6E03               	movwf	(sleep@ms+1)^0,c
  5772  002D34  0E6A               	movlw	106
  5773  002D36  6E02               	movwf	sleep@ms^0,c
  5774  002D38  EC79  F037         	call	_sleep	;wreg free
  5775                           
  5776                           ;main.c: 650:  Beep(554, 103);
  5777  002D3C  0E01               	movlw	1
  5778  002D3E  6E3C               	movwf	(Beep@frequency+1)^0,c
  5779  002D40  0ED2               	movlw	210
  5780  002D42  6E3B               	movwf	Beep@frequency^0,c
  5781  002D44  0E00               	movlw	0
  5782  002D46  6E3E               	movwf	(Beep@duration+1)^0,c
  5783  002D48  0E67               	movlw	103
  5784  002D4A  6E3D               	movwf	Beep@duration^0,c
  5785  002D4C  EC33  F034         	call	_Beep	;wreg free
  5786                           
  5787                           ;main.c: 651:  sleep(106);
  5788  002D50  0E00               	movlw	0
  5789  002D52  6E03               	movwf	(sleep@ms+1)^0,c
  5790  002D54  0E6B               	movlw	107
  5791  002D56  6E02               	movwf	sleep@ms^0,c
  5792  002D58  EC79  F037         	call	_sleep	;wreg free
  5793                           
  5794                           ;main.c: 652:  Beep(466, 103);
  5795  002D5C  0E02               	movlw	2
  5796  002D5E  6E3C               	movwf	(Beep@frequency+1)^0,c
  5797  002D60  0E4B               	movlw	75
  5798  002D62  6E3B               	movwf	Beep@frequency^0,c
  5799  002D64  0E00               	movlw	0
  5800  002D66  6E3E               	movwf	(Beep@duration+1)^0,c
  5801  002D68  0ECD               	movlw	205
  5802  002D6A  6E3D               	movwf	Beep@duration^0,c
  5803  002D6C  EC33  F034         	call	_Beep	;wreg free
  5804                           
  5805                           ;main.c: 653:  sleep(107);
  5806  002D70  0E00               	movlw	0
  5807  002D72  6E03               	movwf	(sleep@ms+1)^0,c
  5808  002D74  0E03               	movlw	3
  5809  002D76  6E02               	movwf	sleep@ms^0,c
  5810  002D78  EC79  F037         	call	_sleep	;wreg free
  5811                           
  5812                           ;main.c: 654:  Beep(554, 205);
  5813  002D7C  0E00               	movlw	0
  5814  002D7E  6E3C               	movwf	(Beep@frequency+1)^0,c
  5815  002D80  0E92               	movlw	146
  5816  002D82  6E3B               	movwf	Beep@frequency^0,c
  5817  002D84  0E00               	movlw	0
  5818  002D86  6E3E               	movwf	(Beep@duration+1)^0,c
  5819  002D88  0E67               	movlw	103
  5820  002D8A  6E3D               	movwf	Beep@duration^0,c
  5821  002D8C  EC33  F034         	call	_Beep	;wreg free
  5822                           
  5823                           ;main.c: 655:  sleep(3);
  5824  002D90  0E00               	movlw	0
  5825  002D92  6E03               	movwf	(sleep@ms+1)^0,c
  5826  002D94  0E6B               	movlw	107
  5827  002D96  6E02               	movwf	sleep@ms^0,c
  5828  002D98  EC79  F037         	call	_sleep	;wreg free
  5829                           
  5830                           ;main.c: 656:  Beep(138, 103);
  5831  002D9C  0E02               	movlw	2
  5832  002D9E  6E3C               	movwf	(Beep@frequency+1)^0,c
  5833  002DA0  0E2A               	movlw	42
  5834  002DA2  6E3B               	movwf	Beep@frequency^0,c
  5835  002DA4  0E00               	movlw	0
  5836  002DA6  6E3E               	movwf	(Beep@duration+1)^0,c
  5837  002DA8  0E67               	movlw	103
  5838  002DAA  6E3D               	movwf	Beep@duration^0,c
  5839  002DAC  EC33  F034         	call	_Beep	;wreg free
  5840                           
  5841                           ;main.c: 657:  sleep(107);
  5842  002DB0  0E00               	movlw	0
  5843  002DB2  6E03               	movwf	(sleep@ms+1)^0,c
  5844  002DB4  0E6A               	movlw	106
  5845  002DB6  6E02               	movwf	sleep@ms^0,c
  5846  002DB8  EC79  F037         	call	_sleep	;wreg free
  5847                           
  5848                           ;main.c: 658:  Beep(587, 103);
  5849  002DBC  0E01               	movlw	1
  5850  002DBE  6E3C               	movwf	(Beep@frequency+1)^0,c
  5851  002DC0  0ED2               	movlw	210
  5852  002DC2  6E3B               	movwf	Beep@frequency^0,c
  5853  002DC4  0E00               	movlw	0
  5854  002DC6  6E3E               	movwf	(Beep@duration+1)^0,c
  5855  002DC8  0E67               	movlw	103
  5856  002DCA  6E3D               	movwf	Beep@duration^0,c
  5857  002DCC  EC33  F034         	call	_Beep	;wreg free
  5858                           
  5859                           ;main.c: 659:  sleep(106);
  5860  002DD0  0E00               	movlw	0
  5861  002DD2  6E03               	movwf	(sleep@ms+1)^0,c
  5862  002DD4  0E6B               	movlw	107
  5863  002DD6  6E02               	movwf	sleep@ms^0,c
  5864  002DD8  EC79  F037         	call	_sleep	;wreg free
  5865                           
  5866                           ;main.c: 660:  Beep(466, 103);
  5867  002DDC  0E02               	movlw	2
  5868  002DDE  6E3C               	movwf	(Beep@frequency+1)^0,c
  5869  002DE0  0E2A               	movlw	42
  5870  002DE2  6E3B               	movwf	Beep@frequency^0,c
  5871  002DE4  0E00               	movlw	0
  5872  002DE6  6E3E               	movwf	(Beep@duration+1)^0,c
  5873  002DE8  0ECD               	movlw	205
  5874  002DEA  6E3D               	movwf	Beep@duration^0,c
  5875  002DEC  EC33  F034         	call	_Beep	;wreg free
  5876                           
  5877                           ;main.c: 661:  sleep(107);
  5878  002DF0  0E00               	movlw	0
  5879  002DF2  6E03               	movwf	(sleep@ms+1)^0,c
  5880  002DF4  0E03               	movlw	3
  5881  002DF6  6E02               	movwf	sleep@ms^0,c
  5882  002DF8  EC79  F037         	call	_sleep	;wreg free
  5883                           
  5884                           ;main.c: 662:  Beep(587, 205);
  5885  002DFC  0E00               	movlw	0
  5886  002DFE  6E3C               	movwf	(Beep@frequency+1)^0,c
  5887  002E00  0E8A               	movlw	138
  5888  002E02  6E3B               	movwf	Beep@frequency^0,c
  5889  002E04  0E00               	movlw	0
  5890  002E06  6E3E               	movwf	(Beep@duration+1)^0,c
  5891  002E08  0E67               	movlw	103
  5892  002E0A  6E3D               	movwf	Beep@duration^0,c
  5893  002E0C  EC33  F034         	call	_Beep	;wreg free
  5894                           
  5895                           ;main.c: 663:  sleep(3);
  5896  002E10  0E00               	movlw	0
  5897  002E12  6E03               	movwf	(sleep@ms+1)^0,c
  5898  002E14  0E6B               	movlw	107
  5899  002E16  6E02               	movwf	sleep@ms^0,c
  5900  002E18  EC79  F037         	call	_sleep	;wreg free
  5901                           
  5902                           ;main.c: 664:  Beep(146, 103);
  5903  002E1C  0E01               	movlw	1
  5904  002E1E  6E3C               	movwf	(Beep@frequency+1)^0,c
  5905  002E20  0E71               	movlw	113
  5906  002E22  6E3B               	movwf	Beep@frequency^0,c
  5907  002E24  0E00               	movlw	0
  5908  002E26  6E3E               	movwf	(Beep@duration+1)^0,c
  5909  002E28  0E67               	movlw	103
  5910  002E2A  6E3D               	movwf	Beep@duration^0,c
  5911  002E2C  EC33  F034         	call	_Beep	;wreg free
  5912                           
  5913                           ;main.c: 665:  sleep(107);
  5914  002E30  0E00               	movlw	0
  5915  002E32  6E03               	movwf	(sleep@ms+1)^0,c
  5916  002E34  0E6A               	movlw	106
  5917  002E36  6E02               	movwf	sleep@ms^0,c
  5918  002E38  EC79  F037         	call	_sleep	;wreg free
  5919                           
  5920                           ;main.c: 666:  Beep(554, 413);
  5921  002E3C  0E01               	movlw	1
  5922  002E3E  6E3C               	movwf	(Beep@frequency+1)^0,c
  5923  002E40  0E9F               	movlw	159
  5924  002E42  6E3B               	movwf	Beep@frequency^0,c
  5925  002E44  0E00               	movlw	0
  5926  002E46  6E3E               	movwf	(Beep@duration+1)^0,c
  5927  002E48  0E67               	movlw	103
  5928  002E4A  6E3D               	movwf	Beep@duration^0,c
  5929  002E4C  EC33  F034         	call	_Beep	;wreg free
  5930                           
  5931                           ;main.c: 667:  sleep(8);
  5932  002E50  0E00               	movlw	0
  5933  002E52  6E03               	movwf	(sleep@ms+1)^0,c
  5934  002E54  0E6B               	movlw	107
  5935  002E56  6E02               	movwf	sleep@ms^0,c
  5936  002E58  EC79  F037         	call	_sleep	;wreg free
  5937                           
  5938                           ;main.c: 668:  Beep(369, 377);
  5939  002E5C  0E01               	movlw	1
  5940  002E5E  6E3C               	movwf	(Beep@frequency+1)^0,c
  5941  002E60  0ED2               	movlw	210
  5942  002E62  6E3B               	movwf	Beep@frequency^0,c
  5943  002E64  0E00               	movlw	0
  5944  002E66  6E3E               	movwf	(Beep@duration+1)^0,c
  5945  002E68  0E67               	movlw	103
  5946  002E6A  6E3D               	movwf	Beep@duration^0,c
  5947  002E6C  EC33  F034         	call	_Beep	;wreg free
  5948                           
  5949                           ;main.c: 669:  sleep(41);
  5950  002E70  0E00               	movlw	0
  5951  002E72  6E03               	movwf	(sleep@ms+1)^0,c
  5952  002E74  0E01               	movlw	1
  5953  002E76  6E02               	movwf	sleep@ms^0,c
  5954  002E78  EC79  F037         	call	_sleep	;wreg free
  5955                           
  5956                           ;main.c: 670:  Beep(739, 103);
  5957  002E7C  0E00               	movlw	0
  5958  002E7E  6E3C               	movwf	(Beep@frequency+1)^0,c
  5959  002E80  0E82               	movlw	130
  5960  002E82  6E3B               	movwf	Beep@frequency^0,c
  5961  002E84  0E00               	movlw	0
  5962  002E86  6E3E               	movwf	(Beep@duration+1)^0,c
  5963  002E88  0E5F               	movlw	95
  5964  002E8A  6E3D               	movwf	Beep@duration^0,c
  5965  002E8C  EC33  F034         	call	_Beep	;wreg free
  5966                           
  5967                           ;main.c: 671:  sleep(106);
  5968  002E90  0E00               	movlw	0
  5969  002E92  6E03               	movwf	(sleep@ms+1)^0,c
  5970  002E94  0E09               	movlw	9
  5971  002E96  6E02               	movwf	sleep@ms^0,c
  5972  002E98  EC79  F037         	call	_sleep	;wreg free
  5973                           
  5974                           ;main.c: 672:  Beep(830, 103);
  5975  002E9C  0E01               	movlw	1
  5976  002E9E  6E3C               	movwf	(Beep@frequency+1)^0,c
  5977  002EA0  0EED               	movlw	237
  5978  002EA2  6E3B               	movwf	Beep@frequency^0,c
  5979  002EA4  0E00               	movlw	0
  5980  002EA6  6E3E               	movwf	(Beep@duration+1)^0,c
  5981  002EA8  0E67               	movlw	103
  5982  002EAA  6E3D               	movwf	Beep@duration^0,c
  5983  002EAC  EC33  F034         	call	_Beep	;wreg free
  5984                           
  5985                           ;main.c: 673:  sleep(107);
  5986  002EB0  0E00               	movlw	0
  5987  002EB2  6E03               	movwf	(sleep@ms+1)^0,c
  5988  002EB4  0E6B               	movlw	107
  5989  002EB6  6E02               	movwf	sleep@ms^0,c
  5990  002EB8  EC79  F037         	call	_sleep	;wreg free
  5991                           
  5992                           ;main.c: 674:  Beep(932, 103);
  5993  002EBC  0E02               	movlw	2
  5994  002EBE  6E3C               	movwf	(Beep@frequency+1)^0,c
  5995  002EC0  0E2A               	movlw	42
  5996  002EC2  6E3B               	movwf	Beep@frequency^0,c
  5997  002EC4  0E00               	movlw	0
  5998  002EC6  6E3E               	movwf	(Beep@duration+1)^0,c
  5999  002EC8  0E67               	movlw	103
  6000  002ECA  6E3D               	movwf	Beep@duration^0,c
  6001  002ECC  EC33  F034         	call	_Beep	;wreg free
  6002                           
  6003                           ;main.c: 675:  sleep(1);
  6004  002ED0  0E00               	movlw	0
  6005  002ED2  6E03               	movwf	(sleep@ms+1)^0,c
  6006  002ED4  0E6A               	movlw	106
  6007  002ED6  6E02               	movwf	sleep@ms^0,c
  6008  002ED8  EC79  F037         	call	_sleep	;wreg free
  6009                           
  6010                           ;main.c: 676:  Beep(130, 95);
  6011  002EDC  0E01               	movlw	1
  6012  002EDE  6E3C               	movwf	(Beep@frequency+1)^0,c
  6013  002EE0  0ED2               	movlw	210
  6014  002EE2  6E3B               	movwf	Beep@frequency^0,c
  6015  002EE4  0E00               	movlw	0
  6016  002EE6  6E3E               	movwf	(Beep@duration+1)^0,c
  6017  002EE8  0E67               	movlw	103
  6018  002EEA  6E3D               	movwf	Beep@duration^0,c
  6019  002EEC  EC33  F034         	call	_Beep	;wreg free
  6020                           
  6021                           ;main.c: 677:  sleep(9);
  6022  002EF0  0E00               	movlw	0
  6023  002EF2  6E03               	movwf	(sleep@ms+1)^0,c
  6024  002EF4  0E6B               	movlw	107
  6025  002EF6  6E02               	movwf	sleep@ms^0,c
  6026  002EF8  EC79  F037         	call	_sleep	;wreg free
  6027                           
  6028                           ;main.c: 678:  Beep(987, 103);
  6029  002EFC  0E02               	movlw	2
  6030  002EFE  6E3C               	movwf	(Beep@frequency+1)^0,c
  6031  002F00  0E2A               	movlw	42
  6032  002F02  6E3B               	movwf	Beep@frequency^0,c
  6033  002F04  0E00               	movlw	0
  6034  002F06  6E3E               	movwf	(Beep@duration+1)^0,c
  6035  002F08  0ECD               	movlw	205
  6036  002F0A  6E3D               	movwf	Beep@duration^0,c
  6037  002F0C  EC33  F034         	call	_Beep	;wreg free
  6038                           
  6039                           ;main.c: 679:  sleep(107);
  6040  002F10  0E00               	movlw	0
  6041  002F12  6E03               	movwf	(sleep@ms+1)^0,c
  6042  002F14  0E03               	movlw	3
  6043  002F16  6E02               	movwf	sleep@ms^0,c
  6044  002F18  EC79  F037         	call	_sleep	;wreg free
  6045                           
  6046                           ;main.c: 680:  Beep(1108, 103);
  6047  002F1C  0E00               	movlw	0
  6048  002F1E  6E3C               	movwf	(Beep@frequency+1)^0,c
  6049  002F20  0E8A               	movlw	138
  6050  002F22  6E3B               	movwf	Beep@frequency^0,c
  6051  002F24  0E00               	movlw	0
  6052  002F26  6E3E               	movwf	(Beep@duration+1)^0,c
  6053  002F28  0E67               	movlw	103
  6054  002F2A  6E3D               	movwf	Beep@duration^0,c
  6055  002F2C  EC33  F034         	call	_Beep	;wreg free
  6056                           
  6057                           ;main.c: 681:  sleep(106);
  6058  002F30  0E00               	movlw	0
  6059  002F32  6E03               	movwf	(sleep@ms+1)^0,c
  6060  002F34  0E6B               	movlw	107
  6061  002F36  6E02               	movwf	sleep@ms^0,c
  6062  002F38  EC79  F037         	call	_sleep	;wreg free
  6063                           
  6064                           ;main.c: 682:  Beep(932, 103);
  6065  002F3C  0E02               	movlw	2
  6066  002F3E  6E3C               	movwf	(Beep@frequency+1)^0,c
  6067  002F40  0E4B               	movlw	75
  6068  002F42  6E3B               	movwf	Beep@frequency^0,c
  6069  002F44  0E00               	movlw	0
  6070  002F46  6E3E               	movwf	(Beep@duration+1)^0,c
  6071  002F48  0E67               	movlw	103
  6072  002F4A  6E3D               	movwf	Beep@duration^0,c
  6073  002F4C  EC33  F034         	call	_Beep	;wreg free
  6074                           
  6075                           ;main.c: 683:  sleep(107);
  6076  002F50  0E00               	movlw	0
  6077  002F52  6E03               	movwf	(sleep@ms+1)^0,c
  6078  002F54  0E6A               	movlw	106
  6079  002F56  6E02               	movwf	sleep@ms^0,c
  6080  002F58  EC79  F037         	call	_sleep	;wreg free
  6081                           
  6082                           ;main.c: 684:  Beep(1108, 205);
  6083  002F5C  0E01               	movlw	1
  6084  002F5E  6E3C               	movwf	(Beep@frequency+1)^0,c
  6085  002F60  0ED2               	movlw	210
  6086  002F62  6E3B               	movwf	Beep@frequency^0,c
  6087  002F64  0E00               	movlw	0
  6088  002F66  6E3E               	movwf	(Beep@duration+1)^0,c
  6089  002F68  0E67               	movlw	103
  6090  002F6A  6E3D               	movwf	Beep@duration^0,c
  6091  002F6C  EC33  F034         	call	_Beep	;wreg free
  6092                           
  6093                           ;main.c: 685:  sleep(3);
  6094  002F70  0E00               	movlw	0
  6095  002F72  6E03               	movwf	(sleep@ms+1)^0,c
  6096  002F74  0E6B               	movlw	107
  6097  002F76  6E02               	movwf	sleep@ms^0,c
  6098  002F78  EC79  F037         	call	_sleep	;wreg free
  6099                           
  6100                           ;main.c: 686:  Beep(138, 103);
  6101  002F7C  0E02               	movlw	2
  6102  002F7E  6E3C               	movwf	(Beep@frequency+1)^0,c
  6103  002F80  0E4B               	movlw	75
  6104  002F82  6E3B               	movwf	Beep@frequency^0,c
  6105  002F84  0E00               	movlw	0
  6106  002F86  6E3E               	movwf	(Beep@duration+1)^0,c
  6107  002F88  0ECD               	movlw	205
  6108  002F8A  6E3D               	movwf	Beep@duration^0,c
  6109  002F8C  EC33  F034         	call	_Beep	;wreg free
  6110                           
  6111                           ;main.c: 687:  sleep(107);
  6112  002F90  0E00               	movlw	0
  6113  002F92  6E03               	movwf	(sleep@ms+1)^0,c
  6114  002F94  0E03               	movlw	3
  6115  002F96  6E02               	movwf	sleep@ms^0,c
  6116  002F98  EC79  F037         	call	_sleep	;wreg free
  6117                           
  6118                           ;main.c: 688:  Beep(1174, 103);
  6119  002F9C  0E00               	movlw	0
  6120  002F9E  6E3C               	movwf	(Beep@frequency+1)^0,c
  6121  002FA0  0E92               	movlw	146
  6122  002FA2  6E3B               	movwf	Beep@frequency^0,c
  6123  002FA4  0E00               	movlw	0
  6124  002FA6  6E3E               	movwf	(Beep@duration+1)^0,c
  6125  002FA8  0E67               	movlw	103
  6126  002FAA  6E3D               	movwf	Beep@duration^0,c
  6127  002FAC  EC33  F034         	call	_Beep	;wreg free
  6128                           
  6129                           ;main.c: 689:  sleep(106);
  6130  002FB0  0E00               	movlw	0
  6131  002FB2  6E03               	movwf	(sleep@ms+1)^0,c
  6132  002FB4  0E6B               	movlw	107
  6133  002FB6  6E02               	movwf	sleep@ms^0,c
  6134  002FB8  EC79  F037         	call	_sleep	;wreg free
  6135                           
  6136                           ;main.c: 690:  Beep(932, 103);
  6137  002FBC  0E02               	movlw	2
  6138  002FBE  6E3C               	movwf	(Beep@frequency+1)^0,c
  6139  002FC0  0E2A               	movlw	42
  6140  002FC2  6E3B               	movwf	Beep@frequency^0,c
  6141  002FC4  0E01               	movlw	1
  6142  002FC6  6E3E               	movwf	(Beep@duration+1)^0,c
  6143  002FC8  0E9D               	movlw	157
  6144  002FCA  6E3D               	movwf	Beep@duration^0,c
  6145  002FCC  EC33  F034         	call	_Beep	;wreg free
  6146                           
  6147                           ;main.c: 691:  sleep(107);
  6148  002FD0  0E00               	movlw	0
  6149  002FD2  6E03               	movwf	(sleep@ms+1)^0,c
  6150  002FD4  0E08               	movlw	8
  6151  002FD6  6E02               	movwf	sleep@ms^0,c
  6152  002FD8  EC79  F037         	call	_sleep	;wreg free
  6153                           
  6154                           ;main.c: 692:  Beep(1174, 205);
  6155  002FDC  0E01               	movlw	1
  6156  002FDE  6E3C               	movwf	(Beep@frequency+1)^0,c
  6157  002FE0  0E71               	movlw	113
  6158  002FE2  6E3B               	movwf	Beep@frequency^0,c
  6159  002FE4  0E01               	movlw	1
  6160  002FE6  6E3E               	movwf	(Beep@duration+1)^0,c
  6161  002FE8  0E79               	movlw	121
  6162  002FEA  6E3D               	movwf	Beep@duration^0,c
  6163  002FEC  EC33  F034         	call	_Beep	;wreg free
  6164                           
  6165                           ;main.c: 693:  sleep(3);
  6166  002FF0  0E00               	movlw	0
  6167  002FF2  6E03               	movwf	(sleep@ms+1)^0,c
  6168  002FF4  0E29               	movlw	41
  6169  002FF6  6E02               	movwf	sleep@ms^0,c
  6170  002FF8  EC79  F037         	call	_sleep	;wreg free
  6171                           
  6172                           ;main.c: 694:  Beep(146, 103);
  6173  002FFC  0E02               	movlw	2
  6174  002FFE  6E3C               	movwf	(Beep@frequency+1)^0,c
  6175  003000  0EE3               	movlw	227
  6176  003002  6E3B               	movwf	Beep@frequency^0,c
  6177  003004  0E00               	movlw	0
  6178  003006  6E3E               	movwf	(Beep@duration+1)^0,c
  6179  003008  0E67               	movlw	103
  6180  00300A  6E3D               	movwf	Beep@duration^0,c
  6181  00300C  EC33  F034         	call	_Beep	;wreg free
  6182                           
  6183                           ;main.c: 695:  sleep(107);
  6184  003010  0E00               	movlw	0
  6185  003012  6E03               	movwf	(sleep@ms+1)^0,c
  6186  003014  0E6A               	movlw	106
  6187  003016  6E02               	movwf	sleep@ms^0,c
  6188  003018  EC79  F037         	call	_sleep	;wreg free
  6189                           
  6190                           ;main.c: 696:  Beep(1108, 103);
  6191  00301C  0E03               	movlw	3
  6192  00301E  6E3C               	movwf	(Beep@frequency+1)^0,c
  6193  003020  0E3E               	movlw	62
  6194  003022  6E3B               	movwf	Beep@frequency^0,c
  6195  003024  0E00               	movlw	0
  6196  003026  6E3E               	movwf	(Beep@duration+1)^0,c
  6197  003028  0E67               	movlw	103
  6198  00302A  6E3D               	movwf	Beep@duration^0,c
  6199  00302C  EC33  F034         	call	_Beep	;wreg free
  6200                           
  6201                           ;main.c: 697:  sleep(106);
  6202  003030  0E00               	movlw	0
  6203  003032  6E03               	movwf	(sleep@ms+1)^0,c
  6204  003034  0E6B               	movlw	107
  6205  003036  6E02               	movwf	sleep@ms^0,c
  6206  003038  EC79  F037         	call	_sleep	;wreg free
  6207                           
  6208                           ;main.c: 698:  Beep(932, 103);
  6209  00303C  0E03               	movlw	3
  6210  00303E  6E3C               	movwf	(Beep@frequency+1)^0,c
  6211  003040  0EA4               	movlw	164
  6212  003042  6E3B               	movwf	Beep@frequency^0,c
  6213  003044  0E00               	movlw	0
  6214  003046  6E3E               	movwf	(Beep@duration+1)^0,c
  6215  003048  0E67               	movlw	103
  6216  00304A  6E3D               	movwf	Beep@duration^0,c
  6217  00304C  EC33  F034         	call	_Beep	;wreg free
  6218                           
  6219                           ;main.c: 699:  sleep(107);
  6220  003050  0E00               	movlw	0
  6221  003052  6E03               	movwf	(sleep@ms+1)^0,c
  6222  003054  0E01               	movlw	1
  6223  003056  6E02               	movwf	sleep@ms^0,c
  6224  003058  EC79  F037         	call	_sleep	;wreg free
  6225                           
  6226                           ;main.c: 700:  Beep(1108, 205);
  6227  00305C  0E00               	movlw	0
  6228  00305E  6E3C               	movwf	(Beep@frequency+1)^0,c
  6229  003060  0E82               	movlw	130
  6230  003062  6E3B               	movwf	Beep@frequency^0,c
  6231  003064  0E00               	movlw	0
  6232  003066  6E3E               	movwf	(Beep@duration+1)^0,c
  6233  003068  0E5F               	movlw	95
  6234  00306A  6E3D               	movwf	Beep@duration^0,c
  6235  00306C  EC33  F034         	call	_Beep	;wreg free
  6236                           
  6237                           ;main.c: 701:  sleep(3);
  6238  003070  0E00               	movlw	0
  6239  003072  6E03               	movwf	(sleep@ms+1)^0,c
  6240  003074  0E09               	movlw	9
  6241  003076  6E02               	movwf	sleep@ms^0,c
  6242  003078  EC79  F037         	call	_sleep	;wreg free
  6243                           
  6244                           ;main.c: 702:  Beep(138, 103);
  6245  00307C  0E03               	movlw	3
  6246  00307E  6E3C               	movwf	(Beep@frequency+1)^0,c
  6247  003080  0EDB               	movlw	219
  6248  003082  6E3B               	movwf	Beep@frequency^0,c
  6249  003084  0E00               	movlw	0
  6250  003086  6E3E               	movwf	(Beep@duration+1)^0,c
  6251  003088  0E67               	movlw	103
  6252  00308A  6E3D               	movwf	Beep@duration^0,c
  6253  00308C  EC33  F034         	call	_Beep	;wreg free
  6254                           
  6255                           ;main.c: 703:  sleep(107);
  6256  003090  0E00               	movlw	0
  6257  003092  6E03               	movwf	(sleep@ms+1)^0,c
  6258  003094  0E6B               	movlw	107
  6259  003096  6E02               	movwf	sleep@ms^0,c
  6260  003098  EC79  F037         	call	_sleep	;wreg free
  6261                           
  6262                           ;main.c: 704:  Beep(739, 103);
  6263  00309C  0E04               	movlw	4
  6264  00309E  6E3C               	movwf	(Beep@frequency+1)^0,c
  6265  0030A0  0E54               	movlw	84
  6266  0030A2  6E3B               	movwf	Beep@frequency^0,c
  6267  0030A4  0E00               	movlw	0
  6268  0030A6  6E3E               	movwf	(Beep@duration+1)^0,c
  6269  0030A8  0E67               	movlw	103
  6270  0030AA  6E3D               	movwf	Beep@duration^0,c
  6271  0030AC  EC33  F034         	call	_Beep	;wreg free
  6272                           
  6273                           ;main.c: 705:  sleep(106);
  6274  0030B0  0E00               	movlw	0
  6275  0030B2  6E03               	movwf	(sleep@ms+1)^0,c
  6276  0030B4  0E6A               	movlw	106
  6277  0030B6  6E02               	movwf	sleep@ms^0,c
  6278  0030B8  EC79  F037         	call	_sleep	;wreg free
  6279                           
  6280                           ;main.c: 706:  Beep(830, 103);
  6281  0030BC  0E03               	movlw	3
  6282  0030BE  6E3C               	movwf	(Beep@frequency+1)^0,c
  6283  0030C0  0EA4               	movlw	164
  6284  0030C2  6E3B               	movwf	Beep@frequency^0,c
  6285  0030C4  0E00               	movlw	0
  6286  0030C6  6E3E               	movwf	(Beep@duration+1)^0,c
  6287  0030C8  0E67               	movlw	103
  6288  0030CA  6E3D               	movwf	Beep@duration^0,c
  6289  0030CC  EC33  F034         	call	_Beep	;wreg free
  6290                           
  6291                           ;main.c: 707:  sleep(107);
  6292  0030D0  0E00               	movlw	0
  6293  0030D2  6E03               	movwf	(sleep@ms+1)^0,c
  6294  0030D4  0E6B               	movlw	107
  6295  0030D6  6E02               	movwf	sleep@ms^0,c
  6296  0030D8  EC79  F037         	call	_sleep	;wreg free
  6297                           
  6298                           ;main.c: 708:  Beep(932, 103);
  6299  0030DC  0E04               	movlw	4
  6300  0030DE  6E3C               	movwf	(Beep@frequency+1)^0,c
  6301  0030E0  0E54               	movlw	84
  6302  0030E2  6E3B               	movwf	Beep@frequency^0,c
  6303  0030E4  0E00               	movlw	0
  6304  0030E6  6E3E               	movwf	(Beep@duration+1)^0,c
  6305  0030E8  0ECD               	movlw	205
  6306  0030EA  6E3D               	movwf	Beep@duration^0,c
  6307  0030EC  EC33  F034         	call	_Beep	;wreg free
  6308                           
  6309                           ;main.c: 709:  sleep(1);
  6310  0030F0  0E00               	movlw	0
  6311  0030F2  6E03               	movwf	(sleep@ms+1)^0,c
  6312  0030F4  0E03               	movlw	3
  6313  0030F6  6E02               	movwf	sleep@ms^0,c
  6314  0030F8  EC79  F037         	call	_sleep	;wreg free
  6315                           
  6316                           ;main.c: 710:  Beep(130, 95);
  6317  0030FC  0E00               	movlw	0
  6318  0030FE  6E3C               	movwf	(Beep@frequency+1)^0,c
  6319  003100  0E8A               	movlw	138
  6320  003102  6E3B               	movwf	Beep@frequency^0,c
  6321  003104  0E00               	movlw	0
  6322  003106  6E3E               	movwf	(Beep@duration+1)^0,c
  6323  003108  0E67               	movlw	103
  6324  00310A  6E3D               	movwf	Beep@duration^0,c
  6325  00310C  EC33  F034         	call	_Beep	;wreg free
  6326                           
  6327                           ;main.c: 711:  sleep(9);
  6328  003110  0E00               	movlw	0
  6329  003112  6E03               	movwf	(sleep@ms+1)^0,c
  6330  003114  0E6B               	movlw	107
  6331  003116  6E02               	movwf	sleep@ms^0,c
  6332  003118  EC79  F037         	call	_sleep	;wreg free
  6333                           
  6334                           ;main.c: 712:  Beep(987, 103);
  6335  00311C  0E04               	movlw	4
  6336  00311E  6E3C               	movwf	(Beep@frequency+1)^0,c
  6337  003120  0E96               	movlw	150
  6338  003122  6E3B               	movwf	Beep@frequency^0,c
  6339  003124  0E00               	movlw	0
  6340  003126  6E3E               	movwf	(Beep@duration+1)^0,c
  6341  003128  0E67               	movlw	103
  6342  00312A  6E3D               	movwf	Beep@duration^0,c
  6343  00312C  EC33  F034         	call	_Beep	;wreg free
  6344                           
  6345                           ;main.c: 713:  sleep(107);
  6346  003130  0E00               	movlw	0
  6347  003132  6E03               	movwf	(sleep@ms+1)^0,c
  6348  003134  0E6A               	movlw	106
  6349  003136  6E02               	movwf	sleep@ms^0,c
  6350  003138  EC79  F037         	call	_sleep	;wreg free
  6351                           
  6352                           ;main.c: 714:  Beep(1108, 103);
  6353  00313C  0E03               	movlw	3
  6354  00313E  6E3C               	movwf	(Beep@frequency+1)^0,c
  6355  003140  0EA4               	movlw	164
  6356  003142  6E3B               	movwf	Beep@frequency^0,c
  6357  003144  0E00               	movlw	0
  6358  003146  6E3E               	movwf	(Beep@duration+1)^0,c
  6359  003148  0E67               	movlw	103
  6360  00314A  6E3D               	movwf	Beep@duration^0,c
  6361  00314C  EC33  F034         	call	_Beep	;wreg free
  6362                           
  6363                           ;main.c: 715:  sleep(106);
  6364  003150  0E00               	movlw	0
  6365  003152  6E03               	movwf	(sleep@ms+1)^0,c
  6366  003154  0E6B               	movlw	107
  6367  003156  6E02               	movwf	sleep@ms^0,c
  6368  003158  EC79  F037         	call	_sleep	;wreg free
  6369                           
  6370                           ;main.c: 716:  Beep(932, 103);
  6371  00315C  0E04               	movlw	4
  6372  00315E  6E3C               	movwf	(Beep@frequency+1)^0,c
  6373  003160  0E96               	movlw	150
  6374  003162  6E3B               	movwf	Beep@frequency^0,c
  6375  003164  0E00               	movlw	0
  6376  003166  6E3E               	movwf	(Beep@duration+1)^0,c
  6377  003168  0ECD               	movlw	205
  6378  00316A  6E3D               	movwf	Beep@duration^0,c
  6379  00316C  EC33  F034         	call	_Beep	;wreg free
  6380                           
  6381                           ;main.c: 717:  sleep(107);
  6382  003170  0E00               	movlw	0
  6383  003172  6E03               	movwf	(sleep@ms+1)^0,c
  6384  003174  0E03               	movlw	3
  6385  003176  6E02               	movwf	sleep@ms^0,c
  6386  003178  EC79  F037         	call	_sleep	;wreg free
  6387                           
  6388                           ;main.c: 718:  Beep(1108, 205);
  6389  00317C  0E00               	movlw	0
  6390  00317E  6E3C               	movwf	(Beep@frequency+1)^0,c
  6391  003180  0E92               	movlw	146
  6392  003182  6E3B               	movwf	Beep@frequency^0,c
  6393  003184  0E00               	movlw	0
  6394  003186  6E3E               	movwf	(Beep@duration+1)^0,c
  6395  003188  0E67               	movlw	103
  6396  00318A  6E3D               	movwf	Beep@duration^0,c
  6397  00318C  EC33  F034         	call	_Beep	;wreg free
  6398                           
  6399                           ;main.c: 719:  sleep(3);
  6400  003190  0E00               	movlw	0
  6401  003192  6E03               	movwf	(sleep@ms+1)^0,c
  6402  003194  0E6B               	movlw	107
  6403  003196  6E02               	movwf	sleep@ms^0,c
  6404  003198  EC79  F037         	call	_sleep	;wreg free
  6405                           
  6406                           ;main.c: 720:  Beep(138, 103);
  6407  00319C  0E04               	movlw	4
  6408  00319E  6E3C               	movwf	(Beep@frequency+1)^0,c
  6409  0031A0  0E54               	movlw	84
  6410  0031A2  6E3B               	movwf	Beep@frequency^0,c
  6411  0031A4  0E00               	movlw	0
  6412  0031A6  6E3E               	movwf	(Beep@duration+1)^0,c
  6413  0031A8  0E67               	movlw	103
  6414  0031AA  6E3D               	movwf	Beep@duration^0,c
  6415  0031AC  EC33  F034         	call	_Beep	;wreg free
  6416                           
  6417                           ;main.c: 721:  sleep(107);
  6418  0031B0  0E00               	movlw	0
  6419  0031B2  6E03               	movwf	(sleep@ms+1)^0,c
  6420  0031B4  0E6A               	movlw	106
  6421  0031B6  6E02               	movwf	sleep@ms^0,c
  6422  0031B8  EC79  F037         	call	_sleep	;wreg free
  6423                           
  6424                           ;main.c: 722:  Beep(1174, 103);
  6425  0031BC  0E03               	movlw	3
  6426  0031BE  6E3C               	movwf	(Beep@frequency+1)^0,c
  6427  0031C0  0EA4               	movlw	164
  6428  0031C2  6E3B               	movwf	Beep@frequency^0,c
  6429  0031C4  0E00               	movlw	0
  6430  0031C6  6E3E               	movwf	(Beep@duration+1)^0,c
  6431  0031C8  0E67               	movlw	103
  6432  0031CA  6E3D               	movwf	Beep@duration^0,c
  6433  0031CC  EC33  F034         	call	_Beep	;wreg free
  6434                           
  6435                           ;main.c: 723:  sleep(106);
  6436  0031D0  0E00               	movlw	0
  6437  0031D2  6E03               	movwf	(sleep@ms+1)^0,c
  6438  0031D4  0E6B               	movlw	107
  6439  0031D6  6E02               	movwf	sleep@ms^0,c
  6440  0031D8  EC79  F037         	call	_sleep	;wreg free
  6441                           
  6442                           ;main.c: 724:  Beep(932, 103);
  6443  0031DC  0E04               	movlw	4
  6444  0031DE  6E3C               	movwf	(Beep@frequency+1)^0,c
  6445  0031E0  0E54               	movlw	84
  6446  0031E2  6E3B               	movwf	Beep@frequency^0,c
  6447  0031E4  0E00               	movlw	0
  6448  0031E6  6E3E               	movwf	(Beep@duration+1)^0,c
  6449  0031E8  0ECD               	movlw	205
  6450  0031EA  6E3D               	movwf	Beep@duration^0,c
  6451  0031EC  EC33  F034         	call	_Beep	;wreg free
  6452                           
  6453                           ;main.c: 725:  sleep(107);
  6454  0031F0  0E00               	movlw	0
  6455  0031F2  6E03               	movwf	(sleep@ms+1)^0,c
  6456  0031F4  0E03               	movlw	3
  6457  0031F6  6E02               	movwf	sleep@ms^0,c
  6458  0031F8  EC79  F037         	call	_sleep	;wreg free
  6459                           
  6460                           ;main.c: 726:  Beep(1174, 205);
  6461  0031FC  0E00               	movlw	0
  6462  0031FE  6E3C               	movwf	(Beep@frequency+1)^0,c
  6463  003200  0E8A               	movlw	138
  6464  003202  6E3B               	movwf	Beep@frequency^0,c
  6465  003204  0E00               	movlw	0
  6466  003206  6E3E               	movwf	(Beep@duration+1)^0,c
  6467  003208  0E67               	movlw	103
  6468  00320A  6E3D               	movwf	Beep@duration^0,c
  6469  00320C  EC33  F034         	call	_Beep	;wreg free
  6470                           
  6471                           ;main.c: 727:  sleep(3);
  6472  003210  0E00               	movlw	0
  6473  003212  6E03               	movwf	(sleep@ms+1)^0,c
  6474  003214  0E6B               	movlw	107
  6475  003216  6E02               	movwf	sleep@ms^0,c
  6476  003218  EC79  F037         	call	_sleep	;wreg free
  6477                           
  6478                           ;main.c: 728:  Beep(146, 103);
  6479  00321C  0E02               	movlw	2
  6480  00321E  6E3C               	movwf	(Beep@frequency+1)^0,c
  6481  003220  0EE3               	movlw	227
  6482  003222  6E3B               	movwf	Beep@frequency^0,c
  6483  003224  0E00               	movlw	0
  6484  003226  6E3E               	movwf	(Beep@duration+1)^0,c
  6485  003228  0E67               	movlw	103
  6486  00322A  6E3D               	movwf	Beep@duration^0,c
  6487  00322C  EC33  F034         	call	_Beep	;wreg free
  6488                           
  6489                           ;main.c: 729:  sleep(107);
  6490  003230  0E00               	movlw	0
  6491  003232  6E03               	movwf	(sleep@ms+1)^0,c
  6492  003234  0E6A               	movlw	106
  6493  003236  6E02               	movwf	sleep@ms^0,c
  6494  003238  EC79  F037         	call	_sleep	;wreg free
  6495                           
  6496                           ;main.c: 730:  Beep(1108, 413);
  6497  00323C  0E03               	movlw	3
  6498  00323E  6E3C               	movwf	(Beep@frequency+1)^0,c
  6499  003240  0E3E               	movlw	62
  6500  003242  6E3B               	movwf	Beep@frequency^0,c
  6501  003244  0E00               	movlw	0
  6502  003246  6E3E               	movwf	(Beep@duration+1)^0,c
  6503  003248  0E67               	movlw	103
  6504  00324A  6E3D               	movwf	Beep@duration^0,c
  6505  00324C  EC33  F034         	call	_Beep	;wreg free
  6506                           
  6507                           ;main.c: 731:  sleep(8);
  6508  003250  0E00               	movlw	0
  6509  003252  6E03               	movwf	(sleep@ms+1)^0,c
  6510  003254  0E6B               	movlw	107
  6511  003256  6E02               	movwf	sleep@ms^0,c
  6512  003258  EC79  F037         	call	_sleep	;wreg free
  6513                           
  6514                           ;main.c: 732:  Beep(739, 377);
  6515  00325C  0E03               	movlw	3
  6516  00325E  6E3C               	movwf	(Beep@frequency+1)^0,c
  6517  003260  0EA4               	movlw	164
  6518  003262  6E3B               	movwf	Beep@frequency^0,c
  6519  003264  0E00               	movlw	0
  6520  003266  6E3E               	movwf	(Beep@duration+1)^0,c
  6521  003268  0E67               	movlw	103
  6522  00326A  6E3D               	movwf	Beep@duration^0,c
  6523  00326C  EC33  F034         	call	_Beep	;wreg free
  6524                           
  6525                           ;main.c: 733:  sleep(41);
  6526  003270  0E00               	movlw	0
  6527  003272  6E03               	movwf	(sleep@ms+1)^0,c
  6528  003274  0E01               	movlw	1
  6529  003276  6E02               	movwf	sleep@ms^0,c
  6530  003278  EC79  F037         	call	_sleep	;wreg free
  6531                           
  6532                           ;main.c: 734:  Beep(246, 101);
  6533  00327C  0E00               	movlw	0
  6534  00327E  6E3C               	movwf	(Beep@frequency+1)^0,c
  6535  003280  0E82               	movlw	130
  6536  003282  6E3B               	movwf	Beep@frequency^0,c
  6537  003284  0E00               	movlw	0
  6538  003286  6E3E               	movwf	(Beep@duration+1)^0,c
  6539  003288  0E5F               	movlw	95
  6540  00328A  6E3D               	movwf	Beep@duration^0,c
  6541  00328C  EC33  F034         	call	_Beep	;wreg free
  6542                           
  6543                           ;main.c: 735:  sleep(34);
  6544  003290  0E00               	movlw	0
  6545  003292  6E03               	movwf	(sleep@ms+1)^0,c
  6546  003294  0E09               	movlw	9
  6547  003296  6E02               	movwf	sleep@ms^0,c
  6548  003298  EC79  F037         	call	_sleep	;wreg free
  6549                           
  6550                           ;main.c: 736:  Beep(87, 123);
  6551  00329C  0E03               	movlw	3
  6552  00329E  6E3C               	movwf	(Beep@frequency+1)^0,c
  6553  0032A0  0EDB               	movlw	219
  6554  0032A2  6E3B               	movwf	Beep@frequency^0,c
  6555  0032A4  0E00               	movlw	0
  6556  0032A6  6E3E               	movwf	(Beep@duration+1)^0,c
  6557  0032A8  0E67               	movlw	103
  6558  0032AA  6E3D               	movwf	Beep@duration^0,c
  6559  0032AC  EC33  F034         	call	_Beep	;wreg free
  6560                           
  6561                           ;main.c: 737:  sleep(12);
  6562  0032B0  0E00               	movlw	0
  6563  0032B2  6E03               	movwf	(sleep@ms+1)^0,c
  6564  0032B4  0E6B               	movlw	107
  6565  0032B6  6E02               	movwf	sleep@ms^0,c
  6566  0032B8  EC79  F037         	call	_sleep	;wreg free
  6567                           
  6568                           ;main.c: 738:  Beep(92, 125);
  6569  0032BC  0E04               	movlw	4
  6570  0032BE  6E3C               	movwf	(Beep@frequency+1)^0,c
  6571  0032C0  0E54               	movlw	84
  6572  0032C2  6E3B               	movwf	Beep@frequency^0,c
  6573  0032C4  0E00               	movlw	0
  6574  0032C6  6E3E               	movwf	(Beep@duration+1)^0,c
  6575  0032C8  0E67               	movlw	103
  6576  0032CA  6E3D               	movwf	Beep@duration^0,c
  6577  0032CC  EC33  F034         	call	_Beep	;wreg free
  6578                           
  6579                           ;main.c: 739:  sleep(12);
  6580  0032D0  0E00               	movlw	0
  6581  0032D2  6E03               	movwf	(sleep@ms+1)^0,c
  6582  0032D4  0E6A               	movlw	106
  6583  0032D6  6E02               	movwf	sleep@ms^0,c
  6584  0032D8  EC79  F037         	call	_sleep	;wreg free
  6585                           
  6586                           ;main.c: 740:  Beep(184, 101);
  6587  0032DC  0E03               	movlw	3
  6588  0032DE  6E3C               	movwf	(Beep@frequency+1)^0,c
  6589  0032E0  0EA4               	movlw	164
  6590  0032E2  6E3B               	movwf	Beep@frequency^0,c
  6591  0032E4  0E00               	movlw	0
  6592  0032E6  6E3E               	movwf	(Beep@duration+1)^0,c
  6593  0032E8  0E67               	movlw	103
  6594  0032EA  6E3D               	movwf	Beep@duration^0,c
  6595  0032EC  EC33  F034         	call	_Beep	;wreg free
  6596                           
  6597                           ;main.c: 741:  sleep(34);
  6598  0032F0  0E00               	movlw	0
  6599  0032F2  6E03               	movwf	(sleep@ms+1)^0,c
  6600  0032F4  0E6B               	movlw	107
  6601  0032F6  6E02               	movwf	sleep@ms^0,c
  6602  0032F8  EC79  F037         	call	_sleep	;wreg free
  6603                           
  6604                           ;main.c: 742:  Beep(87, 123);
  6605  0032FC  0E04               	movlw	4
  6606  0032FE  6E3C               	movwf	(Beep@frequency+1)^0,c
  6607  003300  0E54               	movlw	84
  6608  003302  6E3B               	movwf	Beep@frequency^0,c
  6609  003304  0E00               	movlw	0
  6610  003306  6E3E               	movwf	(Beep@duration+1)^0,c
  6611  003308  0ECD               	movlw	205
  6612  00330A  6E3D               	movwf	Beep@duration^0,c
  6613  00330C  EC33  F034         	call	_Beep	;wreg free
  6614                           
  6615                           ;main.c: 743:  sleep(12);
  6616  003310  0E00               	movlw	0
  6617  003312  6E03               	movwf	(sleep@ms+1)^0,c
  6618  003314  0E03               	movlw	3
  6619  003316  6E02               	movwf	sleep@ms^0,c
  6620  003318  EC79  F037         	call	_sleep	;wreg free
  6621                           
  6622                           ;main.c: 744:  Beep(92, 125);
  6623  00331C  0E00               	movlw	0
  6624  00331E  6E3C               	movwf	(Beep@frequency+1)^0,c
  6625  003320  0E8A               	movlw	138
  6626  003322  6E3B               	movwf	Beep@frequency^0,c
  6627  003324  0E00               	movlw	0
  6628  003326  6E3E               	movwf	(Beep@duration+1)^0,c
  6629  003328  0E67               	movlw	103
  6630  00332A  6E3D               	movwf	Beep@duration^0,c
  6631  00332C  EC33  F034         	call	_Beep	;wreg free
  6632                           
  6633                           ;main.c: 745:  sleep(12);
  6634  003330  0E00               	movlw	0
  6635  003332  6E03               	movwf	(sleep@ms+1)^0,c
  6636  003334  0E6B               	movlw	107
  6637  003336  6E02               	movwf	sleep@ms^0,c
  6638  003338  EC79  F037         	call	_sleep	;wreg free
  6639                           
  6640                           ;main.c: 746:  Beep(369, 101);
  6641  00333C  0E04               	movlw	4
  6642  00333E  6E3C               	movwf	(Beep@frequency+1)^0,c
  6643  003340  0E96               	movlw	150
  6644  003342  6E3B               	movwf	Beep@frequency^0,c
  6645  003344  0E00               	movlw	0
  6646  003346  6E3E               	movwf	(Beep@duration+1)^0,c
  6647  003348  0E67               	movlw	103
  6648  00334A  6E3D               	movwf	Beep@duration^0,c
  6649  00334C  EC33  F034         	call	_Beep	;wreg free
  6650                           
  6651                           ;main.c: 747:  sleep(34);
  6652  003350  0E00               	movlw	0
  6653  003352  6E03               	movwf	(sleep@ms+1)^0,c
  6654  003354  0E6A               	movlw	106
  6655  003356  6E02               	movwf	sleep@ms^0,c
  6656  003358  EC79  F037         	call	_sleep	;wreg free
  6657                           
  6658                           ;main.c: 748:  Beep(87, 123);
  6659  00335C  0E03               	movlw	3
  6660  00335E  6E3C               	movwf	(Beep@frequency+1)^0,c
  6661  003360  0EA4               	movlw	164
  6662  003362  6E3B               	movwf	Beep@frequency^0,c
  6663  003364  0E00               	movlw	0
  6664  003366  6E3E               	movwf	(Beep@duration+1)^0,c
  6665  003368  0E67               	movlw	103
  6666  00336A  6E3D               	movwf	Beep@duration^0,c
  6667  00336C  EC33  F034         	call	_Beep	;wreg free
  6668                           
  6669                           ;main.c: 749:  sleep(12);
  6670  003370  0E00               	movlw	0
  6671  003372  6E03               	movwf	(sleep@ms+1)^0,c
  6672  003374  0E6B               	movlw	107
  6673  003376  6E02               	movwf	sleep@ms^0,c
  6674  003378  EC79  F037         	call	_sleep	;wreg free
  6675                           
  6676                           ;main.c: 750:  Beep(92, 125);
  6677  00337C  0E04               	movlw	4
  6678  00337E  6E3C               	movwf	(Beep@frequency+1)^0,c
  6679  003380  0E96               	movlw	150
  6680  003382  6E3B               	movwf	Beep@frequency^0,c
  6681  003384  0E00               	movlw	0
  6682  003386  6E3E               	movwf	(Beep@duration+1)^0,c
  6683  003388  0ECD               	movlw	205
  6684  00338A  6E3D               	movwf	Beep@duration^0,c
  6685  00338C  EC33  F034         	call	_Beep	;wreg free
  6686                           
  6687                           ;main.c: 751:  sleep(12);
  6688  003390  0E00               	movlw	0
  6689  003392  6E03               	movwf	(sleep@ms+1)^0,c
  6690  003394  0E03               	movlw	3
  6691  003396  6E02               	movwf	sleep@ms^0,c
  6692  003398  EC79  F037         	call	_sleep	;wreg free
  6693                           
  6694                           ;main.c: 752:  Beep(184, 202);
  6695  00339C  0E00               	movlw	0
  6696  00339E  6E3C               	movwf	(Beep@frequency+1)^0,c
  6697  0033A0  0E92               	movlw	146
  6698  0033A2  6E3B               	movwf	Beep@frequency^0,c
  6699  0033A4  0E00               	movlw	0
  6700  0033A6  6E3E               	movwf	(Beep@duration+1)^0,c
  6701  0033A8  0E67               	movlw	103
  6702  0033AA  6E3D               	movwf	Beep@duration^0,c
  6703  0033AC  EC33  F034         	call	_Beep	;wreg free
  6704                           
  6705                           ;main.c: 753:  sleep(70);
  6706  0033B0  0E00               	movlw	0
  6707  0033B2  6E03               	movwf	(sleep@ms+1)^0,c
  6708  0033B4  0E6B               	movlw	107
  6709  0033B6  6E02               	movwf	sleep@ms^0,c
  6710  0033B8  EC79  F037         	call	_sleep	;wreg free
  6711                           
  6712                           ;main.c: 754:  Beep(92, 126);
  6713  0033BC  0E04               	movlw	4
  6714  0033BE  6E3C               	movwf	(Beep@frequency+1)^0,c
  6715  0033C0  0E54               	movlw	84
  6716  0033C2  6E3B               	movwf	Beep@frequency^0,c
  6717  0033C4  0E01               	movlw	1
  6718  0033C6  6E3E               	movwf	(Beep@duration+1)^0,c
  6719  0033C8  0E9D               	movlw	157
  6720  0033CA  6E3D               	movwf	Beep@duration^0,c
  6721  0033CC  EC33  F034         	call	_Beep	;wreg free
  6722                           
  6723                           ;main.c: 755:  sleep(12);
  6724  0033D0  0E00               	movlw	0
  6725  0033D2  6E03               	movwf	(sleep@ms+1)^0,c
  6726  0033D4  0E08               	movlw	8
  6727  0033D6  6E02               	movwf	sleep@ms^0,c
  6728  0033D8  EC79  F037         	call	_sleep	;wreg free
  6729                           
  6730                           ;main.c: 756:  Beep(349, 101);
  6731  0033DC  0E02               	movlw	2
  6732  0033DE  6E3C               	movwf	(Beep@frequency+1)^0,c
  6733  0033E0  0EE3               	movlw	227
  6734  0033E2  6E3B               	movwf	Beep@frequency^0,c
  6735  0033E4  0E01               	movlw	1
  6736  0033E6  6E3E               	movwf	(Beep@duration+1)^0,c
  6737  0033E8  0E79               	movlw	121
  6738  0033EA  6E3D               	movwf	Beep@duration^0,c
  6739  0033EC  EC33  F034         	call	_Beep	;wreg free
  6740                           
  6741                           ;main.c: 757:  sleep(34);
  6742  0033F0  0E00               	movlw	0
  6743  0033F2  6E03               	movwf	(sleep@ms+1)^0,c
  6744  0033F4  0E29               	movlw	41
  6745  0033F6  6E02               	movwf	sleep@ms^0,c
  6746  0033F8  EC79  F037         	call	_sleep	;wreg free
  6747                           
  6748                           ;main.c: 758:  Beep(87, 123);
  6749  0033FC  0E00               	movlw	0
  6750  0033FE  6E3C               	movwf	(Beep@frequency+1)^0,c
  6751  003400  0EF6               	movlw	246
  6752  003402  6E3B               	movwf	Beep@frequency^0,c
  6753  003404  0E00               	movlw	0
  6754  003406  6E3E               	movwf	(Beep@duration+1)^0,c
  6755  003408  0E65               	movlw	101
  6756  00340A  6E3D               	movwf	Beep@duration^0,c
  6757  00340C  EC33  F034         	call	_Beep	;wreg free
  6758                           
  6759                           ;main.c: 759:  sleep(12);
  6760  003410  0E00               	movlw	0
  6761  003412  6E03               	movwf	(sleep@ms+1)^0,c
  6762  003414  0E22               	movlw	34
  6763  003416  6E02               	movwf	sleep@ms^0,c
  6764  003418  EC79  F037         	call	_sleep	;wreg free
  6765                           
  6766                           ;main.c: 760:  Beep(92, 125);
  6767  00341C  0E00               	movlw	0
  6768  00341E  6E3C               	movwf	(Beep@frequency+1)^0,c
  6769  003420  0E57               	movlw	87
  6770  003422  6E3B               	movwf	Beep@frequency^0,c
  6771  003424  0E00               	movlw	0
  6772  003426  6E3E               	movwf	(Beep@duration+1)^0,c
  6773  003428  0E7B               	movlw	123
  6774  00342A  6E3D               	movwf	Beep@duration^0,c
  6775  00342C  EC33  F034         	call	_Beep	;wreg free
  6776                           
  6777                           ;main.c: 761:  sleep(12);
  6778  003430  0E00               	movlw	0
  6779  003432  6E03               	movwf	(sleep@ms+1)^0,c
  6780  003434  0E0C               	movlw	12
  6781  003436  6E02               	movwf	sleep@ms^0,c
  6782  003438  EC79  F037         	call	_sleep	;wreg free
  6783                           
  6784                           ;main.c: 762:  Beep(184, 202);
  6785  00343C  0E00               	movlw	0
  6786  00343E  6E3C               	movwf	(Beep@frequency+1)^0,c
  6787  003440  0E5C               	movlw	92
  6788  003442  6E3B               	movwf	Beep@frequency^0,c
  6789  003444  0E00               	movlw	0
  6790  003446  6E3E               	movwf	(Beep@duration+1)^0,c
  6791  003448  0E7D               	movlw	125
  6792  00344A  6E3D               	movwf	Beep@duration^0,c
  6793  00344C  EC33  F034         	call	_Beep	;wreg free
  6794                           
  6795                           ;main.c: 763:  sleep(70);
  6796  003450  0E00               	movlw	0
  6797  003452  6E03               	movwf	(sleep@ms+1)^0,c
  6798  003454  0E0C               	movlw	12
  6799  003456  6E02               	movwf	sleep@ms^0,c
  6800  003458  EC79  F037         	call	_sleep	;wreg free
  6801                           
  6802                           ;main.c: 764:  Beep(92, 126);
  6803  00345C  0E00               	movlw	0
  6804  00345E  6E3C               	movwf	(Beep@frequency+1)^0,c
  6805  003460  0EB8               	movlw	184
  6806  003462  6E3B               	movwf	Beep@frequency^0,c
  6807  003464  0E00               	movlw	0
  6808  003466  6E3E               	movwf	(Beep@duration+1)^0,c
  6809  003468  0E65               	movlw	101
  6810  00346A  6E3D               	movwf	Beep@duration^0,c
  6811  00346C  EC33  F034         	call	_Beep	;wreg free
  6812                           
  6813                           ;main.c: 765:  sleep(12);
  6814  003470  0E00               	movlw	0
  6815  003472  6E03               	movwf	(sleep@ms+1)^0,c
  6816  003474  0E22               	movlw	34
  6817  003476  6E02               	movwf	sleep@ms^0,c
  6818  003478  EC79  F037         	call	_sleep	;wreg free
  6819                           
  6820                           ;main.c: 766:  Beep(329, 101);
  6821  00347C  0E00               	movlw	0
  6822  00347E  6E3C               	movwf	(Beep@frequency+1)^0,c
  6823  003480  0E57               	movlw	87
  6824  003482  6E3B               	movwf	Beep@frequency^0,c
  6825  003484  0E00               	movlw	0
  6826  003486  6E3E               	movwf	(Beep@duration+1)^0,c
  6827  003488  0E7B               	movlw	123
  6828  00348A  6E3D               	movwf	Beep@duration^0,c
  6829  00348C  EC33  F034         	call	_Beep	;wreg free
  6830                           
  6831                           ;main.c: 767:  sleep(34);
  6832  003490  0E00               	movlw	0
  6833  003492  6E03               	movwf	(sleep@ms+1)^0,c
  6834  003494  0E0C               	movlw	12
  6835  003496  6E02               	movwf	sleep@ms^0,c
  6836  003498  EC79  F037         	call	_sleep	;wreg free
  6837                           
  6838                           ;main.c: 768:  Beep(87, 123);
  6839  00349C  0E00               	movlw	0
  6840  00349E  6E3C               	movwf	(Beep@frequency+1)^0,c
  6841  0034A0  0E5C               	movlw	92
  6842  0034A2  6E3B               	movwf	Beep@frequency^0,c
  6843  0034A4  0E00               	movlw	0
  6844  0034A6  6E3E               	movwf	(Beep@duration+1)^0,c
  6845  0034A8  0E7D               	movlw	125
  6846  0034AA  6E3D               	movwf	Beep@duration^0,c
  6847  0034AC  EC33  F034         	call	_Beep	;wreg free
  6848                           
  6849                           ;main.c: 769:  sleep(12);
  6850  0034B0  0E00               	movlw	0
  6851  0034B2  6E03               	movwf	(sleep@ms+1)^0,c
  6852  0034B4  0E0C               	movlw	12
  6853  0034B6  6E02               	movwf	sleep@ms^0,c
  6854  0034B8  EC79  F037         	call	_sleep	;wreg free
  6855                           
  6856                           ;main.c: 770:  Beep(92, 125);
  6857  0034BC  0E01               	movlw	1
  6858  0034BE  6E3C               	movwf	(Beep@frequency+1)^0,c
  6859  0034C0  0E71               	movlw	113
  6860  0034C2  6E3B               	movwf	Beep@frequency^0,c
  6861  0034C4  0E00               	movlw	0
  6862  0034C6  6E3E               	movwf	(Beep@duration+1)^0,c
  6863  0034C8  0E65               	movlw	101
  6864  0034CA  6E3D               	movwf	Beep@duration^0,c
  6865  0034CC  EC33  F034         	call	_Beep	;wreg free
  6866                           
  6867                           ;main.c: 771:  sleep(12);
  6868  0034D0  0E00               	movlw	0
  6869  0034D2  6E03               	movwf	(sleep@ms+1)^0,c
  6870  0034D4  0E22               	movlw	34
  6871  0034D6  6E02               	movwf	sleep@ms^0,c
  6872  0034D8  EC79  F037         	call	_sleep	;wreg free
  6873                           
  6874                           ;main.c: 772:  Beep(184, 202);
  6875  0034DC  0E00               	movlw	0
  6876  0034DE  6E3C               	movwf	(Beep@frequency+1)^0,c
  6877  0034E0  0E57               	movlw	87
  6878  0034E2  6E3B               	movwf	Beep@frequency^0,c
  6879  0034E4  0E00               	movlw	0
  6880  0034E6  6E3E               	movwf	(Beep@duration+1)^0,c
  6881  0034E8  0E7B               	movlw	123
  6882  0034EA  6E3D               	movwf	Beep@duration^0,c
  6883  0034EC  EC33  F034         	call	_Beep	;wreg free
  6884                           
  6885                           ;main.c: 773:  sleep(70);
  6886  0034F0  0E00               	movlw	0
  6887  0034F2  6E03               	movwf	(sleep@ms+1)^0,c
  6888  0034F4  0E0C               	movlw	12
  6889  0034F6  6E02               	movwf	sleep@ms^0,c
  6890  0034F8  EC79  F037         	call	_sleep	;wreg free
  6891                           
  6892                           ;main.c: 774:  Beep(92, 126);
  6893  0034FC  0E00               	movlw	0
  6894  0034FE  6E3C               	movwf	(Beep@frequency+1)^0,c
  6895  003500  0E5C               	movlw	92
  6896  003502  6E3B               	movwf	Beep@frequency^0,c
  6897  003504  0E00               	movlw	0
  6898  003506  6E3E               	movwf	(Beep@duration+1)^0,c
  6899  003508  0E7D               	movlw	125
  6900  00350A  6E3D               	movwf	Beep@duration^0,c
  6901  00350C  EC33  F034         	call	_Beep	;wreg free
  6902                           
  6903                           ;main.c: 775:  sleep(12);
  6904  003510  0E00               	movlw	0
  6905  003512  6E03               	movwf	(sleep@ms+1)^0,c
  6906  003514  0E0C               	movlw	12
  6907  003516  6E02               	movwf	sleep@ms^0,c
  6908  003518  EC79  F037         	call	_sleep	;wreg free
  6909                           
  6910                           ;main.c: 776:  Beep(246, 101);
  6911  00351C  0E00               	movlw	0
  6912  00351E  6E3C               	movwf	(Beep@frequency+1)^0,c
  6913  003520  0EB8               	movlw	184
  6914  003522  6E3B               	movwf	Beep@frequency^0,c
  6915  003524  0E00               	movlw	0
  6916  003526  6E3E               	movwf	(Beep@duration+1)^0,c
  6917  003528  0ECA               	movlw	202
  6918  00352A  6E3D               	movwf	Beep@duration^0,c
  6919  00352C  EC33  F034         	call	_Beep	;wreg free
  6920                           
  6921                           ;main.c: 777:  sleep(34);
  6922  003530  0E00               	movlw	0
  6923  003532  6E03               	movwf	(sleep@ms+1)^0,c
  6924  003534  0E46               	movlw	70
  6925  003536  6E02               	movwf	sleep@ms^0,c
  6926  003538  EC79  F037         	call	_sleep	;wreg free
  6927                           
  6928                           ;main.c: 778:  Beep(87, 123);
  6929  00353C  0E00               	movlw	0
  6930  00353E  6E3C               	movwf	(Beep@frequency+1)^0,c
  6931  003540  0E5C               	movlw	92
  6932  003542  6E3B               	movwf	Beep@frequency^0,c
  6933  003544  0E00               	movlw	0
  6934  003546  6E3E               	movwf	(Beep@duration+1)^0,c
  6935  003548  0E7E               	movlw	126
  6936  00354A  6E3D               	movwf	Beep@duration^0,c
  6937  00354C  EC33  F034         	call	_Beep	;wreg free
  6938                           
  6939                           ;main.c: 779:  sleep(12);
  6940  003550  0E00               	movlw	0
  6941  003552  6E03               	movwf	(sleep@ms+1)^0,c
  6942  003554  0E0C               	movlw	12
  6943  003556  6E02               	movwf	sleep@ms^0,c
  6944  003558  EC79  F037         	call	_sleep	;wreg free
  6945                           
  6946                           ;main.c: 780:  Beep(92, 125);
  6947  00355C  0E01               	movlw	1
  6948  00355E  6E3C               	movwf	(Beep@frequency+1)^0,c
  6949  003560  0E5D               	movlw	93
  6950  003562  6E3B               	movwf	Beep@frequency^0,c
  6951  003564  0E00               	movlw	0
  6952  003566  6E3E               	movwf	(Beep@duration+1)^0,c
  6953  003568  0E65               	movlw	101
  6954  00356A  6E3D               	movwf	Beep@duration^0,c
  6955  00356C  EC33  F034         	call	_Beep	;wreg free
  6956                           
  6957                           ;main.c: 781:  sleep(12);
  6958  003570  0E00               	movlw	0
  6959  003572  6E03               	movwf	(sleep@ms+1)^0,c
  6960  003574  0E22               	movlw	34
  6961  003576  6E02               	movwf	sleep@ms^0,c
  6962  003578  EC79  F037         	call	_sleep	;wreg free
  6963                           
  6964                           ;main.c: 782:  Beep(184, 101);
  6965  00357C  0E00               	movlw	0
  6966  00357E  6E3C               	movwf	(Beep@frequency+1)^0,c
  6967  003580  0E57               	movlw	87
  6968  003582  6E3B               	movwf	Beep@frequency^0,c
  6969  003584  0E00               	movlw	0
  6970  003586  6E3E               	movwf	(Beep@duration+1)^0,c
  6971  003588  0E7B               	movlw	123
  6972  00358A  6E3D               	movwf	Beep@duration^0,c
  6973  00358C  EC33  F034         	call	_Beep	;wreg free
  6974                           
  6975                           ;main.c: 783:  sleep(34);
  6976  003590  0E00               	movlw	0
  6977  003592  6E03               	movwf	(sleep@ms+1)^0,c
  6978  003594  0E0C               	movlw	12
  6979  003596  6E02               	movwf	sleep@ms^0,c
  6980  003598  EC79  F037         	call	_sleep	;wreg free
  6981                           
  6982                           ;main.c: 784:  Beep(87, 123);
  6983  00359C  0E00               	movlw	0
  6984  00359E  6E3C               	movwf	(Beep@frequency+1)^0,c
  6985  0035A0  0E5C               	movlw	92
  6986  0035A2  6E3B               	movwf	Beep@frequency^0,c
  6987  0035A4  0E00               	movlw	0
  6988  0035A6  6E3E               	movwf	(Beep@duration+1)^0,c
  6989  0035A8  0E7D               	movlw	125
  6990  0035AA  6E3D               	movwf	Beep@duration^0,c
  6991  0035AC  EC33  F034         	call	_Beep	;wreg free
  6992                           
  6993                           ;main.c: 785:  sleep(12);
  6994  0035B0  0E00               	movlw	0
  6995  0035B2  6E03               	movwf	(sleep@ms+1)^0,c
  6996  0035B4  0E0C               	movlw	12
  6997  0035B6  6E02               	movwf	sleep@ms^0,c
  6998  0035B8  EC79  F037         	call	_sleep	;wreg free
  6999                           
  7000                           ;main.c: 786:  Beep(92, 125);
  7001  0035BC  0E00               	movlw	0
  7002  0035BE  6E3C               	movwf	(Beep@frequency+1)^0,c
  7003  0035C0  0EB8               	movlw	184
  7004  0035C2  6E3B               	movwf	Beep@frequency^0,c
  7005  0035C4  0E00               	movlw	0
  7006  0035C6  6E3E               	movwf	(Beep@duration+1)^0,c
  7007  0035C8  0ECA               	movlw	202
  7008  0035CA  6E3D               	movwf	Beep@duration^0,c
  7009  0035CC  EC33  F034         	call	_Beep	;wreg free
  7010                           
  7011                           ;main.c: 787:  sleep(12);
  7012  0035D0  0E00               	movlw	0
  7013  0035D2  6E03               	movwf	(sleep@ms+1)^0,c
  7014  0035D4  0E46               	movlw	70
  7015  0035D6  6E02               	movwf	sleep@ms^0,c
  7016  0035D8  EC79  F037         	call	_sleep	;wreg free
  7017                           
  7018                           ;main.c: 788:  Beep(369, 101);
  7019  0035DC  0E00               	movlw	0
  7020  0035DE  6E3C               	movwf	(Beep@frequency+1)^0,c
  7021  0035E0  0E5C               	movlw	92
  7022  0035E2  6E3B               	movwf	Beep@frequency^0,c
  7023  0035E4  0E00               	movlw	0
  7024  0035E6  6E3E               	movwf	(Beep@duration+1)^0,c
  7025  0035E8  0E7E               	movlw	126
  7026  0035EA  6E3D               	movwf	Beep@duration^0,c
  7027  0035EC  EC33  F034         	call	_Beep	;wreg free
  7028                           
  7029                           ;main.c: 789:  sleep(34);
  7030  0035F0  0E00               	movlw	0
  7031  0035F2  6E03               	movwf	(sleep@ms+1)^0,c
  7032  0035F4  0E0C               	movlw	12
  7033  0035F6  6E02               	movwf	sleep@ms^0,c
  7034  0035F8  EC79  F037         	call	_sleep	;wreg free
  7035                           
  7036                           ;main.c: 790:  Beep(87, 123);
  7037  0035FC  0E01               	movlw	1
  7038  0035FE  6E3C               	movwf	(Beep@frequency+1)^0,c
  7039  003600  0E49               	movlw	73
  7040  003602  6E3B               	movwf	Beep@frequency^0,c
  7041  003604  0E00               	movlw	0
  7042  003606  6E3E               	movwf	(Beep@duration+1)^0,c
  7043  003608  0E65               	movlw	101
  7044  00360A  6E3D               	movwf	Beep@duration^0,c
  7045  00360C  EC33  F034         	call	_Beep	;wreg free
  7046                           
  7047                           ;main.c: 791:  sleep(12);
  7048  003610  0E00               	movlw	0
  7049  003612  6E03               	movwf	(sleep@ms+1)^0,c
  7050  003614  0E22               	movlw	34
  7051  003616  6E02               	movwf	sleep@ms^0,c
  7052  003618  EC79  F037         	call	_sleep	;wreg free
  7053                           
  7054                           ;main.c: 792:  Beep(92, 125);
  7055  00361C  0E00               	movlw	0
  7056  00361E  6E3C               	movwf	(Beep@frequency+1)^0,c
  7057  003620  0E57               	movlw	87
  7058  003622  6E3B               	movwf	Beep@frequency^0,c
  7059  003624  0E00               	movlw	0
  7060  003626  6E3E               	movwf	(Beep@duration+1)^0,c
  7061  003628  0E7B               	movlw	123
  7062  00362A  6E3D               	movwf	Beep@duration^0,c
  7063  00362C  EC33  F034         	call	_Beep	;wreg free
  7064                           
  7065                           ;main.c: 793:  sleep(12);
  7066  003630  0E00               	movlw	0
  7067  003632  6E03               	movwf	(sleep@ms+1)^0,c
  7068  003634  0E0C               	movlw	12
  7069  003636  6E02               	movwf	sleep@ms^0,c
  7070  003638  EC79  F037         	call	_sleep	;wreg free
  7071                           
  7072                           ;main.c: 794:  Beep(246, 101);
  7073  00363C  0E00               	movlw	0
  7074  00363E  6E3C               	movwf	(Beep@frequency+1)^0,c
  7075  003640  0E5C               	movlw	92
  7076  003642  6E3B               	movwf	Beep@frequency^0,c
  7077  003644  0E00               	movlw	0
  7078  003646  6E3E               	movwf	(Beep@duration+1)^0,c
  7079  003648  0E7D               	movlw	125
  7080  00364A  6E3D               	movwf	Beep@duration^0,c
  7081  00364C  EC33  F034         	call	_Beep	;wreg free
  7082                           
  7083                           ;main.c: 795:  sleep(34);
  7084  003650  0E00               	movlw	0
  7085  003652  6E03               	movwf	(sleep@ms+1)^0,c
  7086  003654  0E0C               	movlw	12
  7087  003656  6E02               	movwf	sleep@ms^0,c
  7088  003658  EC79  F037         	call	_sleep	;wreg free
  7089                           
  7090                           ;main.c: 796:  Beep(87, 123);
  7091  00365C  0E00               	movlw	0
  7092  00365E  6E3C               	movwf	(Beep@frequency+1)^0,c
  7093  003660  0EB8               	movlw	184
  7094  003662  6E3B               	movwf	Beep@frequency^0,c
  7095  003664  0E00               	movlw	0
  7096  003666  6E3E               	movwf	(Beep@duration+1)^0,c
  7097  003668  0ECA               	movlw	202
  7098  00366A  6E3D               	movwf	Beep@duration^0,c
  7099  00366C  EC33  F034         	call	_Beep	;wreg free
  7100                           
  7101                           ;main.c: 797:  sleep(12);
  7102  003670  0E00               	movlw	0
  7103  003672  6E03               	movwf	(sleep@ms+1)^0,c
  7104  003674  0E46               	movlw	70
  7105  003676  6E02               	movwf	sleep@ms^0,c
  7106  003678  EC79  F037         	call	_sleep	;wreg free
  7107                           
  7108                           ;main.c: 798:  Beep(92, 125);
  7109  00367C  0E00               	movlw	0
  7110  00367E  6E3C               	movwf	(Beep@frequency+1)^0,c
  7111  003680  0E5C               	movlw	92
  7112  003682  6E3B               	movwf	Beep@frequency^0,c
  7113  003684  0E00               	movlw	0
  7114  003686  6E3E               	movwf	(Beep@duration+1)^0,c
  7115  003688  0E7E               	movlw	126
  7116  00368A  6E3D               	movwf	Beep@duration^0,c
  7117  00368C  EC33  F034         	call	_Beep	;wreg free
  7118                           
  7119                           ;main.c: 799:  sleep(12);
  7120  003690  0E00               	movlw	0
  7121  003692  6E03               	movwf	(sleep@ms+1)^0,c
  7122  003694  0E0C               	movlw	12
  7123  003696  6E02               	movwf	sleep@ms^0,c
  7124  003698  EC79  F037         	call	_sleep	;wreg free
  7125                           
  7126                           ;main.c: 800:  Beep(440, 101);
  7127  00369C  0E00               	movlw	0
  7128  00369E  6E3C               	movwf	(Beep@frequency+1)^0,c
  7129  0036A0  0EF6               	movlw	246
  7130  0036A2  6E3B               	movwf	Beep@frequency^0,c
  7131  0036A4  0E00               	movlw	0
  7132  0036A6  6E3E               	movwf	(Beep@duration+1)^0,c
  7133  0036A8  0E65               	movlw	101
  7134  0036AA  6E3D               	movwf	Beep@duration^0,c
  7135  0036AC  EC33  F034         	call	_Beep	;wreg free
  7136                           
  7137                           ;main.c: 801:  sleep(34);
  7138  0036B0  0E00               	movlw	0
  7139  0036B2  6E03               	movwf	(sleep@ms+1)^0,c
  7140  0036B4  0E22               	movlw	34
  7141  0036B6  6E02               	movwf	sleep@ms^0,c
  7142  0036B8  EC79  F037         	call	_sleep	;wreg free
  7143                           
  7144                           ;main.c: 802:  Beep(103, 123);
  7145  0036BC  0E00               	movlw	0
  7146  0036BE  6E3C               	movwf	(Beep@frequency+1)^0,c
  7147  0036C0  0E57               	movlw	87
  7148  0036C2  6E3B               	movwf	Beep@frequency^0,c
  7149  0036C4  0E00               	movlw	0
  7150  0036C6  6E3E               	movwf	(Beep@duration+1)^0,c
  7151  0036C8  0E7B               	movlw	123
  7152  0036CA  6E3D               	movwf	Beep@duration^0,c
  7153  0036CC  EC33  F034         	call	_Beep	;wreg free
  7154                           
  7155                           ;main.c: 803:  sleep(12);
  7156  0036D0  0E00               	movlw	0
  7157  0036D2  6E03               	movwf	(sleep@ms+1)^0,c
  7158  0036D4  0E0C               	movlw	12
  7159  0036D6  6E02               	movwf	sleep@ms^0,c
  7160  0036D8  EC79  F037         	call	_sleep	;wreg free
  7161                           
  7162                           ;main.c: 804:  Beep(110, 125);
  7163  0036DC  0E00               	movlw	0
  7164  0036DE  6E3C               	movwf	(Beep@frequency+1)^0,c
  7165  0036E0  0E5C               	movlw	92
  7166  0036E2  6E3B               	movwf	Beep@frequency^0,c
  7167  0036E4  0E00               	movlw	0
  7168  0036E6  6E3E               	movwf	(Beep@duration+1)^0,c
  7169  0036E8  0E7D               	movlw	125
  7170  0036EA  6E3D               	movwf	Beep@duration^0,c
  7171  0036EC  EC33  F034         	call	_Beep	;wreg free
  7172                           
  7173                           ;main.c: 805:  sleep(12);
  7174  0036F0  0E00               	movlw	0
  7175  0036F2  6E03               	movwf	(sleep@ms+1)^0,c
  7176  0036F4  0E0C               	movlw	12
  7177  0036F6  6E02               	movwf	sleep@ms^0,c
  7178  0036F8  EC79  F037         	call	_sleep	;wreg free
  7179                           
  7180                           ;main.c: 806:  Beep(220, 101);
  7181  0036FC  0E00               	movlw	0
  7182  0036FE  6E3C               	movwf	(Beep@frequency+1)^0,c
  7183  003700  0EB8               	movlw	184
  7184  003702  6E3B               	movwf	Beep@frequency^0,c
  7185  003704  0E00               	movlw	0
  7186  003706  6E3E               	movwf	(Beep@duration+1)^0,c
  7187  003708  0E65               	movlw	101
  7188  00370A  6E3D               	movwf	Beep@duration^0,c
  7189  00370C  EC33  F034         	call	_Beep	;wreg free
  7190                           
  7191                           ;main.c: 807:  sleep(34);
  7192  003710  0E00               	movlw	0
  7193  003712  6E03               	movwf	(sleep@ms+1)^0,c
  7194  003714  0E22               	movlw	34
  7195  003716  6E02               	movwf	sleep@ms^0,c
  7196  003718  EC79  F037         	call	_sleep	;wreg free
  7197                           
  7198                           ;main.c: 808:  Beep(103, 123);
  7199  00371C  0E00               	movlw	0
  7200  00371E  6E3C               	movwf	(Beep@frequency+1)^0,c
  7201  003720  0E57               	movlw	87
  7202  003722  6E3B               	movwf	Beep@frequency^0,c
  7203  003724  0E00               	movlw	0
  7204  003726  6E3E               	movwf	(Beep@duration+1)^0,c
  7205  003728  0E7B               	movlw	123
  7206  00372A  6E3D               	movwf	Beep@duration^0,c
  7207  00372C  EC33  F034         	call	_Beep	;wreg free
  7208                           
  7209                           ;main.c: 809:  sleep(12);
  7210  003730  0E00               	movlw	0
  7211  003732  6E03               	movwf	(sleep@ms+1)^0,c
  7212  003734  0E0C               	movlw	12
  7213  003736  6E02               	movwf	sleep@ms^0,c
  7214  003738  EC79  F037         	call	_sleep	;wreg free
  7215                           
  7216                           ;main.c: 810:  Beep(110, 125);
  7217  00373C  0E00               	movlw	0
  7218  00373E  6E3C               	movwf	(Beep@frequency+1)^0,c
  7219  003740  0E5C               	movlw	92
  7220  003742  6E3B               	movwf	Beep@frequency^0,c
  7221  003744  0E00               	movlw	0
  7222  003746  6E3E               	movwf	(Beep@duration+1)^0,c
  7223  003748  0E7D               	movlw	125
  7224  00374A  6E3D               	movwf	Beep@duration^0,c
  7225  00374C  EC33  F034         	call	_Beep	;wreg free
  7226                           
  7227                           ;main.c: 811:  sleep(12);
  7228  003750  0E00               	movlw	0
  7229  003752  6E03               	movwf	(sleep@ms+1)^0,c
  7230  003754  0E0C               	movlw	12
  7231  003756  6E02               	movwf	sleep@ms^0,c
  7232  003758  EC79  F037         	call	_sleep	;wreg free
  7233                           
  7234                           ;main.c: 812:  Beep(440, 780);
  7235  00375C  0E01               	movlw	1
  7236  00375E  6E3C               	movwf	(Beep@frequency+1)^0,c
  7237  003760  0E71               	movlw	113
  7238  003762  6E3B               	movwf	Beep@frequency^0,c
  7239  003764  0E00               	movlw	0
  7240  003766  6E3E               	movwf	(Beep@duration+1)^0,c
  7241  003768  0E65               	movlw	101
  7242  00376A  6E3D               	movwf	Beep@duration^0,c
  7243  00376C  EC33  F034         	call	_Beep	;wreg free
  7244                           
  7245                           ;main.c: 813:  sleep(39);
  7246  003770  0E00               	movlw	0
  7247  003772  6E03               	movwf	(sleep@ms+1)^0,c
  7248  003774  0E22               	movlw	34
  7249  003776  6E02               	movwf	sleep@ms^0,c
  7250  003778  EC79  F037         	call	_sleep	;wreg free
  7251                           
  7252                           ;main.c: 814:  Beep(493, 99);
  7253  00377C  0E00               	movlw	0
  7254  00377E  6E3C               	movwf	(Beep@frequency+1)^0,c
  7255  003780  0E57               	movlw	87
  7256  003782  6E3B               	movwf	Beep@frequency^0,c
  7257  003784  0E00               	movlw	0
  7258  003786  6E3E               	movwf	(Beep@duration+1)^0,c
  7259  003788  0E7B               	movlw	123
  7260  00378A  6E3D               	movwf	Beep@duration^0,c
  7261  00378C  EC33  F034         	call	_Beep	;wreg free
  7262                           
  7263                           ;main.c: 815:  sleep(34);
  7264  003790  0E00               	movlw	0
  7265  003792  6E03               	movwf	(sleep@ms+1)^0,c
  7266  003794  0E0C               	movlw	12
  7267  003796  6E02               	movwf	sleep@ms^0,c
  7268  003798  EC79  F037         	call	_sleep	;wreg free
  7269                           
  7270                           ;main.c: 816:  Beep(87, 121);
  7271  00379C  0E00               	movlw	0
  7272  00379E  6E3C               	movwf	(Beep@frequency+1)^0,c
  7273  0037A0  0E5C               	movlw	92
  7274  0037A2  6E3B               	movwf	Beep@frequency^0,c
  7275  0037A4  0E00               	movlw	0
  7276  0037A6  6E3E               	movwf	(Beep@duration+1)^0,c
  7277  0037A8  0E7D               	movlw	125
  7278  0037AA  6E3D               	movwf	Beep@duration^0,c
  7279  0037AC  EC33  F034         	call	_Beep	;wreg free
  7280                           
  7281                           ;main.c: 817:  sleep(12);
  7282  0037B0  0E00               	movlw	0
  7283  0037B2  6E03               	movwf	(sleep@ms+1)^0,c
  7284  0037B4  0E0C               	movlw	12
  7285  0037B6  6E02               	movwf	sleep@ms^0,c
  7286  0037B8  EC79  F037         	call	_sleep	;wreg free
  7287                           
  7288                           ;main.c: 818:  Beep(92, 123);
  7289  0037BC  0E00               	movlw	0
  7290  0037BE  6E3C               	movwf	(Beep@frequency+1)^0,c
  7291  0037C0  0EF6               	movlw	246
  7292  0037C2  6E3B               	movwf	Beep@frequency^0,c
  7293  0037C4  0E00               	movlw	0
  7294  0037C6  6E3E               	movwf	(Beep@duration+1)^0,c
  7295  0037C8  0E65               	movlw	101
  7296  0037CA  6E3D               	movwf	Beep@duration^0,c
  7297  0037CC  EC33  F034         	call	_Beep	;wreg free
  7298                           
  7299                           ;main.c: 819:  sleep(12);
  7300  0037D0  0E00               	movlw	0
  7301  0037D2  6E03               	movwf	(sleep@ms+1)^0,c
  7302  0037D4  0E22               	movlw	34
  7303  0037D6  6E02               	movwf	sleep@ms^0,c
  7304  0037D8  EC79  F037         	call	_sleep	;wreg free
  7305                           
  7306                           ;main.c: 820:  Beep(369, 99);
  7307  0037DC  0E00               	movlw	0
  7308  0037DE  6E3C               	movwf	(Beep@frequency+1)^0,c
  7309  0037E0  0E57               	movlw	87
  7310  0037E2  6E3B               	movwf	Beep@frequency^0,c
  7311  0037E4  0E00               	movlw	0
  7312  0037E6  6E3E               	movwf	(Beep@duration+1)^0,c
  7313  0037E8  0E7B               	movlw	123
  7314  0037EA  6E3D               	movwf	Beep@duration^0,c
  7315  0037EC  EC33  F034         	call	_Beep	;wreg free
  7316                           
  7317                           ;main.c: 821:  sleep(34);
  7318  0037F0  0E00               	movlw	0
  7319  0037F2  6E03               	movwf	(sleep@ms+1)^0,c
  7320  0037F4  0E0C               	movlw	12
  7321  0037F6  6E02               	movwf	sleep@ms^0,c
  7322  0037F8  EC79  F037         	call	_sleep	;wreg free
  7323                           
  7324                           ;main.c: 822:  Beep(87, 121);
  7325  0037FC  0E00               	movlw	0
  7326  0037FE  6E3C               	movwf	(Beep@frequency+1)^0,c
  7327  003800  0E5C               	movlw	92
  7328  003802  6E3B               	movwf	Beep@frequency^0,c
  7329  003804  0E00               	movlw	0
  7330  003806  6E3E               	movwf	(Beep@duration+1)^0,c
  7331  003808  0E7D               	movlw	125
  7332  00380A  6E3D               	movwf	Beep@duration^0,c
  7333  00380C  EC33  F034         	call	_Beep	;wreg free
  7334                           
  7335                           ;main.c: 823:  sleep(12);
  7336  003810  0E00               	movlw	0
  7337  003812  6E03               	movwf	(sleep@ms+1)^0,c
  7338  003814  0E0C               	movlw	12
  7339  003816  6E02               	movwf	sleep@ms^0,c
  7340  003818  EC79  F037         	call	_sleep	;wreg free
  7341                           
  7342                           ;main.c: 824:  Beep(92, 123);
  7343  00381C  0E01               	movlw	1
  7344  00381E  6E3C               	movwf	(Beep@frequency+1)^0,c
  7345  003820  0EB8               	movlw	184
  7346  003822  6E3B               	movwf	Beep@frequency^0,c
  7347  003824  0E00               	movlw	0
  7348  003826  6E3E               	movwf	(Beep@duration+1)^0,c
  7349  003828  0E65               	movlw	101
  7350  00382A  6E3D               	movwf	Beep@duration^0,c
  7351  00382C  EC33  F034         	call	_Beep	;wreg free
  7352                           
  7353                           ;main.c: 825:  sleep(12);
  7354  003830  0E00               	movlw	0
  7355  003832  6E03               	movwf	(sleep@ms+1)^0,c
  7356  003834  0E22               	movlw	34
  7357  003836  6E02               	movwf	sleep@ms^0,c
  7358  003838  EC79  F037         	call	_sleep	;wreg free
  7359                           
  7360                           ;main.c: 826:  Beep(739, 99);
  7361  00383C  0E00               	movlw	0
  7362  00383E  6E3C               	movwf	(Beep@frequency+1)^0,c
  7363  003840  0E67               	movlw	103
  7364  003842  6E3B               	movwf	Beep@frequency^0,c
  7365  003844  0E00               	movlw	0
  7366  003846  6E3E               	movwf	(Beep@duration+1)^0,c
  7367  003848  0E7B               	movlw	123
  7368  00384A  6E3D               	movwf	Beep@duration^0,c
  7369  00384C  EC33  F034         	call	_Beep	;wreg free
  7370                           
  7371                           ;main.c: 827:  sleep(34);
  7372  003850  0E00               	movlw	0
  7373  003852  6E03               	movwf	(sleep@ms+1)^0,c
  7374  003854  0E0C               	movlw	12
  7375  003856  6E02               	movwf	sleep@ms^0,c
  7376  003858  EC79  F037         	call	_sleep	;wreg free
  7377                           
  7378                           ;main.c: 828:  Beep(87, 121);
  7379  00385C  0E00               	movlw	0
  7380  00385E  6E3C               	movwf	(Beep@frequency+1)^0,c
  7381  003860  0E6E               	movlw	110
  7382  003862  6E3B               	movwf	Beep@frequency^0,c
  7383  003864  0E00               	movlw	0
  7384  003866  6E3E               	movwf	(Beep@duration+1)^0,c
  7385  003868  0E7D               	movlw	125
  7386  00386A  6E3D               	movwf	Beep@duration^0,c
  7387  00386C  EC33  F034         	call	_Beep	;wreg free
  7388                           
  7389                           ;main.c: 829:  sleep(12);
  7390  003870  0E00               	movlw	0
  7391  003872  6E03               	movwf	(sleep@ms+1)^0,c
  7392  003874  0E0C               	movlw	12
  7393  003876  6E02               	movwf	sleep@ms^0,c
  7394  003878  EC79  F037         	call	_sleep	;wreg free
  7395                           
  7396                           ;main.c: 830:  Beep(92, 123);
  7397  00387C  0E00               	movlw	0
  7398  00387E  6E3C               	movwf	(Beep@frequency+1)^0,c
  7399  003880  0EDC               	movlw	220
  7400  003882  6E3B               	movwf	Beep@frequency^0,c
  7401  003884  0E00               	movlw	0
  7402  003886  6E3E               	movwf	(Beep@duration+1)^0,c
  7403  003888  0E65               	movlw	101
  7404  00388A  6E3D               	movwf	Beep@duration^0,c
  7405  00388C  EC33  F034         	call	_Beep	;wreg free
  7406                           
  7407                           ;main.c: 831:  sleep(12);
  7408  003890  0E00               	movlw	0
  7409  003892  6E03               	movwf	(sleep@ms+1)^0,c
  7410  003894  0E22               	movlw	34
  7411  003896  6E02               	movwf	sleep@ms^0,c
  7412  003898  EC79  F037         	call	_sleep	;wreg free
  7413                           
  7414                           ;main.c: 832:  Beep(369, 197);
  7415  00389C  0E00               	movlw	0
  7416  00389E  6E3C               	movwf	(Beep@frequency+1)^0,c
  7417  0038A0  0E67               	movlw	103
  7418  0038A2  6E3B               	movwf	Beep@frequency^0,c
  7419  0038A4  0E00               	movlw	0
  7420  0038A6  6E3E               	movwf	(Beep@duration+1)^0,c
  7421  0038A8  0E7B               	movlw	123
  7422  0038AA  6E3D               	movwf	Beep@duration^0,c
  7423  0038AC  EC33  F034         	call	_Beep	;wreg free
  7424                           
  7425                           ;main.c: 833:  sleep(69);
  7426  0038B0  0E00               	movlw	0
  7427  0038B2  6E03               	movwf	(sleep@ms+1)^0,c
  7428  0038B4  0E0C               	movlw	12
  7429  0038B6  6E02               	movwf	sleep@ms^0,c
  7430  0038B8  EC79  F037         	call	_sleep	;wreg free
  7431                           
  7432                           ;main.c: 834:  Beep(92, 123);
  7433  0038BC  0E00               	movlw	0
  7434  0038BE  6E3C               	movwf	(Beep@frequency+1)^0,c
  7435  0038C0  0E6E               	movlw	110
  7436  0038C2  6E3B               	movwf	Beep@frequency^0,c
  7437  0038C4  0E00               	movlw	0
  7438  0038C6  6E3E               	movwf	(Beep@duration+1)^0,c
  7439  0038C8  0E7D               	movlw	125
  7440  0038CA  6E3D               	movwf	Beep@duration^0,c
  7441  0038CC  EC33  F034         	call	_Beep	;wreg free
  7442                           
  7443                           ;main.c: 835:  sleep(12);
  7444  0038D0  0E00               	movlw	0
  7445  0038D2  6E03               	movwf	(sleep@ms+1)^0,c
  7446  0038D4  0E0C               	movlw	12
  7447  0038D6  6E02               	movwf	sleep@ms^0,c
  7448  0038D8  EC79  F037         	call	_sleep	;wreg free
  7449                           
  7450                           ;main.c: 836:  Beep(698, 99);
  7451  0038DC  0E01               	movlw	1
  7452  0038DE  6E3C               	movwf	(Beep@frequency+1)^0,c
  7453  0038E0  0EB8               	movlw	184
  7454  0038E2  6E3B               	movwf	Beep@frequency^0,c
  7455  0038E4  0E03               	movlw	3
  7456  0038E6  6E3E               	movwf	(Beep@duration+1)^0,c
  7457  0038E8  0E0C               	movlw	12
  7458  0038EA  6E3D               	movwf	Beep@duration^0,c
  7459  0038EC  EC33  F034         	call	_Beep	;wreg free
  7460                           
  7461                           ;main.c: 837:  sleep(34);
  7462  0038F0  0E00               	movlw	0
  7463  0038F2  6E03               	movwf	(sleep@ms+1)^0,c
  7464  0038F4  0E27               	movlw	39
  7465  0038F6  6E02               	movwf	sleep@ms^0,c
  7466  0038F8  EC79  F037         	call	_sleep	;wreg free
  7467                           
  7468                           ;main.c: 838:  Beep(87, 121);
  7469  0038FC  0E01               	movlw	1
  7470  0038FE  6E3C               	movwf	(Beep@frequency+1)^0,c
  7471  003900  0EED               	movlw	237
  7472  003902  6E3B               	movwf	Beep@frequency^0,c
  7473  003904  0E00               	movlw	0
  7474  003906  6E3E               	movwf	(Beep@duration+1)^0,c
  7475  003908  0E63               	movlw	99
  7476  00390A  6E3D               	movwf	Beep@duration^0,c
  7477  00390C  EC33  F034         	call	_Beep	;wreg free
  7478                           
  7479                           ;main.c: 839:  sleep(12);
  7480  003910  0E00               	movlw	0
  7481  003912  6E03               	movwf	(sleep@ms+1)^0,c
  7482  003914  0E22               	movlw	34
  7483  003916  6E02               	movwf	sleep@ms^0,c
  7484  003918  EC79  F037         	call	_sleep	;wreg free
  7485                           
  7486                           ;main.c: 840:  Beep(92, 123);
  7487  00391C  0E00               	movlw	0
  7488  00391E  6E3C               	movwf	(Beep@frequency+1)^0,c
  7489  003920  0E57               	movlw	87
  7490  003922  6E3B               	movwf	Beep@frequency^0,c
  7491  003924  0E00               	movlw	0
  7492  003926  6E3E               	movwf	(Beep@duration+1)^0,c
  7493  003928  0E79               	movlw	121
  7494  00392A  6E3D               	movwf	Beep@duration^0,c
  7495  00392C  EC33  F034         	call	_Beep	;wreg free
  7496                           
  7497                           ;main.c: 841:  sleep(12);
  7498  003930  0E00               	movlw	0
  7499  003932  6E03               	movwf	(sleep@ms+1)^0,c
  7500  003934  0E0C               	movlw	12
  7501  003936  6E02               	movwf	sleep@ms^0,c
  7502  003938  EC79  F037         	call	_sleep	;wreg free
  7503                           
  7504                           ;main.c: 842:  Beep(369, 197);
  7505  00393C  0E00               	movlw	0
  7506  00393E  6E3C               	movwf	(Beep@frequency+1)^0,c
  7507  003940  0E5C               	movlw	92
  7508  003942  6E3B               	movwf	Beep@frequency^0,c
  7509  003944  0E00               	movlw	0
  7510  003946  6E3E               	movwf	(Beep@duration+1)^0,c
  7511  003948  0E7B               	movlw	123
  7512  00394A  6E3D               	movwf	Beep@duration^0,c
  7513  00394C  EC33  F034         	call	_Beep	;wreg free
  7514                           
  7515                           ;main.c: 843:  sleep(69);
  7516  003950  0E00               	movlw	0
  7517  003952  6E03               	movwf	(sleep@ms+1)^0,c
  7518  003954  0E0C               	movlw	12
  7519  003956  6E02               	movwf	sleep@ms^0,c
  7520  003958  EC79  F037         	call	_sleep	;wreg free
  7521                           
  7522                           ;main.c: 844:  Beep(92, 123);
  7523  00395C  0E01               	movlw	1
  7524  00395E  6E3C               	movwf	(Beep@frequency+1)^0,c
  7525  003960  0E71               	movlw	113
  7526  003962  6E3B               	movwf	Beep@frequency^0,c
  7527  003964  0E00               	movlw	0
  7528  003966  6E3E               	movwf	(Beep@duration+1)^0,c
  7529  003968  0E63               	movlw	99
  7530  00396A  6E3D               	movwf	Beep@duration^0,c
  7531  00396C  EC33  F034         	call	_Beep	;wreg free
  7532                           
  7533                           ;main.c: 845:  sleep(12);
  7534  003970  0E00               	movlw	0
  7535  003972  6E03               	movwf	(sleep@ms+1)^0,c
  7536  003974  0E22               	movlw	34
  7537  003976  6E02               	movwf	sleep@ms^0,c
  7538  003978  EC79  F037         	call	_sleep	;wreg free
  7539                           
  7540                           ;main.c: 846:  Beep(659, 99);
  7541  00397C  0E00               	movlw	0
  7542  00397E  6E3C               	movwf	(Beep@frequency+1)^0,c
  7543  003980  0E57               	movlw	87
  7544  003982  6E3B               	movwf	Beep@frequency^0,c
  7545  003984  0E00               	movlw	0
  7546  003986  6E3E               	movwf	(Beep@duration+1)^0,c
  7547  003988  0E79               	movlw	121
  7548  00398A  6E3D               	movwf	Beep@duration^0,c
  7549  00398C  EC33  F034         	call	_Beep	;wreg free
  7550                           
  7551                           ;main.c: 847:  sleep(34);
  7552  003990  0E00               	movlw	0
  7553  003992  6E03               	movwf	(sleep@ms+1)^0,c
  7554  003994  0E0C               	movlw	12
  7555  003996  6E02               	movwf	sleep@ms^0,c
  7556  003998  EC79  F037         	call	_sleep	;wreg free
  7557                           
  7558                           ;main.c: 848:  Beep(87, 121);
  7559  00399C  0E00               	movlw	0
  7560  00399E  6E3C               	movwf	(Beep@frequency+1)^0,c
  7561  0039A0  0E5C               	movlw	92
  7562  0039A2  6E3B               	movwf	Beep@frequency^0,c
  7563  0039A4  0E00               	movlw	0
  7564  0039A6  6E3E               	movwf	(Beep@duration+1)^0,c
  7565  0039A8  0E7B               	movlw	123
  7566  0039AA  6E3D               	movwf	Beep@duration^0,c
  7567  0039AC  EC33  F034         	call	_Beep	;wreg free
  7568                           
  7569                           ;main.c: 849:  sleep(12);
  7570  0039B0  0E00               	movlw	0
  7571  0039B2  6E03               	movwf	(sleep@ms+1)^0,c
  7572  0039B4  0E0C               	movlw	12
  7573  0039B6  6E02               	movwf	sleep@ms^0,c
  7574  0039B8  EC79  F037         	call	_sleep	;wreg free
  7575                           
  7576                           ;main.c: 850:  Beep(92, 123);
  7577  0039BC  0E02               	movlw	2
  7578  0039BE  6E3C               	movwf	(Beep@frequency+1)^0,c
  7579  0039C0  0EE3               	movlw	227
  7580  0039C2  6E3B               	movwf	Beep@frequency^0,c
  7581  0039C4  0E00               	movlw	0
  7582  0039C6  6E3E               	movwf	(Beep@duration+1)^0,c
  7583  0039C8  0E63               	movlw	99
  7584  0039CA  6E3D               	movwf	Beep@duration^0,c
  7585  0039CC  EC33  F034         	call	_Beep	;wreg free
  7586                           
  7587                           ;main.c: 851:  sleep(12);
  7588  0039D0  0E00               	movlw	0
  7589  0039D2  6E03               	movwf	(sleep@ms+1)^0,c
  7590  0039D4  0E22               	movlw	34
  7591  0039D6  6E02               	movwf	sleep@ms^0,c
  7592  0039D8  EC79  F037         	call	_sleep	;wreg free
  7593                           
  7594                           ;main.c: 852:  Beep(369, 197);
  7595  0039DC  0E00               	movlw	0
  7596  0039DE  6E3C               	movwf	(Beep@frequency+1)^0,c
  7597  0039E0  0E57               	movlw	87
  7598  0039E2  6E3B               	movwf	Beep@frequency^0,c
  7599  0039E4  0E00               	movlw	0
  7600  0039E6  6E3E               	movwf	(Beep@duration+1)^0,c
  7601  0039E8  0E79               	movlw	121
  7602  0039EA  6E3D               	movwf	Beep@duration^0,c
  7603  0039EC  EC33  F034         	call	_Beep	;wreg free
  7604                           
  7605                           ;main.c: 853:  sleep(69);
  7606  0039F0  0E00               	movlw	0
  7607  0039F2  6E03               	movwf	(sleep@ms+1)^0,c
  7608  0039F4  0E0C               	movlw	12
  7609  0039F6  6E02               	movwf	sleep@ms^0,c
  7610  0039F8  EC79  F037         	call	_sleep	;wreg free
  7611                           
  7612                           ;main.c: 854:  Beep(92, 123);
  7613  0039FC  0E00               	movlw	0
  7614  0039FE  6E3C               	movwf	(Beep@frequency+1)^0,c
  7615  003A00  0E5C               	movlw	92
  7616  003A02  6E3B               	movwf	Beep@frequency^0,c
  7617  003A04  0E00               	movlw	0
  7618  003A06  6E3E               	movwf	(Beep@duration+1)^0,c
  7619  003A08  0E7B               	movlw	123
  7620  003A0A  6E3D               	movwf	Beep@duration^0,c
  7621  003A0C  EC33  F034         	call	_Beep	;wreg free
  7622                           
  7623                           ;main.c: 855:  sleep(12);
  7624  003A10  0E00               	movlw	0
  7625  003A12  6E03               	movwf	(sleep@ms+1)^0,c
  7626  003A14  0E0C               	movlw	12
  7627  003A16  6E02               	movwf	sleep@ms^0,c
  7628  003A18  EC79  F037         	call	_sleep	;wreg free
  7629                           
  7630                           ;main.c: 856:  Beep(493, 98);
  7631  003A1C  0E01               	movlw	1
  7632  003A1E  6E3C               	movwf	(Beep@frequency+1)^0,c
  7633  003A20  0E71               	movlw	113
  7634  003A22  6E3B               	movwf	Beep@frequency^0,c
  7635  003A24  0E00               	movlw	0
  7636  003A26  6E3E               	movwf	(Beep@duration+1)^0,c
  7637  003A28  0EC5               	movlw	197
  7638  003A2A  6E3D               	movwf	Beep@duration^0,c
  7639  003A2C  EC33  F034         	call	_Beep	;wreg free
  7640                           
  7641                           ;main.c: 857:  sleep(33);
  7642  003A30  0E00               	movlw	0
  7643  003A32  6E03               	movwf	(sleep@ms+1)^0,c
  7644  003A34  0E45               	movlw	69
  7645  003A36  6E02               	movwf	sleep@ms^0,c
  7646  003A38  EC79  F037         	call	_sleep	;wreg free
  7647                           
  7648                           ;main.c: 858:  Beep(87, 118);
  7649  003A3C  0E00               	movlw	0
  7650  003A3E  6E3C               	movwf	(Beep@frequency+1)^0,c
  7651  003A40  0E5C               	movlw	92
  7652  003A42  6E3B               	movwf	Beep@frequency^0,c
  7653  003A44  0E00               	movlw	0
  7654  003A46  6E3E               	movwf	(Beep@duration+1)^0,c
  7655  003A48  0E7B               	movlw	123
  7656  003A4A  6E3D               	movwf	Beep@duration^0,c
  7657  003A4C  EC33  F034         	call	_Beep	;wreg free
  7658                           
  7659                           ;main.c: 859:  sleep(12);
  7660  003A50  0E00               	movlw	0
  7661  003A52  6E03               	movwf	(sleep@ms+1)^0,c
  7662  003A54  0E0C               	movlw	12
  7663  003A56  6E02               	movwf	sleep@ms^0,c
  7664  003A58  EC79  F037         	call	_sleep	;wreg free
  7665                           
  7666                           ;main.c: 860:  Beep(92, 119);
  7667  003A5C  0E02               	movlw	2
  7668  003A5E  6E3C               	movwf	(Beep@frequency+1)^0,c
  7669  003A60  0EBA               	movlw	186
  7670  003A62  6E3B               	movwf	Beep@frequency^0,c
  7671  003A64  0E00               	movlw	0
  7672  003A66  6E3E               	movwf	(Beep@duration+1)^0,c
  7673  003A68  0E63               	movlw	99
  7674  003A6A  6E3D               	movwf	Beep@duration^0,c
  7675  003A6C  EC33  F034         	call	_Beep	;wreg free
  7676                           
  7677                           ;main.c: 861:  sleep(12);
  7678  003A70  0E00               	movlw	0
  7679  003A72  6E03               	movwf	(sleep@ms+1)^0,c
  7680  003A74  0E22               	movlw	34
  7681  003A76  6E02               	movwf	sleep@ms^0,c
  7682  003A78  EC79  F037         	call	_sleep	;wreg free
  7683                           
  7684                           ;main.c: 862:  Beep(369, 94);
  7685  003A7C  0E00               	movlw	0
  7686  003A7E  6E3C               	movwf	(Beep@frequency+1)^0,c
  7687  003A80  0E57               	movlw	87
  7688  003A82  6E3B               	movwf	Beep@frequency^0,c
  7689  003A84  0E00               	movlw	0
  7690  003A86  6E3E               	movwf	(Beep@duration+1)^0,c
  7691  003A88  0E79               	movlw	121
  7692  003A8A  6E3D               	movwf	Beep@duration^0,c
  7693  003A8C  EC33  F034         	call	_Beep	;wreg free
  7694                           
  7695                           ;main.c: 863:  sleep(97);
  7696  003A90  0E00               	movlw	0
  7697  003A92  6E03               	movwf	(sleep@ms+1)^0,c
  7698  003A94  0E0C               	movlw	12
  7699  003A96  6E02               	movwf	sleep@ms^0,c
  7700  003A98  EC79  F037         	call	_sleep	;wreg free
  7701                           
  7702                           ;main.c: 864:  Beep(659, 92);
  7703  003A9C  0E00               	movlw	0
  7704  003A9E  6E3C               	movwf	(Beep@frequency+1)^0,c
  7705  003AA0  0E5C               	movlw	92
  7706  003AA2  6E3B               	movwf	Beep@frequency^0,c
  7707  003AA4  0E00               	movlw	0
  7708  003AA6  6E3E               	movwf	(Beep@duration+1)^0,c
  7709  003AA8  0E7B               	movlw	123
  7710  003AAA  6E3D               	movwf	Beep@duration^0,c
  7711  003AAC  EC33  F034         	call	_Beep	;wreg free
  7712                           
  7713                           ;main.c: 865:  sleep(94);
  7714  003AB0  0E00               	movlw	0
  7715  003AB2  6E03               	movwf	(sleep@ms+1)^0,c
  7716  003AB4  0E0C               	movlw	12
  7717  003AB6  6E02               	movwf	sleep@ms^0,c
  7718  003AB8  EC79  F037         	call	_sleep	;wreg free
  7719                           
  7720                           ;main.c: 866:  Beep(739, 90);
  7721  003ABC  0E01               	movlw	1
  7722  003ABE  6E3C               	movwf	(Beep@frequency+1)^0,c
  7723  003AC0  0E71               	movlw	113
  7724  003AC2  6E3B               	movwf	Beep@frequency^0,c
  7725  003AC4  0E00               	movlw	0
  7726  003AC6  6E3E               	movwf	(Beep@duration+1)^0,c
  7727  003AC8  0EC5               	movlw	197
  7728  003ACA  6E3D               	movwf	Beep@duration^0,c
  7729  003ACC  EC33  F034         	call	_Beep	;wreg free
  7730                           
  7731                           ;main.c: 867:  sleep(93);
  7732  003AD0  0E00               	movlw	0
  7733  003AD2  6E03               	movwf	(sleep@ms+1)^0,c
  7734  003AD4  0E45               	movlw	69
  7735  003AD6  6E02               	movwf	sleep@ms^0,c
  7736  003AD8  EC79  F037         	call	_sleep	;wreg free
  7737                           
  7738                           ;main.c: 868:  Beep(587, 88);
  7739  003ADC  0E00               	movlw	0
  7740  003ADE  6E3C               	movwf	(Beep@frequency+1)^0,c
  7741  003AE0  0E5C               	movlw	92
  7742  003AE2  6E3B               	movwf	Beep@frequency^0,c
  7743  003AE4  0E00               	movlw	0
  7744  003AE6  6E3E               	movwf	(Beep@duration+1)^0,c
  7745  003AE8  0E7B               	movlw	123
  7746  003AEA  6E3D               	movwf	Beep@duration^0,c
  7747  003AEC  EC33  F034         	call	_Beep	;wreg free
  7748                           
  7749                           ;main.c: 869:  sleep(91);
  7750  003AF0  0E00               	movlw	0
  7751  003AF2  6E03               	movwf	(sleep@ms+1)^0,c
  7752  003AF4  0E0C               	movlw	12
  7753  003AF6  6E02               	movwf	sleep@ms^0,c
  7754  003AF8  EC79  F037         	call	_sleep	;wreg free
  7755                           
  7756                           ;main.c: 870:  Beep(739, 86);
  7757  003AFC  0E02               	movlw	2
  7758  003AFE  6E3C               	movwf	(Beep@frequency+1)^0,c
  7759  003B00  0E93               	movlw	147
  7760  003B02  6E3B               	movwf	Beep@frequency^0,c
  7761  003B04  0E00               	movlw	0
  7762  003B06  6E3E               	movwf	(Beep@duration+1)^0,c
  7763  003B08  0E63               	movlw	99
  7764  003B0A  6E3D               	movwf	Beep@duration^0,c
  7765  003B0C  EC33  F034         	call	_Beep	;wreg free
  7766                           
  7767                           ;main.c: 871:  sleep(89);
  7768  003B10  0E00               	movlw	0
  7769  003B12  6E03               	movwf	(sleep@ms+1)^0,c
  7770  003B14  0E22               	movlw	34
  7771  003B16  6E02               	movwf	sleep@ms^0,c
  7772  003B18  EC79  F037         	call	_sleep	;wreg free
  7773                           
  7774                           ;main.c: 872:  Beep(987, 85);
  7775  003B1C  0E00               	movlw	0
  7776  003B1E  6E3C               	movwf	(Beep@frequency+1)^0,c
  7777  003B20  0E57               	movlw	87
  7778  003B22  6E3B               	movwf	Beep@frequency^0,c
  7779  003B24  0E00               	movlw	0
  7780  003B26  6E3E               	movwf	(Beep@duration+1)^0,c
  7781  003B28  0E79               	movlw	121
  7782  003B2A  6E3D               	movwf	Beep@duration^0,c
  7783  003B2C  EC33  F034         	call	_Beep	;wreg free
  7784                           
  7785                           ;main.c: 873:  sleep(87);
  7786  003B30  0E00               	movlw	0
  7787  003B32  6E03               	movwf	(sleep@ms+1)^0,c
  7788  003B34  0E0C               	movlw	12
  7789  003B36  6E02               	movwf	sleep@ms^0,c
  7790  003B38  EC79  F037         	call	_sleep	;wreg free
  7791                           
  7792                           ;main.c: 874:  Beep(739, 83);
  7793  003B3C  0E00               	movlw	0
  7794  003B3E  6E3C               	movwf	(Beep@frequency+1)^0,c
  7795  003B40  0E5C               	movlw	92
  7796  003B42  6E3B               	movwf	Beep@frequency^0,c
  7797  003B44  0E00               	movlw	0
  7798  003B46  6E3E               	movwf	(Beep@duration+1)^0,c
  7799  003B48  0E7B               	movlw	123
  7800  003B4A  6E3D               	movwf	Beep@duration^0,c
  7801  003B4C  EC33  F034         	call	_Beep	;wreg free
  7802                           
  7803                           ;main.c: 875:  sleep(86);
  7804  003B50  0E00               	movlw	0
  7805  003B52  6E03               	movwf	(sleep@ms+1)^0,c
  7806  003B54  0E0C               	movlw	12
  7807  003B56  6E02               	movwf	sleep@ms^0,c
  7808  003B58  EC79  F037         	call	_sleep	;wreg free
  7809                           
  7810                           ;main.c: 876:  Beep(587, 82);
  7811  003B5C  0E01               	movlw	1
  7812  003B5E  6E3C               	movwf	(Beep@frequency+1)^0,c
  7813  003B60  0E71               	movlw	113
  7814  003B62  6E3B               	movwf	Beep@frequency^0,c
  7815  003B64  0E00               	movlw	0
  7816  003B66  6E3E               	movwf	(Beep@duration+1)^0,c
  7817  003B68  0EC5               	movlw	197
  7818  003B6A  6E3D               	movwf	Beep@duration^0,c
  7819  003B6C  EC33  F034         	call	_Beep	;wreg free
  7820                           
  7821                           ;main.c: 877:  sleep(84);
  7822  003B70  0E00               	movlw	0
  7823  003B72  6E03               	movwf	(sleep@ms+1)^0,c
  7824  003B74  0E45               	movlw	69
  7825  003B76  6E02               	movwf	sleep@ms^0,c
  7826  003B78  EC79  F037         	call	_sleep	;wreg free
  7827                           
  7828                           ;main.c: 878:  Beep(493, 242);
  7829  003B7C  0E00               	movlw	0
  7830  003B7E  6E3C               	movwf	(Beep@frequency+1)^0,c
  7831  003B80  0E5C               	movlw	92
  7832  003B82  6E3B               	movwf	Beep@frequency^0,c
  7833  003B84  0E00               	movlw	0
  7834  003B86  6E3E               	movwf	(Beep@duration+1)^0,c
  7835  003B88  0E7B               	movlw	123
  7836  003B8A  6E3D               	movwf	Beep@duration^0,c
  7837  003B8C  EC33  F034         	call	_Beep	;wreg free
  7838                           
  7839                           ;main.c: 879:  sleep(81);
  7840  003B90  0E00               	movlw	0
  7841  003B92  6E03               	movwf	(sleep@ms+1)^0,c
  7842  003B94  0E0C               	movlw	12
  7843  003B96  6E02               	movwf	sleep@ms^0,c
  7844  003B98  EC79  F037         	call	_sleep	;wreg free
  7845                           
  7846                           ;main.c: 880:  Beep(493, 568);
  7847  003B9C  0E01               	movlw	1
  7848  003B9E  6E3C               	movwf	(Beep@frequency+1)^0,c
  7849  003BA0  0EED               	movlw	237
  7850  003BA2  6E3B               	movwf	Beep@frequency^0,c
  7851  003BA4  0E00               	movlw	0
  7852  003BA6  6E3E               	movwf	(Beep@duration+1)^0,c
  7853  003BA8  0E62               	movlw	98
  7854  003BAA  6E3D               	movwf	Beep@duration^0,c
  7855  003BAC  EC33  F034         	call	_Beep	;wreg free
  7856                           
  7857                           ;main.c: 881:  sleep(60);
  7858  003BB0  0E00               	movlw	0
  7859  003BB2  6E03               	movwf	(sleep@ms+1)^0,c
  7860  003BB4  0E21               	movlw	33
  7861  003BB6  6E02               	movwf	sleep@ms^0,c
  7862  003BB8  EC79  F037         	call	_sleep	;wreg free
  7863                           
  7864                           ;main.c: 882:  Beep(987, 77);
  7865  003BBC  0E00               	movlw	0
  7866  003BBE  6E3C               	movwf	(Beep@frequency+1)^0,c
  7867  003BC0  0E57               	movlw	87
  7868  003BC2  6E3B               	movwf	Beep@frequency^0,c
  7869  003BC4  0E00               	movlw	0
  7870  003BC6  6E3E               	movwf	(Beep@duration+1)^0,c
  7871  003BC8  0E76               	movlw	118
  7872  003BCA  6E3D               	movwf	Beep@duration^0,c
  7873  003BCC  EC33  F034         	call	_Beep	;wreg free
  7874                           
  7875                           ;main.c: 883:  sleep(80);
  7876  003BD0  0E00               	movlw	0
  7877  003BD2  6E03               	movwf	(sleep@ms+1)^0,c
  7878  003BD4  0E0C               	movlw	12
  7879  003BD6  6E02               	movwf	sleep@ms^0,c
  7880  003BD8  EC79  F037         	call	_sleep	;wreg free
  7881                           
  7882                           ;main.c: 884:  Beep(1108, 77);
  7883  003BDC  0E00               	movlw	0
  7884  003BDE  6E3C               	movwf	(Beep@frequency+1)^0,c
  7885  003BE0  0E5C               	movlw	92
  7886  003BE2  6E3B               	movwf	Beep@frequency^0,c
  7887  003BE4  0E00               	movlw	0
  7888  003BE6  6E3E               	movwf	(Beep@duration+1)^0,c
  7889  003BE8  0E77               	movlw	119
  7890  003BEA  6E3D               	movwf	Beep@duration^0,c
  7891  003BEC  EC33  F034         	call	_Beep	;wreg free
  7892                           
  7893                           ;main.c: 885:  sleep(80);
  7894  003BF0  0E00               	movlw	0
  7895  003BF2  6E03               	movwf	(sleep@ms+1)^0,c
  7896  003BF4  0E0C               	movlw	12
  7897  003BF6  6E02               	movwf	sleep@ms^0,c
  7898  003BF8  EC79  F037         	call	_sleep	;wreg free
  7899                           
  7900                           ;main.c: 886:  Beep(1174, 77);
  7901  003BFC  0E01               	movlw	1
  7902  003BFE  6E3C               	movwf	(Beep@frequency+1)^0,c
  7903  003C00  0E71               	movlw	113
  7904  003C02  6E3B               	movwf	Beep@frequency^0,c
  7905  003C04  0E00               	movlw	0
  7906  003C06  6E3E               	movwf	(Beep@duration+1)^0,c
  7907  003C08  0E5E               	movlw	94
  7908  003C0A  6E3D               	movwf	Beep@duration^0,c
  7909  003C0C  EC33  F034         	call	_Beep	;wreg free
  7910                           
  7911                           ;main.c: 887:  sleep(80);
  7912  003C10  0E00               	movlw	0
  7913  003C12  6E03               	movwf	(sleep@ms+1)^0,c
  7914  003C14  0E61               	movlw	97
  7915  003C16  6E02               	movwf	sleep@ms^0,c
  7916  003C18  EC79  F037         	call	_sleep	;wreg free
  7917                           
  7918                           ;main.c: 888:  Beep(1318, 77);
  7919  003C1C  0E02               	movlw	2
  7920  003C1E  6E3C               	movwf	(Beep@frequency+1)^0,c
  7921  003C20  0E93               	movlw	147
  7922  003C22  6E3B               	movwf	Beep@frequency^0,c
  7923  003C24  0E00               	movlw	0
  7924  003C26  6E3E               	movwf	(Beep@duration+1)^0,c
  7925  003C28  0E5C               	movlw	92
  7926  003C2A  6E3D               	movwf	Beep@duration^0,c
  7927  003C2C  EC33  F034         	call	_Beep	;wreg free
  7928                           
  7929                           ;main.c: 889:  sleep(79);
  7930  003C30  0E00               	movlw	0
  7931  003C32  6E03               	movwf	(sleep@ms+1)^0,c
  7932  003C34  0E5E               	movlw	94
  7933  003C36  6E02               	movwf	sleep@ms^0,c
  7934  003C38  EC79  F037         	call	_sleep	;wreg free
  7935                           
  7936                           ;main.c: 890:  Beep(1479, 77);
  7937  003C3C  0E02               	movlw	2
  7938  003C3E  6E3C               	movwf	(Beep@frequency+1)^0,c
  7939  003C40  0EE3               	movlw	227
  7940  003C42  6E3B               	movwf	Beep@frequency^0,c
  7941  003C44  0E00               	movlw	0
  7942  003C46  6E3E               	movwf	(Beep@duration+1)^0,c
  7943  003C48  0E5A               	movlw	90
  7944  003C4A  6E3D               	movwf	Beep@duration^0,c
  7945  003C4C  EC33  F034         	call	_Beep	;wreg free
  7946                           
  7947                           ;main.c: 891:  sleep(80);
  7948  003C50  0E00               	movlw	0
  7949  003C52  6E03               	movwf	(sleep@ms+1)^0,c
  7950  003C54  0E5D               	movlw	93
  7951  003C56  6E02               	movwf	sleep@ms^0,c
  7952  003C58  EC79  F037         	call	_sleep	;wreg free
  7953                           
  7954                           ;main.c: 892:  Beep(1174, 77);
  7955  003C5C  0E02               	movlw	2
  7956  003C5E  6E3C               	movwf	(Beep@frequency+1)^0,c
  7957  003C60  0E4B               	movlw	75
  7958  003C62  6E3B               	movwf	Beep@frequency^0,c
  7959  003C64  0E00               	movlw	0
  7960  003C66  6E3E               	movwf	(Beep@duration+1)^0,c
  7961  003C68  0E58               	movlw	88
  7962  003C6A  6E3D               	movwf	Beep@duration^0,c
  7963  003C6C  EC33  F034         	call	_Beep	;wreg free
  7964                           
  7965                           ;main.c: 893:  sleep(80);
  7966  003C70  0E00               	movlw	0
  7967  003C72  6E03               	movwf	(sleep@ms+1)^0,c
  7968  003C74  0E5B               	movlw	91
  7969  003C76  6E02               	movwf	sleep@ms^0,c
  7970  003C78  EC79  F037         	call	_sleep	;wreg free
  7971                           
  7972                           ;main.c: 894:  Beep(1479, 154);
  7973  003C7C  0E02               	movlw	2
  7974  003C7E  6E3C               	movwf	(Beep@frequency+1)^0,c
  7975  003C80  0EE3               	movlw	227
  7976  003C82  6E3B               	movwf	Beep@frequency^0,c
  7977  003C84  0E00               	movlw	0
  7978  003C86  6E3E               	movwf	(Beep@duration+1)^0,c
  7979  003C88  0E56               	movlw	86
  7980  003C8A  6E3D               	movwf	Beep@duration^0,c
  7981  003C8C  EC33  F034         	call	_Beep	;wreg free
  7982                           
  7983                           ;main.c: 895:  sleep(2);
  7984  003C90  0E00               	movlw	0
  7985  003C92  6E03               	movwf	(sleep@ms+1)^0,c
  7986  003C94  0E59               	movlw	89
  7987  003C96  6E02               	movwf	sleep@ms^0,c
  7988  003C98  EC79  F037         	call	_sleep	;wreg free
  7989                           
  7990                           ;main.c: 896:  Beep(92, 77);
  7991  003C9C  0E03               	movlw	3
  7992  003C9E  6E3C               	movwf	(Beep@frequency+1)^0,c
  7993  003CA0  0EDB               	movlw	219
  7994  003CA2  6E3B               	movwf	Beep@frequency^0,c
  7995  003CA4  0E00               	movlw	0
  7996  003CA6  6E3E               	movwf	(Beep@duration+1)^0,c
  7997  003CA8  0E55               	movlw	85
  7998  003CAA  6E3D               	movwf	Beep@duration^0,c
  7999  003CAC  EC33  F034         	call	_Beep	;wreg free
  8000                           
  8001                           ;main.c: 897:  sleep(79);
  8002  003CB0  0E00               	movlw	0
  8003  003CB2  6E03               	movwf	(sleep@ms+1)^0,c
  8004  003CB4  0E57               	movlw	87
  8005  003CB6  6E02               	movwf	sleep@ms^0,c
  8006  003CB8  EC79  F037         	call	_sleep	;wreg free
  8007                           
  8008                           ;main.c: 898:  Beep(1396, 77);
  8009  003CBC  0E02               	movlw	2
  8010  003CBE  6E3C               	movwf	(Beep@frequency+1)^0,c
  8011  003CC0  0EE3               	movlw	227
  8012  003CC2  6E3B               	movwf	Beep@frequency^0,c
  8013  003CC4  0E00               	movlw	0
  8014  003CC6  6E3E               	movwf	(Beep@duration+1)^0,c
  8015  003CC8  0E53               	movlw	83
  8016  003CCA  6E3D               	movwf	Beep@duration^0,c
  8017  003CCC  EC33  F034         	call	_Beep	;wreg free
  8018                           
  8019                           ;main.c: 899:  sleep(80);
  8020  003CD0  0E00               	movlw	0
  8021  003CD2  6E03               	movwf	(sleep@ms+1)^0,c
  8022  003CD4  0E56               	movlw	86
  8023  003CD6  6E02               	movwf	sleep@ms^0,c
  8024  003CD8  EC79  F037         	call	_sleep	;wreg free
  8025                           
  8026                           ;main.c: 900:  Beep(1108, 77);
  8027  003CDC  0E02               	movlw	2
  8028  003CDE  6E3C               	movwf	(Beep@frequency+1)^0,c
  8029  003CE0  0E4B               	movlw	75
  8030  003CE2  6E3B               	movwf	Beep@frequency^0,c
  8031  003CE4  0E00               	movlw	0
  8032  003CE6  6E3E               	movwf	(Beep@duration+1)^0,c
  8033  003CE8  0E52               	movlw	82
  8034  003CEA  6E3D               	movwf	Beep@duration^0,c
  8035  003CEC  EC33  F034         	call	_Beep	;wreg free
  8036                           
  8037                           ;main.c: 901:  sleep(80);
  8038  003CF0  0E00               	movlw	0
  8039  003CF2  6E03               	movwf	(sleep@ms+1)^0,c
  8040  003CF4  0E54               	movlw	84
  8041  003CF6  6E02               	movwf	sleep@ms^0,c
  8042  003CF8  EC79  F037         	call	_sleep	;wreg free
  8043                           
  8044                           ;main.c: 902:  Beep(1396, 154);
  8045  003CFC  0E01               	movlw	1
  8046  003CFE  6E3C               	movwf	(Beep@frequency+1)^0,c
  8047  003D00  0EED               	movlw	237
  8048  003D02  6E3B               	movwf	Beep@frequency^0,c
  8049  003D04  0E00               	movlw	0
  8050  003D06  6E3E               	movwf	(Beep@duration+1)^0,c
  8051  003D08  0EF2               	movlw	242
  8052  003D0A  6E3D               	movwf	Beep@duration^0,c
  8053  003D0C  EC33  F034         	call	_Beep	;wreg free
  8054                           
  8055                           ;main.c: 903:  sleep(2);
  8056  003D10  0E00               	movlw	0
  8057  003D12  6E03               	movwf	(sleep@ms+1)^0,c
  8058  003D14  0E51               	movlw	81
  8059  003D16  6E02               	movwf	sleep@ms^0,c
  8060  003D18  EC79  F037         	call	_sleep	;wreg free
  8061                           
  8062                           ;main.c: 904:  Beep(92, 77);
  8063  003D1C  0E01               	movlw	1
  8064  003D1E  6E3C               	movwf	(Beep@frequency+1)^0,c
  8065  003D20  0EED               	movlw	237
  8066  003D22  6E3B               	movwf	Beep@frequency^0,c
  8067  003D24  0E02               	movlw	2
  8068  003D26  6E3E               	movwf	(Beep@duration+1)^0,c
  8069  003D28  0E38               	movlw	56
  8070  003D2A  6E3D               	movwf	Beep@duration^0,c
  8071  003D2C  EC33  F034         	call	_Beep	;wreg free
  8072                           
  8073                           ;main.c: 905:  sleep(79);
  8074  003D30  0E00               	movlw	0
  8075  003D32  6E03               	movwf	(sleep@ms+1)^0,c
  8076  003D34  0E3C               	movlw	60
  8077  003D36  6E02               	movwf	sleep@ms^0,c
  8078  003D38  EC79  F037         	call	_sleep	;wreg free
  8079                           
  8080                           ;main.c: 906:  Beep(1318, 77);
  8081  003D3C  0E03               	movlw	3
  8082  003D3E  6E3C               	movwf	(Beep@frequency+1)^0,c
  8083  003D40  0EDB               	movlw	219
  8084  003D42  6E3B               	movwf	Beep@frequency^0,c
  8085  003D44  0E00               	movlw	0
  8086  003D46  6E3E               	movwf	(Beep@duration+1)^0,c
  8087  003D48  0E4D               	movlw	77
  8088  003D4A  6E3D               	movwf	Beep@duration^0,c
  8089  003D4C  EC33  F034         	call	_Beep	;wreg free
  8090                           
  8091                           ;main.c: 907:  sleep(80);
  8092  003D50  0E00               	movlw	0
  8093  003D52  6E03               	movwf	(sleep@ms+1)^0,c
  8094  003D54  0E50               	movlw	80
  8095  003D56  6E02               	movwf	sleep@ms^0,c
  8096  003D58  EC79  F037         	call	_sleep	;wreg free
  8097                           
  8098                           ;main.c: 908:  Beep(1046, 77);
  8099  003D5C  0E04               	movlw	4
  8100  003D5E  6E3C               	movwf	(Beep@frequency+1)^0,c
  8101  003D60  0E54               	movlw	84
  8102  003D62  6E3B               	movwf	Beep@frequency^0,c
  8103  003D64  0E00               	movlw	0
  8104  003D66  6E3E               	movwf	(Beep@duration+1)^0,c
  8105  003D68  0E4D               	movlw	77
  8106  003D6A  6E3D               	movwf	Beep@duration^0,c
  8107  003D6C  EC33  F034         	call	_Beep	;wreg free
  8108                           
  8109                           ;main.c: 909:  sleep(80);
  8110  003D70  0E00               	movlw	0
  8111  003D72  6E03               	movwf	(sleep@ms+1)^0,c
  8112  003D74  0E50               	movlw	80
  8113  003D76  6E02               	movwf	sleep@ms^0,c
  8114  003D78  EC79  F037         	call	_sleep	;wreg free
  8115                           
  8116                           ;main.c: 910:  Beep(1318, 154);
  8117  003D7C  0E04               	movlw	4
  8118  003D7E  6E3C               	movwf	(Beep@frequency+1)^0,c
  8119  003D80  0E96               	movlw	150
  8120  003D82  6E3B               	movwf	Beep@frequency^0,c
  8121  003D84  0E00               	movlw	0
  8122  003D86  6E3E               	movwf	(Beep@duration+1)^0,c
  8123  003D88  0E4D               	movlw	77
  8124  003D8A  6E3D               	movwf	Beep@duration^0,c
  8125  003D8C  EC33  F034         	call	_Beep	;wreg free
  8126                           
  8127                           ;main.c: 911:  sleep(2);
  8128  003D90  0E00               	movlw	0
  8129  003D92  6E03               	movwf	(sleep@ms+1)^0,c
  8130  003D94  0E50               	movlw	80
  8131  003D96  6E02               	movwf	sleep@ms^0,c
  8132  003D98  EC79  F037         	call	_sleep	;wreg free
  8133                           
  8134                           ;main.c: 912:  Beep(92, 77);
  8135  003D9C  0E05               	movlw	5
  8136  003D9E  6E3C               	movwf	(Beep@frequency+1)^0,c
  8137  003DA0  0E26               	movlw	38
  8138  003DA2  6E3B               	movwf	Beep@frequency^0,c
  8139  003DA4  0E00               	movlw	0
  8140  003DA6  6E3E               	movwf	(Beep@duration+1)^0,c
  8141  003DA8  0E4D               	movlw	77
  8142  003DAA  6E3D               	movwf	Beep@duration^0,c
  8143  003DAC  EC33  F034         	call	_Beep	;wreg free
  8144                           
  8145                           ;main.c: 913:  sleep(79);
  8146  003DB0  0E00               	movlw	0
  8147  003DB2  6E03               	movwf	(sleep@ms+1)^0,c
  8148  003DB4  0E4F               	movlw	79
  8149  003DB6  6E02               	movwf	sleep@ms^0,c
  8150  003DB8  EC79  F037         	call	_sleep	;wreg free
  8151                           
  8152                           ;main.c: 914:  Beep(987, 77);
  8153  003DBC  0E05               	movlw	5
  8154  003DBE  6E3C               	movwf	(Beep@frequency+1)^0,c
  8155  003DC0  0EC7               	movlw	199
  8156  003DC2  6E3B               	movwf	Beep@frequency^0,c
  8157  003DC4  0E00               	movlw	0
  8158  003DC6  6E3E               	movwf	(Beep@duration+1)^0,c
  8159  003DC8  0E4D               	movlw	77
  8160  003DCA  6E3D               	movwf	Beep@duration^0,c
  8161  003DCC  EC33  F034         	call	_Beep	;wreg free
  8162                           
  8163                           ;main.c: 915:  sleep(80);
  8164  003DD0  0E00               	movlw	0
  8165  003DD2  6E03               	movwf	(sleep@ms+1)^0,c
  8166  003DD4  0E50               	movlw	80
  8167  003DD6  6E02               	movwf	sleep@ms^0,c
  8168  003DD8  EC79  F037         	call	_sleep	;wreg free
  8169                           
  8170                           ;main.c: 916:  Beep(1108, 77);
  8171  003DDC  0E04               	movlw	4
  8172  003DDE  6E3C               	movwf	(Beep@frequency+1)^0,c
  8173  003DE0  0E96               	movlw	150
  8174  003DE2  6E3B               	movwf	Beep@frequency^0,c
  8175  003DE4  0E00               	movlw	0
  8176  003DE6  6E3E               	movwf	(Beep@duration+1)^0,c
  8177  003DE8  0E4D               	movlw	77
  8178  003DEA  6E3D               	movwf	Beep@duration^0,c
  8179  003DEC  EC33  F034         	call	_Beep	;wreg free
  8180                           
  8181                           ;main.c: 917:  sleep(80);
  8182  003DF0  0E00               	movlw	0
  8183  003DF2  6E03               	movwf	(sleep@ms+1)^0,c
  8184  003DF4  0E50               	movlw	80
  8185  003DF6  6E02               	movwf	sleep@ms^0,c
  8186  003DF8  EC79  F037         	call	_sleep	;wreg free
  8187                           
  8188                           ;main.c: 918:  Beep(1174, 77);
  8189  003DFC  0E05               	movlw	5
  8190  003DFE  6E3C               	movwf	(Beep@frequency+1)^0,c
  8191  003E00  0EC7               	movlw	199
  8192  003E02  6E3B               	movwf	Beep@frequency^0,c
  8193  003E04  0E00               	movlw	0
  8194  003E06  6E3E               	movwf	(Beep@duration+1)^0,c
  8195  003E08  0E9A               	movlw	154
  8196  003E0A  6E3D               	movwf	Beep@duration^0,c
  8197  003E0C  EC33  F034         	call	_Beep	;wreg free
  8198                           
  8199                           ;main.c: 919:  sleep(80);
  8200  003E10  0E00               	movlw	0
  8201  003E12  6E03               	movwf	(sleep@ms+1)^0,c
  8202  003E14  0E02               	movlw	2
  8203  003E16  6E02               	movwf	sleep@ms^0,c
  8204  003E18  EC79  F037         	call	_sleep	;wreg free
  8205                           
  8206                           ;main.c: 920:  Beep(1318, 77);
  8207  003E1C  0E00               	movlw	0
  8208  003E1E  6E3C               	movwf	(Beep@frequency+1)^0,c
  8209  003E20  0E5C               	movlw	92
  8210  003E22  6E3B               	movwf	Beep@frequency^0,c
  8211  003E24  0E00               	movlw	0
  8212  003E26  6E3E               	movwf	(Beep@duration+1)^0,c
  8213  003E28  0E4D               	movlw	77
  8214  003E2A  6E3D               	movwf	Beep@duration^0,c
  8215  003E2C  EC33  F034         	call	_Beep	;wreg free
  8216                           
  8217                           ;main.c: 921:  sleep(79);
  8218  003E30  0E00               	movlw	0
  8219  003E32  6E03               	movwf	(sleep@ms+1)^0,c
  8220  003E34  0E4F               	movlw	79
  8221  003E36  6E02               	movwf	sleep@ms^0,c
  8222  003E38  EC79  F037         	call	_sleep	;wreg free
  8223                           
  8224                           ;main.c: 922:  Beep(1479, 77);
  8225  003E3C  0E05               	movlw	5
  8226  003E3E  6E3C               	movwf	(Beep@frequency+1)^0,c
  8227  003E40  0E74               	movlw	116
  8228  003E42  6E3B               	movwf	Beep@frequency^0,c
  8229  003E44  0E00               	movlw	0
  8230  003E46  6E3E               	movwf	(Beep@duration+1)^0,c
  8231  003E48  0E4D               	movlw	77
  8232  003E4A  6E3D               	movwf	Beep@duration^0,c
  8233  003E4C  EC33  F034         	call	_Beep	;wreg free
  8234                           
  8235                           ;main.c: 923:  sleep(80);
  8236  003E50  0E00               	movlw	0
  8237  003E52  6E03               	movwf	(sleep@ms+1)^0,c
  8238  003E54  0E50               	movlw	80
  8239  003E56  6E02               	movwf	sleep@ms^0,c
  8240  003E58  EC79  F037         	call	_sleep	;wreg free
  8241                           
  8242                           ;main.c: 924:  Beep(1174, 77);
  8243  003E5C  0E04               	movlw	4
  8244  003E5E  6E3C               	movwf	(Beep@frequency+1)^0,c
  8245  003E60  0E54               	movlw	84
  8246  003E62  6E3B               	movwf	Beep@frequency^0,c
  8247  003E64  0E00               	movlw	0
  8248  003E66  6E3E               	movwf	(Beep@duration+1)^0,c
  8249  003E68  0E4D               	movlw	77
  8250  003E6A  6E3D               	movwf	Beep@duration^0,c
  8251  003E6C  EC33  F034         	call	_Beep	;wreg free
  8252                           
  8253                           ;main.c: 925:  sleep(80);
  8254  003E70  0E00               	movlw	0
  8255  003E72  6E03               	movwf	(sleep@ms+1)^0,c
  8256  003E74  0E50               	movlw	80
  8257  003E76  6E02               	movwf	sleep@ms^0,c
  8258  003E78  EC79  F037         	call	_sleep	;wreg free
  8259                           
  8260                           ;main.c: 926:  Beep(1479, 77);
  8261  003E7C  0E05               	movlw	5
  8262  003E7E  6E3C               	movwf	(Beep@frequency+1)^0,c
  8263  003E80  0E74               	movlw	116
  8264  003E82  6E3B               	movwf	Beep@frequency^0,c
  8265  003E84  0E00               	movlw	0
  8266  003E86  6E3E               	movwf	(Beep@duration+1)^0,c
  8267  003E88  0E9A               	movlw	154
  8268  003E8A  6E3D               	movwf	Beep@duration^0,c
  8269  003E8C  EC33  F034         	call	_Beep	;wreg free
  8270                           
  8271                           ;main.c: 927:  sleep(80);
  8272  003E90  0E00               	movlw	0
  8273  003E92  6E03               	movwf	(sleep@ms+1)^0,c
  8274  003E94  0E02               	movlw	2
  8275  003E96  6E02               	movwf	sleep@ms^0,c
  8276  003E98  EC79  F037         	call	_sleep	;wreg free
  8277                           
  8278                           ;main.c: 928:  Beep(1975, 77);
  8279  003E9C  0E00               	movlw	0
  8280  003E9E  6E3C               	movwf	(Beep@frequency+1)^0,c
  8281  003EA0  0E5C               	movlw	92
  8282  003EA2  6E3B               	movwf	Beep@frequency^0,c
  8283  003EA4  0E00               	movlw	0
  8284  003EA6  6E3E               	movwf	(Beep@duration+1)^0,c
  8285  003EA8  0E4D               	movlw	77
  8286  003EAA  6E3D               	movwf	Beep@duration^0,c
  8287  003EAC  EC33  F034         	call	_Beep	;wreg free
  8288                           
  8289                           ;main.c: 929:  sleep(79);
  8290  003EB0  0E00               	movlw	0
  8291  003EB2  6E03               	movwf	(sleep@ms+1)^0,c
  8292  003EB4  0E4F               	movlw	79
  8293  003EB6  6E02               	movwf	sleep@ms^0,c
  8294  003EB8  EC79  F037         	call	_sleep	;wreg free
  8295                           
  8296                           ;main.c: 930:  Beep(1760, 77);
  8297  003EBC  0E05               	movlw	5
  8298  003EBE  6E3C               	movwf	(Beep@frequency+1)^0,c
  8299  003EC0  0E26               	movlw	38
  8300  003EC2  6E3B               	movwf	Beep@frequency^0,c
  8301  003EC4  0E00               	movlw	0
  8302  003EC6  6E3E               	movwf	(Beep@duration+1)^0,c
  8303  003EC8  0E4D               	movlw	77
  8304  003ECA  6E3D               	movwf	Beep@duration^0,c
  8305  003ECC  EC33  F034         	call	_Beep	;wreg free
  8306                           
  8307                           ;main.c: 931:  sleep(80);
  8308  003ED0  0E00               	movlw	0
  8309  003ED2  6E03               	movwf	(sleep@ms+1)^0,c
  8310  003ED4  0E50               	movlw	80
  8311  003ED6  6E02               	movwf	sleep@ms^0,c
  8312  003ED8  EC79  F037         	call	_sleep	;wreg free
  8313                           
  8314                           ;main.c: 932:  Beep(1479, 77);
  8315  003EDC  0E04               	movlw	4
  8316  003EDE  6E3C               	movwf	(Beep@frequency+1)^0,c
  8317  003EE0  0E16               	movlw	22
  8318  003EE2  6E3B               	movwf	Beep@frequency^0,c
  8319  003EE4  0E00               	movlw	0
  8320  003EE6  6E3E               	movwf	(Beep@duration+1)^0,c
  8321  003EE8  0E4D               	movlw	77
  8322  003EEA  6E3D               	movwf	Beep@duration^0,c
  8323  003EEC  EC33  F034         	call	_Beep	;wreg free
  8324                           
  8325                           ;main.c: 933:  sleep(80);
  8326  003EF0  0E00               	movlw	0
  8327  003EF2  6E03               	movwf	(sleep@ms+1)^0,c
  8328  003EF4  0E50               	movlw	80
  8329  003EF6  6E02               	movwf	sleep@ms^0,c
  8330  003EF8  EC79  F037         	call	_sleep	;wreg free
  8331                           
  8332                           ;main.c: 934:  Beep(1174, 77);
  8333  003EFC  0E05               	movlw	5
  8334  003EFE  6E3C               	movwf	(Beep@frequency+1)^0,c
  8335  003F00  0E26               	movlw	38
  8336  003F02  6E3B               	movwf	Beep@frequency^0,c
  8337  003F04  0E00               	movlw	0
  8338  003F06  6E3E               	movwf	(Beep@duration+1)^0,c
  8339  003F08  0E9A               	movlw	154
  8340  003F0A  6E3D               	movwf	Beep@duration^0,c
  8341  003F0C  EC33  F034         	call	_Beep	;wreg free
  8342                           
  8343                           ;main.c: 935:  sleep(80);
  8344  003F10  0E00               	movlw	0
  8345  003F12  6E03               	movwf	(sleep@ms+1)^0,c
  8346  003F14  0E02               	movlw	2
  8347  003F16  6E02               	movwf	sleep@ms^0,c
  8348  003F18  EC79  F037         	call	_sleep	;wreg free
  8349                           
  8350                           ;main.c: 936:  Beep(1479, 77);
  8351  003F1C  0E00               	movlw	0
  8352  003F1E  6E3C               	movwf	(Beep@frequency+1)^0,c
  8353  003F20  0E5C               	movlw	92
  8354  003F22  6E3B               	movwf	Beep@frequency^0,c
  8355  003F24  0E00               	movlw	0
  8356  003F26  6E3E               	movwf	(Beep@duration+1)^0,c
  8357  003F28  0E4D               	movlw	77
  8358  003F2A  6E3D               	movwf	Beep@duration^0,c
  8359  003F2C  EC33  F034         	call	_Beep	;wreg free
  8360                           
  8361                           ;main.c: 937:  sleep(79);
  8362  003F30  0E00               	movlw	0
  8363  003F32  6E03               	movwf	(sleep@ms+1)^0,c
  8364  003F34  0E4F               	movlw	79
  8365  003F36  6E02               	movwf	sleep@ms^0,c
  8366  003F38  EC79  F037         	call	_sleep	;wreg free
  8367                           
  8368                           ;main.c: 938:  Beep(1760, 566);
  8369  003F3C  0E03               	movlw	3
  8370  003F3E  6E3C               	movwf	(Beep@frequency+1)^0,c
  8371  003F40  0EDB               	movlw	219
  8372  003F42  6E3B               	movwf	Beep@frequency^0,c
  8373  003F44  0E00               	movlw	0
  8374  003F46  6E3E               	movwf	(Beep@duration+1)^0,c
  8375  003F48  0E4D               	movlw	77
  8376  003F4A  6E3D               	movwf	Beep@duration^0,c
  8377  003F4C  EC33  F034         	call	_Beep	;wreg free
  8378                           
  8379                           ;main.c: 939:  sleep(61);
  8380  003F50  0E00               	movlw	0
  8381  003F52  6E03               	movwf	(sleep@ms+1)^0,c
  8382  003F54  0E50               	movlw	80
  8383  003F56  6E02               	movwf	sleep@ms^0,c
  8384  003F58  EC79  F037         	call	_sleep	;wreg free
  8385                           
  8386                           ;main.c: 940:  Beep(987, 77);
  8387  003F5C  0E04               	movlw	4
  8388  003F5E  6E3C               	movwf	(Beep@frequency+1)^0,c
  8389  003F60  0E54               	movlw	84
  8390  003F62  6E3B               	movwf	Beep@frequency^0,c
  8391  003F64  0E00               	movlw	0
  8392  003F66  6E3E               	movwf	(Beep@duration+1)^0,c
  8393  003F68  0E4D               	movlw	77
  8394  003F6A  6E3D               	movwf	Beep@duration^0,c
  8395  003F6C  EC33  F034         	call	_Beep	;wreg free
  8396                           
  8397                           ;main.c: 941:  sleep(80);
  8398  003F70  0E00               	movlw	0
  8399  003F72  6E03               	movwf	(sleep@ms+1)^0,c
  8400  003F74  0E50               	movlw	80
  8401  003F76  6E02               	movwf	sleep@ms^0,c
  8402  003F78  EC79  F037         	call	_sleep	;wreg free
  8403                           
  8404                           ;main.c: 942:  Beep(1108, 77);
  8405  003F7C  0E04               	movlw	4
  8406  003F7E  6E3C               	movwf	(Beep@frequency+1)^0,c
  8407  003F80  0E96               	movlw	150
  8408  003F82  6E3B               	movwf	Beep@frequency^0,c
  8409  003F84  0E00               	movlw	0
  8410  003F86  6E3E               	movwf	(Beep@duration+1)^0,c
  8411  003F88  0E4D               	movlw	77
  8412  003F8A  6E3D               	movwf	Beep@duration^0,c
  8413  003F8C  EC33  F034         	call	_Beep	;wreg free
  8414                           
  8415                           ;main.c: 943:  sleep(80);
  8416  003F90  0E00               	movlw	0
  8417  003F92  6E03               	movwf	(sleep@ms+1)^0,c
  8418  003F94  0E50               	movlw	80
  8419  003F96  6E02               	movwf	sleep@ms^0,c
  8420  003F98  EC79  F037         	call	_sleep	;wreg free
  8421                           
  8422                           ;main.c: 944:  Beep(1174, 77);
  8423  003F9C  0E05               	movlw	5
  8424  003F9E  6E3C               	movwf	(Beep@frequency+1)^0,c
  8425  003FA0  0E26               	movlw	38
  8426  003FA2  6E3B               	movwf	Beep@frequency^0,c
  8427  003FA4  0E00               	movlw	0
  8428  003FA6  6E3E               	movwf	(Beep@duration+1)^0,c
  8429  003FA8  0E4D               	movlw	77
  8430  003FAA  6E3D               	movwf	Beep@duration^0,c
  8431  003FAC  EC33  F034         	call	_Beep	;wreg free
  8432                           
  8433                           ;main.c: 945:  sleep(80);
  8434  003FB0  0E00               	movlw	0
  8435  003FB2  6E03               	movwf	(sleep@ms+1)^0,c
  8436  003FB4  0E4F               	movlw	79
  8437  003FB6  6E02               	movwf	sleep@ms^0,c
  8438  003FB8  EC79  F037         	call	_sleep	;wreg free
  8439                           
  8440                           ;main.c: 946:  Beep(1318, 77);
  8441  003FBC  0E05               	movlw	5
  8442  003FBE  6E3C               	movwf	(Beep@frequency+1)^0,c
  8443  003FC0  0EC7               	movlw	199
  8444  003FC2  6E3B               	movwf	Beep@frequency^0,c
  8445  003FC4  0E00               	movlw	0
  8446  003FC6  6E3E               	movwf	(Beep@duration+1)^0,c
  8447  003FC8  0E4D               	movlw	77
  8448  003FCA  6E3D               	movwf	Beep@duration^0,c
  8449  003FCC  EC33  F034         	call	_Beep	;wreg free
  8450                           
  8451                           ;main.c: 947:  sleep(79);
  8452  003FD0  0E00               	movlw	0
  8453  003FD2  6E03               	movwf	(sleep@ms+1)^0,c
  8454  003FD4  0E50               	movlw	80
  8455  003FD6  6E02               	movwf	sleep@ms^0,c
  8456  003FD8  EC79  F037         	call	_sleep	;wreg free
  8457                           
  8458                           ;main.c: 948:  Beep(1479, 77);
  8459  003FDC  0E04               	movlw	4
  8460  003FDE  6E3C               	movwf	(Beep@frequency+1)^0,c
  8461  003FE0  0E96               	movlw	150
  8462  003FE2  6E3B               	movwf	Beep@frequency^0,c
  8463  003FE4  0E00               	movlw	0
  8464  003FE6  6E3E               	movwf	(Beep@duration+1)^0,c
  8465  003FE8  0E4D               	movlw	77
  8466  003FEA  6E3D               	movwf	Beep@duration^0,c
  8467  003FEC  EC33  F034         	call	_Beep	;wreg free
  8468                           
  8469                           ;main.c: 949:  sleep(80);
  8470  003FF0  0E00               	movlw	0
  8471  003FF2  6E03               	movwf	(sleep@ms+1)^0,c
  8472  003FF4  0E50               	movlw	80
  8473  003FF6  6E02               	movwf	sleep@ms^0,c
  8474  003FF8  EC79  F037         	call	_sleep	;wreg free
  8475                           
  8476                           ;main.c: 950:  Beep(1174, 77);
  8477  003FFC  0E05               	movlw	5
  8478  003FFE  6E3C               	movwf	(Beep@frequency+1)^0,c
  8479  004000  0EC7               	movlw	199
  8480  004002  6E3B               	movwf	Beep@frequency^0,c
  8481  004004  0E00               	movlw	0
  8482  004006  6E3E               	movwf	(Beep@duration+1)^0,c
  8483  004008  0E4D               	movlw	77
  8484  00400A  6E3D               	movwf	Beep@duration^0,c
  8485  00400C  EC33  F034         	call	_Beep	;wreg free
  8486                           
  8487                           ;main.c: 951:  sleep(80);
  8488  004010  0E00               	movlw	0
  8489  004012  6E03               	movwf	(sleep@ms+1)^0,c
  8490  004014  0E50               	movlw	80
  8491  004016  6E02               	movwf	sleep@ms^0,c
  8492  004018  EC79  F037         	call	_sleep	;wreg free
  8493                           
  8494                           ;main.c: 952:  Beep(1479, 154);
  8495  00401C  0E07               	movlw	7
  8496  00401E  6E3C               	movwf	(Beep@frequency+1)^0,c
  8497  004020  0EB7               	movlw	183
  8498  004022  6E3B               	movwf	Beep@frequency^0,c
  8499  004024  0E00               	movlw	0
  8500  004026  6E3E               	movwf	(Beep@duration+1)^0,c
  8501  004028  0E4D               	movlw	77
  8502  00402A  6E3D               	movwf	Beep@duration^0,c
  8503  00402C  EC33  F034         	call	_Beep	;wreg free
  8504                           
  8505                           ;main.c: 953:  sleep(2);
  8506  004030  0E00               	movlw	0
  8507  004032  6E03               	movwf	(sleep@ms+1)^0,c
  8508  004034  0E4F               	movlw	79
  8509  004036  6E02               	movwf	sleep@ms^0,c
  8510  004038  EC79  F037         	call	_sleep	;wreg free
  8511                           
  8512                           ;main.c: 954:  Beep(92, 77);
  8513  00403C  0E06               	movlw	6
  8514  00403E  6E3C               	movwf	(Beep@frequency+1)^0,c
  8515  004040  0EE0               	movlw	224
  8516  004042  6E3B               	movwf	Beep@frequency^0,c
  8517  004044  0E00               	movlw	0
  8518  004046  6E3E               	movwf	(Beep@duration+1)^0,c
  8519  004048  0E4D               	movlw	77
  8520  00404A  6E3D               	movwf	Beep@duration^0,c
  8521  00404C  EC33  F034         	call	_Beep	;wreg free
  8522                           
  8523                           ;main.c: 955:  sleep(79);
  8524  004050  0E00               	movlw	0
  8525  004052  6E03               	movwf	(sleep@ms+1)^0,c
  8526  004054  0E50               	movlw	80
  8527  004056  6E02               	movwf	sleep@ms^0,c
  8528  004058  EC79  F037         	call	_sleep	;wreg free
  8529                           
  8530                           ;main.c: 956:  Beep(1396, 77);
  8531  00405C  0E05               	movlw	5
  8532  00405E  6E3C               	movwf	(Beep@frequency+1)^0,c
  8533  004060  0EC7               	movlw	199
  8534  004062  6E3B               	movwf	Beep@frequency^0,c
  8535  004064  0E00               	movlw	0
  8536  004066  6E3E               	movwf	(Beep@duration+1)^0,c
  8537  004068  0E4D               	movlw	77
  8538  00406A  6E3D               	movwf	Beep@duration^0,c
  8539  00406C  EC33  F034         	call	_Beep	;wreg free
  8540                           
  8541                           ;main.c: 957:  sleep(80);
  8542  004070  0E00               	movlw	0
  8543  004072  6E03               	movwf	(sleep@ms+1)^0,c
  8544  004074  0E50               	movlw	80
  8545  004076  6E02               	movwf	sleep@ms^0,c
  8546  004078  EC79  F037         	call	_sleep	;wreg free
  8547                           
  8548                           ;main.c: 958:  Beep(1108, 77);
  8549  00407C  0E04               	movlw	4
  8550  00407E  6E3C               	movwf	(Beep@frequency+1)^0,c
  8551  004080  0E96               	movlw	150
  8552  004082  6E3B               	movwf	Beep@frequency^0,c
  8553  004084  0E00               	movlw	0
  8554  004086  6E3E               	movwf	(Beep@duration+1)^0,c
  8555  004088  0E4D               	movlw	77
  8556  00408A  6E3D               	movwf	Beep@duration^0,c
  8557  00408C  EC33  F034         	call	_Beep	;wreg free
  8558                           
  8559                           ;main.c: 959:  sleep(80);
  8560  004090  0E00               	movlw	0
  8561  004092  6E03               	movwf	(sleep@ms+1)^0,c
  8562  004094  0E50               	movlw	80
  8563  004096  6E02               	movwf	sleep@ms^0,c
  8564  004098  EC79  F037         	call	_sleep	;wreg free
  8565                           
  8566                           ;main.c: 960:  Beep(1396, 154);
  8567  00409C  0E05               	movlw	5
  8568  00409E  6E3C               	movwf	(Beep@frequency+1)^0,c
  8569  0040A0  0EC7               	movlw	199
  8570  0040A2  6E3B               	movwf	Beep@frequency^0,c
  8571  0040A4  0E00               	movlw	0
  8572  0040A6  6E3E               	movwf	(Beep@duration+1)^0,c
  8573  0040A8  0E4D               	movlw	77
  8574  0040AA  6E3D               	movwf	Beep@duration^0,c
  8575  0040AC  EC33  F034         	call	_Beep	;wreg free
  8576                           
  8577                           ;main.c: 961:  sleep(2);
  8578  0040B0  0E00               	movlw	0
  8579  0040B2  6E03               	movwf	(sleep@ms+1)^0,c
  8580  0040B4  0E4F               	movlw	79
  8581  0040B6  6E02               	movwf	sleep@ms^0,c
  8582  0040B8  EC79  F037         	call	_sleep	;wreg free
  8583                           
  8584                           ;main.c: 962:  Beep(92, 77);
  8585  0040BC  0E06               	movlw	6
  8586  0040BE  6E3C               	movwf	(Beep@frequency+1)^0,c
  8587  0040C0  0EE0               	movlw	224
  8588  0040C2  6E3B               	movwf	Beep@frequency^0,c
  8589  0040C4  0E02               	movlw	2
  8590  0040C6  6E3E               	movwf	(Beep@duration+1)^0,c
  8591  0040C8  0E36               	movlw	54
  8592  0040CA  6E3D               	movwf	Beep@duration^0,c
  8593  0040CC  EC33  F034         	call	_Beep	;wreg free
  8594                           
  8595                           ;main.c: 963:  sleep(79);
  8596  0040D0  0E00               	movlw	0
  8597  0040D2  6E03               	movwf	(sleep@ms+1)^0,c
  8598  0040D4  0E3D               	movlw	61
  8599  0040D6  6E02               	movwf	sleep@ms^0,c
  8600  0040D8  EC79  F037         	call	_sleep	;wreg free
  8601                           
  8602                           ;main.c: 964:  Beep(1318, 77);
  8603  0040DC  0E03               	movlw	3
  8604  0040DE  6E3C               	movwf	(Beep@frequency+1)^0,c
  8605  0040E0  0EDB               	movlw	219
  8606  0040E2  6E3B               	movwf	Beep@frequency^0,c
  8607  0040E4  0E00               	movlw	0
  8608  0040E6  6E3E               	movwf	(Beep@duration+1)^0,c
  8609  0040E8  0E4D               	movlw	77
  8610  0040EA  6E3D               	movwf	Beep@duration^0,c
  8611  0040EC  EC33  F034         	call	_Beep	;wreg free
  8612                           
  8613                           ;main.c: 965:  sleep(80);
  8614  0040F0  0E00               	movlw	0
  8615  0040F2  6E03               	movwf	(sleep@ms+1)^0,c
  8616  0040F4  0E50               	movlw	80
  8617  0040F6  6E02               	movwf	sleep@ms^0,c
  8618  0040F8  EC79  F037         	call	_sleep	;wreg free
  8619                           
  8620                           ;main.c: 966:  Beep(1046, 77);
  8621  0040FC  0E04               	movlw	4
  8622  0040FE  6E3C               	movwf	(Beep@frequency+1)^0,c
  8623  004100  0E54               	movlw	84
  8624  004102  6E3B               	movwf	Beep@frequency^0,c
  8625  004104  0E00               	movlw	0
  8626  004106  6E3E               	movwf	(Beep@duration+1)^0,c
  8627  004108  0E4D               	movlw	77
  8628  00410A  6E3D               	movwf	Beep@duration^0,c
  8629  00410C  EC33  F034         	call	_Beep	;wreg free
  8630                           
  8631                           ;main.c: 967:  sleep(80);
  8632  004110  0E00               	movlw	0
  8633  004112  6E03               	movwf	(sleep@ms+1)^0,c
  8634  004114  0E50               	movlw	80
  8635  004116  6E02               	movwf	sleep@ms^0,c
  8636  004118  EC79  F037         	call	_sleep	;wreg free
  8637                           
  8638                           ;main.c: 968:  Beep(1318, 154);
  8639  00411C  0E04               	movlw	4
  8640  00411E  6E3C               	movwf	(Beep@frequency+1)^0,c
  8641  004120  0E96               	movlw	150
  8642  004122  6E3B               	movwf	Beep@frequency^0,c
  8643  004124  0E00               	movlw	0
  8644  004126  6E3E               	movwf	(Beep@duration+1)^0,c
  8645  004128  0E4D               	movlw	77
  8646  00412A  6E3D               	movwf	Beep@duration^0,c
  8647  00412C  EC33  F034         	call	_Beep	;wreg free
  8648                           
  8649                           ;main.c: 969:  sleep(2);
  8650  004130  0E00               	movlw	0
  8651  004132  6E03               	movwf	(sleep@ms+1)^0,c
  8652  004134  0E50               	movlw	80
  8653  004136  6E02               	movwf	sleep@ms^0,c
  8654  004138  EC79  F037         	call	_sleep	;wreg free
  8655                           
  8656                           ;main.c: 970:  Beep(92, 77);
  8657  00413C  0E05               	movlw	5
  8658  00413E  6E3C               	movwf	(Beep@frequency+1)^0,c
  8659  004140  0E26               	movlw	38
  8660  004142  6E3B               	movwf	Beep@frequency^0,c
  8661  004144  0E00               	movlw	0
  8662  004146  6E3E               	movwf	(Beep@duration+1)^0,c
  8663  004148  0E4D               	movlw	77
  8664  00414A  6E3D               	movwf	Beep@duration^0,c
  8665  00414C  EC33  F034         	call	_Beep	;wreg free
  8666                           
  8667                           ;main.c: 971:  sleep(79);
  8668  004150  0E00               	movlw	0
  8669  004152  6E03               	movwf	(sleep@ms+1)^0,c
  8670  004154  0E4F               	movlw	79
  8671  004156  6E02               	movwf	sleep@ms^0,c
  8672  004158  EC79  F037         	call	_sleep	;wreg free
  8673                           
  8674                           ;main.c: 972:  Beep(987, 77);
  8675  00415C  0E05               	movlw	5
  8676  00415E  6E3C               	movwf	(Beep@frequency+1)^0,c
  8677  004160  0EC7               	movlw	199
  8678  004162  6E3B               	movwf	Beep@frequency^0,c
  8679  004164  0E00               	movlw	0
  8680  004166  6E3E               	movwf	(Beep@duration+1)^0,c
  8681  004168  0E4D               	movlw	77
  8682  00416A  6E3D               	movwf	Beep@duration^0,c
  8683  00416C  EC33  F034         	call	_Beep	;wreg free
  8684                           
  8685                           ;main.c: 973:  sleep(80);
  8686  004170  0E00               	movlw	0
  8687  004172  6E03               	movwf	(sleep@ms+1)^0,c
  8688  004174  0E50               	movlw	80
  8689  004176  6E02               	movwf	sleep@ms^0,c
  8690  004178  EC79  F037         	call	_sleep	;wreg free
  8691                           
  8692                           ;main.c: 974:  Beep(1108, 77);
  8693  00417C  0E04               	movlw	4
  8694  00417E  6E3C               	movwf	(Beep@frequency+1)^0,c
  8695  004180  0E96               	movlw	150
  8696  004182  6E3B               	movwf	Beep@frequency^0,c
  8697  004184  0E00               	movlw	0
  8698  004186  6E3E               	movwf	(Beep@duration+1)^0,c
  8699  004188  0E4D               	movlw	77
  8700  00418A  6E3D               	movwf	Beep@duration^0,c
  8701  00418C  EC33  F034         	call	_Beep	;wreg free
  8702                           
  8703                           ;main.c: 975:  sleep(80);
  8704  004190  0E00               	movlw	0
  8705  004192  6E03               	movwf	(sleep@ms+1)^0,c
  8706  004194  0E50               	movlw	80
  8707  004196  6E02               	movwf	sleep@ms^0,c
  8708  004198  EC79  F037         	call	_sleep	;wreg free
  8709                           
  8710                           ;main.c: 976:  Beep(1174, 77);
  8711  00419C  0E05               	movlw	5
  8712  00419E  6E3C               	movwf	(Beep@frequency+1)^0,c
  8713  0041A0  0EC7               	movlw	199
  8714  0041A2  6E3B               	movwf	Beep@frequency^0,c
  8715  0041A4  0E00               	movlw	0
  8716  0041A6  6E3E               	movwf	(Beep@duration+1)^0,c
  8717  0041A8  0E9A               	movlw	154
  8718  0041AA  6E3D               	movwf	Beep@duration^0,c
  8719  0041AC  EC33  F034         	call	_Beep	;wreg free
  8720                           
  8721                           ;main.c: 977:  sleep(80);
  8722  0041B0  0E00               	movlw	0
  8723  0041B2  6E03               	movwf	(sleep@ms+1)^0,c
  8724  0041B4  0E02               	movlw	2
  8725  0041B6  6E02               	movwf	sleep@ms^0,c
  8726  0041B8  EC79  F037         	call	_sleep	;wreg free
  8727                           
  8728                           ;main.c: 978:  Beep(1318, 77);
  8729  0041BC  0E00               	movlw	0
  8730  0041BE  6E3C               	movwf	(Beep@frequency+1)^0,c
  8731  0041C0  0E5C               	movlw	92
  8732  0041C2  6E3B               	movwf	Beep@frequency^0,c
  8733  0041C4  0E00               	movlw	0
  8734  0041C6  6E3E               	movwf	(Beep@duration+1)^0,c
  8735  0041C8  0E4D               	movlw	77
  8736  0041CA  6E3D               	movwf	Beep@duration^0,c
  8737  0041CC  EC33  F034         	call	_Beep	;wreg free
  8738                           
  8739                           ;main.c: 979:  sleep(79);
  8740  0041D0  0E00               	movlw	0
  8741  0041D2  6E03               	movwf	(sleep@ms+1)^0,c
  8742  0041D4  0E4F               	movlw	79
  8743  0041D6  6E02               	movwf	sleep@ms^0,c
  8744  0041D8  EC79  F037         	call	_sleep	;wreg free
  8745                           
  8746                           ;main.c: 980:  Beep(1479, 77);
  8747  0041DC  0E05               	movlw	5
  8748  0041DE  6E3C               	movwf	(Beep@frequency+1)^0,c
  8749  0041E0  0E74               	movlw	116
  8750  0041E2  6E3B               	movwf	Beep@frequency^0,c
  8751  0041E4  0E00               	movlw	0
  8752  0041E6  6E3E               	movwf	(Beep@duration+1)^0,c
  8753  0041E8  0E4D               	movlw	77
  8754  0041EA  6E3D               	movwf	Beep@duration^0,c
  8755  0041EC  EC33  F034         	call	_Beep	;wreg free
  8756                           
  8757                           ;main.c: 981:  sleep(80);
  8758  0041F0  0E00               	movlw	0
  8759  0041F2  6E03               	movwf	(sleep@ms+1)^0,c
  8760  0041F4  0E50               	movlw	80
  8761  0041F6  6E02               	movwf	sleep@ms^0,c
  8762  0041F8  EC79  F037         	call	_sleep	;wreg free
  8763                           
  8764                           ;main.c: 982:  Beep(1174, 77);
  8765  0041FC  0E04               	movlw	4
  8766  0041FE  6E3C               	movwf	(Beep@frequency+1)^0,c
  8767  004200  0E54               	movlw	84
  8768  004202  6E3B               	movwf	Beep@frequency^0,c
  8769  004204  0E00               	movlw	0
  8770  004206  6E3E               	movwf	(Beep@duration+1)^0,c
  8771  004208  0E4D               	movlw	77
  8772  00420A  6E3D               	movwf	Beep@duration^0,c
  8773  00420C  EC33  F034         	call	_Beep	;wreg free
  8774                           
  8775                           ;main.c: 983:  sleep(80);
  8776  004210  0E00               	movlw	0
  8777  004212  6E03               	movwf	(sleep@ms+1)^0,c
  8778  004214  0E50               	movlw	80
  8779  004216  6E02               	movwf	sleep@ms^0,c
  8780  004218  EC79  F037         	call	_sleep	;wreg free
  8781                           
  8782                           ;main.c: 984:  Beep(1479, 77);
  8783  00421C  0E05               	movlw	5
  8784  00421E  6E3C               	movwf	(Beep@frequency+1)^0,c
  8785  004220  0E74               	movlw	116
  8786  004222  6E3B               	movwf	Beep@frequency^0,c
  8787  004224  0E00               	movlw	0
  8788  004226  6E3E               	movwf	(Beep@duration+1)^0,c
  8789  004228  0E9A               	movlw	154
  8790  00422A  6E3D               	movwf	Beep@duration^0,c
  8791  00422C  EC33  F034         	call	_Beep	;wreg free
  8792                           
  8793                           ;main.c: 985:  sleep(80);
  8794  004230  0E00               	movlw	0
  8795  004232  6E03               	movwf	(sleep@ms+1)^0,c
  8796  004234  0E02               	movlw	2
  8797  004236  6E02               	movwf	sleep@ms^0,c
  8798  004238  EC79  F037         	call	_sleep	;wreg free
  8799                           
  8800                           ;main.c: 986:  Beep(1975, 77);
  8801  00423C  0E00               	movlw	0
  8802  00423E  6E3C               	movwf	(Beep@frequency+1)^0,c
  8803  004240  0E5C               	movlw	92
  8804  004242  6E3B               	movwf	Beep@frequency^0,c
  8805  004244  0E00               	movlw	0
  8806  004246  6E3E               	movwf	(Beep@duration+1)^0,c
  8807  004248  0E4D               	movlw	77
  8808  00424A  6E3D               	movwf	Beep@duration^0,c
  8809  00424C  EC33  F034         	call	_Beep	;wreg free
  8810                           
  8811                           ;main.c: 987:  sleep(79);
  8812  004250  0E00               	movlw	0
  8813  004252  6E03               	movwf	(sleep@ms+1)^0,c
  8814  004254  0E4F               	movlw	79
  8815  004256  6E02               	movwf	sleep@ms^0,c
  8816  004258  EC79  F037         	call	_sleep	;wreg free
  8817                           
  8818                           ;main.c: 988:  Beep(1760, 77);
  8819  00425C  0E05               	movlw	5
  8820  00425E  6E3C               	movwf	(Beep@frequency+1)^0,c
  8821  004260  0E26               	movlw	38
  8822  004262  6E3B               	movwf	Beep@frequency^0,c
  8823  004264  0E00               	movlw	0
  8824  004266  6E3E               	movwf	(Beep@duration+1)^0,c
  8825  004268  0E4D               	movlw	77
  8826  00426A  6E3D               	movwf	Beep@duration^0,c
  8827  00426C  EC33  F034         	call	_Beep	;wreg free
  8828                           
  8829                           ;main.c: 989:  sleep(80);
  8830  004270  0E00               	movlw	0
  8831  004272  6E03               	movwf	(sleep@ms+1)^0,c
  8832  004274  0E50               	movlw	80
  8833  004276  6E02               	movwf	sleep@ms^0,c
  8834  004278  EC79  F037         	call	_sleep	;wreg free
  8835                           
  8836                           ;main.c: 990:  Beep(1479, 77);
  8837  00427C  0E04               	movlw	4
  8838  00427E  6E3C               	movwf	(Beep@frequency+1)^0,c
  8839  004280  0E16               	movlw	22
  8840  004282  6E3B               	movwf	Beep@frequency^0,c
  8841  004284  0E00               	movlw	0
  8842  004286  6E3E               	movwf	(Beep@duration+1)^0,c
  8843  004288  0E4D               	movlw	77
  8844  00428A  6E3D               	movwf	Beep@duration^0,c
  8845  00428C  EC33  F034         	call	_Beep	;wreg free
  8846                           
  8847                           ;main.c: 991:  sleep(80);
  8848  004290  0E00               	movlw	0
  8849  004292  6E03               	movwf	(sleep@ms+1)^0,c
  8850  004294  0E50               	movlw	80
  8851  004296  6E02               	movwf	sleep@ms^0,c
  8852  004298  EC79  F037         	call	_sleep	;wreg free
  8853                           
  8854                           ;main.c: 992:  Beep(880, 77);
  8855  00429C  0E05               	movlw	5
  8856  00429E  6E3C               	movwf	(Beep@frequency+1)^0,c
  8857  0042A0  0E26               	movlw	38
  8858  0042A2  6E3B               	movwf	Beep@frequency^0,c
  8859  0042A4  0E00               	movlw	0
  8860  0042A6  6E3E               	movwf	(Beep@duration+1)^0,c
  8861  0042A8  0E9A               	movlw	154
  8862  0042AA  6E3D               	movwf	Beep@duration^0,c
  8863  0042AC  EC33  F034         	call	_Beep	;wreg free
  8864                           
  8865                           ;main.c: 993:  sleep(80);
  8866  0042B0  0E00               	movlw	0
  8867  0042B2  6E03               	movwf	(sleep@ms+1)^0,c
  8868  0042B4  0E02               	movlw	2
  8869  0042B6  6E02               	movwf	sleep@ms^0,c
  8870  0042B8  EC79  F037         	call	_sleep	;wreg free
  8871                           
  8872                           ;main.c: 994:  Beep(1479, 77);
  8873  0042BC  0E00               	movlw	0
  8874  0042BE  6E3C               	movwf	(Beep@frequency+1)^0,c
  8875  0042C0  0E5C               	movlw	92
  8876  0042C2  6E3B               	movwf	Beep@frequency^0,c
  8877  0042C4  0E00               	movlw	0
  8878  0042C6  6E3E               	movwf	(Beep@duration+1)^0,c
  8879  0042C8  0E4D               	movlw	77
  8880  0042CA  6E3D               	movwf	Beep@duration^0,c
  8881  0042CC  EC33  F034         	call	_Beep	;wreg free
  8882                           
  8883                           ;main.c: 995:  sleep(79);
  8884  0042D0  0E00               	movlw	0
  8885  0042D2  6E03               	movwf	(sleep@ms+1)^0,c
  8886  0042D4  0E4F               	movlw	79
  8887  0042D6  6E02               	movwf	sleep@ms^0,c
  8888  0042D8  EC79  F037         	call	_sleep	;wreg free
  8889                           
  8890                           ;main.c: 996:  Beep(1760, 566);
  8891  0042DC  0E03               	movlw	3
  8892  0042DE  6E3C               	movwf	(Beep@frequency+1)^0,c
  8893  0042E0  0EDB               	movlw	219
  8894  0042E2  6E3B               	movwf	Beep@frequency^0,c
  8895  0042E4  0E00               	movlw	0
  8896  0042E6  6E3E               	movwf	(Beep@duration+1)^0,c
  8897  0042E8  0E4D               	movlw	77
  8898  0042EA  6E3D               	movwf	Beep@duration^0,c
  8899  0042EC  EC33  F034         	call	_Beep	;wreg free
  8900                           
  8901                           ;main.c: 997:  sleep(61);
  8902  0042F0  0E00               	movlw	0
  8903  0042F2  6E03               	movwf	(sleep@ms+1)^0,c
  8904  0042F4  0E50               	movlw	80
  8905  0042F6  6E02               	movwf	sleep@ms^0,c
  8906  0042F8  EC79  F037         	call	_sleep	;wreg free
  8907                           
  8908                           ;main.c: 998:  Beep(1479, 77);
  8909  0042FC  0E04               	movlw	4
  8910  0042FE  6E3C               	movwf	(Beep@frequency+1)^0,c
  8911  004300  0E54               	movlw	84
  8912  004302  6E3B               	movwf	Beep@frequency^0,c
  8913  004304  0E00               	movlw	0
  8914  004306  6E3E               	movwf	(Beep@duration+1)^0,c
  8915  004308  0E4D               	movlw	77
  8916  00430A  6E3D               	movwf	Beep@duration^0,c
  8917  00430C  EC33  F034         	call	_Beep	;wreg free
  8918                           
  8919                           ;main.c: 999:  sleep(80);
  8920  004310  0E00               	movlw	0
  8921  004312  6E03               	movwf	(sleep@ms+1)^0,c
  8922  004314  0E50               	movlw	80
  8923  004316  6E02               	movwf	sleep@ms^0,c
  8924  004318  EC79  F037         	call	_sleep	;wreg free
  8925                           
  8926                           ;main.c: 1000:  Beep(1661, 77);
  8927  00431C  0E04               	movlw	4
  8928  00431E  6E3C               	movwf	(Beep@frequency+1)^0,c
  8929  004320  0E96               	movlw	150
  8930  004322  6E3B               	movwf	Beep@frequency^0,c
  8931  004324  0E00               	movlw	0
  8932  004326  6E3E               	movwf	(Beep@duration+1)^0,c
  8933  004328  0E4D               	movlw	77
  8934  00432A  6E3D               	movwf	Beep@duration^0,c
  8935  00432C  EC33  F034         	call	_Beep	;wreg free
  8936                           
  8937                           ;main.c: 1001:  sleep(80);
  8938  004330  0E00               	movlw	0
  8939  004332  6E03               	movwf	(sleep@ms+1)^0,c
  8940  004334  0E50               	movlw	80
  8941  004336  6E02               	movwf	sleep@ms^0,c
  8942  004338  EC79  F037         	call	_sleep	;wreg free
  8943                           
  8944                           ;main.c: 1002:  Beep(1864, 77);
  8945  00433C  0E05               	movlw	5
  8946  00433E  6E3C               	movwf	(Beep@frequency+1)^0,c
  8947  004340  0E26               	movlw	38
  8948  004342  6E3B               	movwf	Beep@frequency^0,c
  8949  004344  0E00               	movlw	0
  8950  004346  6E3E               	movwf	(Beep@duration+1)^0,c
  8951  004348  0E4D               	movlw	77
  8952  00434A  6E3D               	movwf	Beep@duration^0,c
  8953  00434C  EC33  F034         	call	_Beep	;wreg free
  8954                           
  8955                           ;main.c: 1003:  sleep(80);
  8956  004350  0E00               	movlw	0
  8957  004352  6E03               	movwf	(sleep@ms+1)^0,c
  8958  004354  0E4F               	movlw	79
  8959  004356  6E02               	movwf	sleep@ms^0,c
  8960  004358  EC79  F037         	call	_sleep	;wreg free
  8961                           
  8962                           ;main.c: 1004:  Beep(1975, 77);
  8963  00435C  0E05               	movlw	5
  8964  00435E  6E3C               	movwf	(Beep@frequency+1)^0,c
  8965  004360  0EC7               	movlw	199
  8966  004362  6E3B               	movwf	Beep@frequency^0,c
  8967  004364  0E00               	movlw	0
  8968  004366  6E3E               	movwf	(Beep@duration+1)^0,c
  8969  004368  0E4D               	movlw	77
  8970  00436A  6E3D               	movwf	Beep@duration^0,c
  8971  00436C  EC33  F034         	call	_Beep	;wreg free
  8972                           
  8973                           ;main.c: 1005:  sleep(79);
  8974  004370  0E00               	movlw	0
  8975  004372  6E03               	movwf	(sleep@ms+1)^0,c
  8976  004374  0E50               	movlw	80
  8977  004376  6E02               	movwf	sleep@ms^0,c
  8978  004378  EC79  F037         	call	_sleep	;wreg free
  8979                           
  8980                           ;main.c: 1006:  Beep(2217, 77);
  8981  00437C  0E04               	movlw	4
  8982  00437E  6E3C               	movwf	(Beep@frequency+1)^0,c
  8983  004380  0E96               	movlw	150
  8984  004382  6E3B               	movwf	Beep@frequency^0,c
  8985  004384  0E00               	movlw	0
  8986  004386  6E3E               	movwf	(Beep@duration+1)^0,c
  8987  004388  0E4D               	movlw	77
  8988  00438A  6E3D               	movwf	Beep@duration^0,c
  8989  00438C  EC33  F034         	call	_Beep	;wreg free
  8990                           
  8991                           ;main.c: 1007:  sleep(80);
  8992  004390  0E00               	movlw	0
  8993  004392  6E03               	movwf	(sleep@ms+1)^0,c
  8994  004394  0E50               	movlw	80
  8995  004396  6E02               	movwf	sleep@ms^0,c
  8996  004398  EC79  F037         	call	_sleep	;wreg free
  8997                           
  8998                           ;main.c: 1008:  Beep(1864, 77);
  8999  00439C  0E05               	movlw	5
  9000  00439E  6E3C               	movwf	(Beep@frequency+1)^0,c
  9001  0043A0  0EC7               	movlw	199
  9002  0043A2  6E3B               	movwf	Beep@frequency^0,c
  9003  0043A4  0E00               	movlw	0
  9004  0043A6  6E3E               	movwf	(Beep@duration+1)^0,c
  9005  0043A8  0E4D               	movlw	77
  9006  0043AA  6E3D               	movwf	Beep@duration^0,c
  9007  0043AC  EC33  F034         	call	_Beep	;wreg free
  9008                           
  9009                           ;main.c: 1009:  sleep(79);
  9010  0043B0  0E00               	movlw	0
  9011  0043B2  6E03               	movwf	(sleep@ms+1)^0,c
  9012  0043B4  0E50               	movlw	80
  9013  0043B6  6E02               	movwf	sleep@ms^0,c
  9014  0043B8  EC79  F037         	call	_sleep	;wreg free
  9015                           
  9016                           ;main.c: 1010:  Beep(2217, 154);
  9017  0043BC  0E07               	movlw	7
  9018  0043BE  6E3C               	movwf	(Beep@frequency+1)^0,c
  9019  0043C0  0EB7               	movlw	183
  9020  0043C2  6E3B               	movwf	Beep@frequency^0,c
  9021  0043C4  0E00               	movlw	0
  9022  0043C6  6E3E               	movwf	(Beep@duration+1)^0,c
  9023  0043C8  0E4D               	movlw	77
  9024  0043CA  6E3D               	movwf	Beep@duration^0,c
  9025  0043CC  EC33  F034         	call	_Beep	;wreg free
  9026                           
  9027                           ;main.c: 1011:  sleep(2);
  9028  0043D0  0E00               	movlw	0
  9029  0043D2  6E03               	movwf	(sleep@ms+1)^0,c
  9030  0043D4  0E4F               	movlw	79
  9031  0043D6  6E02               	movwf	sleep@ms^0,c
  9032  0043D8  EC79  F037         	call	_sleep	;wreg free
  9033                           
  9034                           ;main.c: 1012:  Beep(138, 77);
  9035  0043DC  0E06               	movlw	6
  9036  0043DE  6E3C               	movwf	(Beep@frequency+1)^0,c
  9037  0043E0  0EE0               	movlw	224
  9038  0043E2  6E3B               	movwf	Beep@frequency^0,c
  9039  0043E4  0E00               	movlw	0
  9040  0043E6  6E3E               	movwf	(Beep@duration+1)^0,c
  9041  0043E8  0E4D               	movlw	77
  9042  0043EA  6E3D               	movwf	Beep@duration^0,c
  9043  0043EC  EC33  F034         	call	_Beep	;wreg free
  9044                           
  9045                           ;main.c: 1013:  sleep(79);
  9046  0043F0  0E00               	movlw	0
  9047  0043F2  6E03               	movwf	(sleep@ms+1)^0,c
  9048  0043F4  0E50               	movlw	80
  9049  0043F6  6E02               	movwf	sleep@ms^0,c
  9050  0043F8  EC79  F037         	call	_sleep	;wreg free
  9051                           
  9052                           ;main.c: 1014:  Beep(2349, 77);
  9053  0043FC  0E05               	movlw	5
  9054  0043FE  6E3C               	movwf	(Beep@frequency+1)^0,c
  9055  004400  0EC7               	movlw	199
  9056  004402  6E3B               	movwf	Beep@frequency^0,c
  9057  004404  0E00               	movlw	0
  9058  004406  6E3E               	movwf	(Beep@duration+1)^0,c
  9059  004408  0E4D               	movlw	77
  9060  00440A  6E3D               	movwf	Beep@duration^0,c
  9061  00440C  EC33  F034         	call	_Beep	;wreg free
  9062                           
  9063                           ;main.c: 1015:  sleep(79);
  9064  004410  0E00               	movlw	0
  9065  004412  6E03               	movwf	(sleep@ms+1)^0,c
  9066  004414  0E50               	movlw	80
  9067  004416  6E02               	movwf	sleep@ms^0,c
  9068  004418  EC79  F037         	call	_sleep	;wreg free
  9069                           
  9070                           ;main.c: 1016:  Beep(1864, 77);
  9071  00441C  0E03               	movlw	3
  9072  00441E  6E3C               	movwf	(Beep@frequency+1)^0,c
  9073  004420  0E70               	movlw	112
  9074  004422  6E3B               	movwf	Beep@frequency^0,c
  9075  004424  0E00               	movlw	0
  9076  004426  6E3E               	movwf	(Beep@duration+1)^0,c
  9077  004428  0E4D               	movlw	77
  9078  00442A  6E3D               	movwf	Beep@duration^0,c
  9079  00442C  EC33  F034         	call	_Beep	;wreg free
  9080                           
  9081                           ;main.c: 1017:  sleep(80);
  9082  004430  0E00               	movlw	0
  9083  004432  6E03               	movwf	(sleep@ms+1)^0,c
  9084  004434  0E50               	movlw	80
  9085  004436  6E02               	movwf	sleep@ms^0,c
  9086  004438  EC79  F037         	call	_sleep	;wreg free
  9087                           
  9088                           ;main.c: 1018:  Beep(2349, 154);
  9089  00443C  0E05               	movlw	5
  9090  00443E  6E3C               	movwf	(Beep@frequency+1)^0,c
  9091  004440  0EC7               	movlw	199
  9092  004442  6E3B               	movwf	Beep@frequency^0,c
  9093  004444  0E00               	movlw	0
  9094  004446  6E3E               	movwf	(Beep@duration+1)^0,c
  9095  004448  0E4D               	movlw	77
  9096  00444A  6E3D               	movwf	Beep@duration^0,c
  9097  00444C  EC33  F034         	call	_Beep	;wreg free
  9098                           
  9099                           ;main.c: 1019:  sleep(2);
  9100  004450  0E00               	movlw	0
  9101  004452  6E03               	movwf	(sleep@ms+1)^0,c
  9102  004454  0E4F               	movlw	79
  9103  004456  6E02               	movwf	sleep@ms^0,c
  9104  004458  EC79  F037         	call	_sleep	;wreg free
  9105                           
  9106                           ;main.c: 1020:  Beep(164, 77);
  9107  00445C  0E06               	movlw	6
  9108  00445E  6E3C               	movwf	(Beep@frequency+1)^0,c
  9109  004460  0EE0               	movlw	224
  9110  004462  6E3B               	movwf	Beep@frequency^0,c
  9111  004464  0E02               	movlw	2
  9112  004466  6E3E               	movwf	(Beep@duration+1)^0,c
  9113  004468  0E36               	movlw	54
  9114  00446A  6E3D               	movwf	Beep@duration^0,c
  9115  00446C  EC33  F034         	call	_Beep	;wreg free
  9116                           
  9117                           ;main.c: 1021:  sleep(80);
  9118  004470  0E00               	movlw	0
  9119  004472  6E03               	movwf	(sleep@ms+1)^0,c
  9120  004474  0E3D               	movlw	61
  9121  004476  6E02               	movwf	sleep@ms^0,c
  9122  004478  EC79  F037         	call	_sleep	;wreg free
  9123                           
  9124                           ;main.c: 1022:  Beep(2217, 77);
  9125  00447C  0E05               	movlw	5
  9126  00447E  6E3C               	movwf	(Beep@frequency+1)^0,c
  9127  004480  0EC7               	movlw	199
  9128  004482  6E3B               	movwf	Beep@frequency^0,c
  9129  004484  0E00               	movlw	0
  9130  004486  6E3E               	movwf	(Beep@duration+1)^0,c
  9131  004488  0E4D               	movlw	77
  9132  00448A  6E3D               	movwf	Beep@duration^0,c
  9133  00448C  EC33  F034         	call	_Beep	;wreg free
  9134                           
  9135                           ;main.c: 1023:  sleep(79);
  9136  004490  0E00               	movlw	0
  9137  004492  6E03               	movwf	(sleep@ms+1)^0,c
  9138  004494  0E50               	movlw	80
  9139  004496  6E02               	movwf	sleep@ms^0,c
  9140  004498  EC79  F037         	call	_sleep	;wreg free
  9141                           
  9142                           ;main.c: 1024:  Beep(1864, 77);
  9143  00449C  0E06               	movlw	6
  9144  00449E  6E3C               	movwf	(Beep@frequency+1)^0,c
  9145  0044A0  0E7D               	movlw	125
  9146  0044A2  6E3B               	movwf	Beep@frequency^0,c
  9147  0044A4  0E00               	movlw	0
  9148  0044A6  6E3E               	movwf	(Beep@duration+1)^0,c
  9149  0044A8  0E4D               	movlw	77
  9150  0044AA  6E3D               	movwf	Beep@duration^0,c
  9151  0044AC  EC33  F034         	call	_Beep	;wreg free
  9152                           
  9153                           ;main.c: 1025:  sleep(80);
  9154  0044B0  0E00               	movlw	0
  9155  0044B2  6E03               	movwf	(sleep@ms+1)^0,c
  9156  0044B4  0E50               	movlw	80
  9157  0044B6  6E02               	movwf	sleep@ms^0,c
  9158  0044B8  EC79  F037         	call	_sleep	;wreg free
  9159                           
  9160                           ;main.c: 1026:  Beep(2217, 154);
  9161  0044BC  0E07               	movlw	7
  9162  0044BE  6E3C               	movwf	(Beep@frequency+1)^0,c
  9163  0044C0  0E48               	movlw	72
  9164  0044C2  6E3B               	movwf	Beep@frequency^0,c
  9165  0044C4  0E00               	movlw	0
  9166  0044C6  6E3E               	movwf	(Beep@duration+1)^0,c
  9167  0044C8  0E4D               	movlw	77
  9168  0044CA  6E3D               	movwf	Beep@duration^0,c
  9169  0044CC  EC33  F034         	call	_Beep	;wreg free
  9170                           
  9171                           ;main.c: 1027:  sleep(2);
  9172  0044D0  0E00               	movlw	0
  9173  0044D2  6E03               	movwf	(sleep@ms+1)^0,c
  9174  0044D4  0E50               	movlw	80
  9175  0044D6  6E02               	movwf	sleep@ms^0,c
  9176  0044D8  EC79  F037         	call	_sleep	;wreg free
  9177                           
  9178                           ;main.c: 1028:  Beep(138, 77);
  9179  0044DC  0E07               	movlw	7
  9180  0044DE  6E3C               	movwf	(Beep@frequency+1)^0,c
  9181  0044E0  0EB7               	movlw	183
  9182  0044E2  6E3B               	movwf	Beep@frequency^0,c
  9183  0044E4  0E00               	movlw	0
  9184  0044E6  6E3E               	movwf	(Beep@duration+1)^0,c
  9185  0044E8  0E4D               	movlw	77
  9186  0044EA  6E3D               	movwf	Beep@duration^0,c
  9187  0044EC  EC33  F034         	call	_Beep	;wreg free
  9188                           
  9189                           ;main.c: 1029:  sleep(79);
  9190  0044F0  0E00               	movlw	0
  9191  0044F2  6E03               	movwf	(sleep@ms+1)^0,c
  9192  0044F4  0E4F               	movlw	79
  9193  0044F6  6E02               	movwf	sleep@ms^0,c
  9194  0044F8  EC79  F037         	call	_sleep	;wreg free
  9195                           
  9196                           ;main.c: 1030:  Beep(1479, 77);
  9197  0044FC  0E08               	movlw	8
  9198  0044FE  6E3C               	movwf	(Beep@frequency+1)^0,c
  9199  004500  0EA9               	movlw	169
  9200  004502  6E3B               	movwf	Beep@frequency^0,c
  9201  004504  0E00               	movlw	0
  9202  004506  6E3E               	movwf	(Beep@duration+1)^0,c
  9203  004508  0E4D               	movlw	77
  9204  00450A  6E3D               	movwf	Beep@duration^0,c
  9205  00450C  EC33  F034         	call	_Beep	;wreg free
  9206                           
  9207                           ;main.c: 1031:  sleep(79);
  9208  004510  0E00               	movlw	0
  9209  004512  6E03               	movwf	(sleep@ms+1)^0,c
  9210  004514  0E50               	movlw	80
  9211  004516  6E02               	movwf	sleep@ms^0,c
  9212  004518  EC79  F037         	call	_sleep	;wreg free
  9213                           
  9214                           ;main.c: 1032:  Beep(1661, 77);
  9215  00451C  0E07               	movlw	7
  9216  00451E  6E3C               	movwf	(Beep@frequency+1)^0,c
  9217  004520  0E48               	movlw	72
  9218  004522  6E3B               	movwf	Beep@frequency^0,c
  9219  004524  0E00               	movlw	0
  9220  004526  6E3E               	movwf	(Beep@duration+1)^0,c
  9221  004528  0E4D               	movlw	77
  9222  00452A  6E3D               	movwf	Beep@duration^0,c
  9223  00452C  EC33  F034         	call	_Beep	;wreg free
  9224                           
  9225                           ;main.c: 1033:  sleep(80);
  9226  004530  0E00               	movlw	0
  9227  004532  6E03               	movwf	(sleep@ms+1)^0,c
  9228  004534  0E4F               	movlw	79
  9229  004536  6E02               	movwf	sleep@ms^0,c
  9230  004538  EC79  F037         	call	_sleep	;wreg free
  9231                           
  9232                           ;main.c: 1034:  Beep(1864, 77);
  9233  00453C  0E08               	movlw	8
  9234  00453E  6E3C               	movwf	(Beep@frequency+1)^0,c
  9235  004540  0EA9               	movlw	169
  9236  004542  6E3B               	movwf	Beep@frequency^0,c
  9237  004544  0E00               	movlw	0
  9238  004546  6E3E               	movwf	(Beep@duration+1)^0,c
  9239  004548  0E9A               	movlw	154
  9240  00454A  6E3D               	movwf	Beep@duration^0,c
  9241  00454C  EC33  F034         	call	_Beep	;wreg free
  9242                           
  9243                           ;main.c: 1035:  sleep(80);
  9244  004550  0E00               	movlw	0
  9245  004552  6E03               	movwf	(sleep@ms+1)^0,c
  9246  004554  0E02               	movlw	2
  9247  004556  6E02               	movwf	sleep@ms^0,c
  9248  004558  EC79  F037         	call	_sleep	;wreg free
  9249                           
  9250                           ;main.c: 1036:  Beep(1975, 77);
  9251  00455C  0E00               	movlw	0
  9252  00455E  6E3C               	movwf	(Beep@frequency+1)^0,c
  9253  004560  0E8A               	movlw	138
  9254  004562  6E3B               	movwf	Beep@frequency^0,c
  9255  004564  0E00               	movlw	0
  9256  004566  6E3E               	movwf	(Beep@duration+1)^0,c
  9257  004568  0E4D               	movlw	77
  9258  00456A  6E3D               	movwf	Beep@duration^0,c
  9259  00456C  EC33  F034         	call	_Beep	;wreg free
  9260                           
  9261                           ;main.c: 1037:  sleep(80);
  9262  004570  0E00               	movlw	0
  9263  004572  6E03               	movwf	(sleep@ms+1)^0,c
  9264  004574  0E4F               	movlw	79
  9265  004576  6E02               	movwf	sleep@ms^0,c
  9266  004578  EC79  F037         	call	_sleep	;wreg free
  9267                           
  9268                           ;main.c: 1038:  Beep(2217, 77);
  9269  00457C  0E09               	movlw	9
  9270  00457E  6E3C               	movwf	(Beep@frequency+1)^0,c
  9271  004580  0E2D               	movlw	45
  9272  004582  6E3B               	movwf	Beep@frequency^0,c
  9273  004584  0E00               	movlw	0
  9274  004586  6E3E               	movwf	(Beep@duration+1)^0,c
  9275  004588  0E4D               	movlw	77
  9276  00458A  6E3D               	movwf	Beep@duration^0,c
  9277  00458C  EC33  F034         	call	_Beep	;wreg free
  9278                           
  9279                           ;main.c: 1039:  sleep(80);
  9280  004590  0E00               	movlw	0
  9281  004592  6E03               	movwf	(sleep@ms+1)^0,c
  9282  004594  0E4F               	movlw	79
  9283  004596  6E02               	movwf	sleep@ms^0,c
  9284  004598  EC79  F037         	call	_sleep	;wreg free
  9285                           
  9286                           ;main.c: 1040:  Beep(1864, 77);
  9287  00459C  0E07               	movlw	7
  9288  00459E  6E3C               	movwf	(Beep@frequency+1)^0,c
  9289  0045A0  0E48               	movlw	72
  9290  0045A2  6E3B               	movwf	Beep@frequency^0,c
  9291  0045A4  0E00               	movlw	0
  9292  0045A6  6E3E               	movwf	(Beep@duration+1)^0,c
  9293  0045A8  0E4D               	movlw	77
  9294  0045AA  6E3D               	movwf	Beep@duration^0,c
  9295  0045AC  EC33  F034         	call	_Beep	;wreg free
  9296                           
  9297                           ;main.c: 1041:  sleep(80);
  9298  0045B0  0E00               	movlw	0
  9299  0045B2  6E03               	movwf	(sleep@ms+1)^0,c
  9300  0045B4  0E50               	movlw	80
  9301  0045B6  6E02               	movwf	sleep@ms^0,c
  9302  0045B8  EC79  F037         	call	_sleep	;wreg free
  9303                           
  9304                           ;main.c: 1042:  Beep(2217, 154);
  9305  0045BC  0E09               	movlw	9
  9306  0045BE  6E3C               	movwf	(Beep@frequency+1)^0,c
  9307  0045C0  0E2D               	movlw	45
  9308  0045C2  6E3B               	movwf	Beep@frequency^0,c
  9309  0045C4  0E00               	movlw	0
  9310  0045C6  6E3E               	movwf	(Beep@duration+1)^0,c
  9311  0045C8  0E9A               	movlw	154
  9312  0045CA  6E3D               	movwf	Beep@duration^0,c
  9313  0045CC  EC33  F034         	call	_Beep	;wreg free
  9314                           
  9315                           ;main.c: 1043:  sleep(2);
  9316  0045D0  0E00               	movlw	0
  9317  0045D2  6E03               	movwf	(sleep@ms+1)^0,c
  9318  0045D4  0E02               	movlw	2
  9319  0045D6  6E02               	movwf	sleep@ms^0,c
  9320  0045D8  EC79  F037         	call	_sleep	;wreg free
  9321                           
  9322                           ;main.c: 1044:  Beep(138, 77);
  9323  0045DC  0E00               	movlw	0
  9324  0045DE  6E3C               	movwf	(Beep@frequency+1)^0,c
  9325  0045E0  0EA4               	movlw	164
  9326  0045E2  6E3B               	movwf	Beep@frequency^0,c
  9327  0045E4  0E00               	movlw	0
  9328  0045E6  6E3E               	movwf	(Beep@duration+1)^0,c
  9329  0045E8  0E4D               	movlw	77
  9330  0045EA  6E3D               	movwf	Beep@duration^0,c
  9331  0045EC  EC33  F034         	call	_Beep	;wreg free
  9332                           
  9333                           ;main.c: 1045:  sleep(80);
  9334  0045F0  0E00               	movlw	0
  9335  0045F2  6E03               	movwf	(sleep@ms+1)^0,c
  9336  0045F4  0E50               	movlw	80
  9337  0045F6  6E02               	movwf	sleep@ms^0,c
  9338  0045F8  EC79  F037         	call	_sleep	;wreg free
  9339                           
  9340                           ;main.c: 1046:  Beep(2349, 77);
  9341  0045FC  0E08               	movlw	8
  9342  0045FE  6E3C               	movwf	(Beep@frequency+1)^0,c
  9343  004600  0EA9               	movlw	169
  9344  004602  6E3B               	movwf	Beep@frequency^0,c
  9345  004604  0E00               	movlw	0
  9346  004606  6E3E               	movwf	(Beep@duration+1)^0,c
  9347  004608  0E4D               	movlw	77
  9348  00460A  6E3D               	movwf	Beep@duration^0,c
  9349  00460C  EC33  F034         	call	_Beep	;wreg free
  9350                           
  9351                           ;main.c: 1047:  sleep(80);
  9352  004610  0E00               	movlw	0
  9353  004612  6E03               	movwf	(sleep@ms+1)^0,c
  9354  004614  0E4F               	movlw	79
  9355  004616  6E02               	movwf	sleep@ms^0,c
  9356  004618  EC79  F037         	call	_sleep	;wreg free
  9357                           
  9358                           ;main.c: 1048:  Beep(1864, 77);
  9359  00461C  0E07               	movlw	7
  9360  00461E  6E3C               	movwf	(Beep@frequency+1)^0,c
  9361  004620  0E48               	movlw	72
  9362  004622  6E3B               	movwf	Beep@frequency^0,c
  9363  004624  0E00               	movlw	0
  9364  004626  6E3E               	movwf	(Beep@duration+1)^0,c
  9365  004628  0E4D               	movlw	77
  9366  00462A  6E3D               	movwf	Beep@duration^0,c
  9367  00462C  EC33  F034         	call	_Beep	;wreg free
  9368                           
  9369                           ;main.c: 1049:  sleep(80);
  9370  004630  0E00               	movlw	0
  9371  004632  6E03               	movwf	(sleep@ms+1)^0,c
  9372  004634  0E50               	movlw	80
  9373  004636  6E02               	movwf	sleep@ms^0,c
  9374  004638  EC79  F037         	call	_sleep	;wreg free
  9375                           
  9376                           ;main.c: 1050:  Beep(2349, 154);
  9377  00463C  0E08               	movlw	8
  9378  00463E  6E3C               	movwf	(Beep@frequency+1)^0,c
  9379  004640  0EA9               	movlw	169
  9380  004642  6E3B               	movwf	Beep@frequency^0,c
  9381  004644  0E00               	movlw	0
  9382  004646  6E3E               	movwf	(Beep@duration+1)^0,c
  9383  004648  0E9A               	movlw	154
  9384  00464A  6E3D               	movwf	Beep@duration^0,c
  9385  00464C  EC33  F034         	call	_Beep	;wreg free
  9386                           
  9387                           ;main.c: 1051:  sleep(2);
  9388  004650  0E00               	movlw	0
  9389  004652  6E03               	movwf	(sleep@ms+1)^0,c
  9390  004654  0E02               	movlw	2
  9391  004656  6E02               	movwf	sleep@ms^0,c
  9392  004658  EC79  F037         	call	_sleep	;wreg free
  9393                           
  9394                           ;main.c: 1052:  Beep(164, 77);
  9395  00465C  0E00               	movlw	0
  9396  00465E  6E3C               	movwf	(Beep@frequency+1)^0,c
  9397  004660  0E8A               	movlw	138
  9398  004662  6E3B               	movwf	Beep@frequency^0,c
  9399  004664  0E00               	movlw	0
  9400  004666  6E3E               	movwf	(Beep@duration+1)^0,c
  9401  004668  0E4D               	movlw	77
  9402  00466A  6E3D               	movwf	Beep@duration^0,c
  9403  00466C  EC33  F034         	call	_Beep	;wreg free
  9404                           
  9405                           ;main.c: 1053:  sleep(80);
  9406  004670  0E00               	movlw	0
  9407  004672  6E03               	movwf	(sleep@ms+1)^0,c
  9408  004674  0E4F               	movlw	79
  9409  004676  6E02               	movwf	sleep@ms^0,c
  9410  004678  EC79  F037         	call	_sleep	;wreg free
  9411                           
  9412                           ;main.c: 1054:  Beep(2217, 308);
  9413  00467C  0E05               	movlw	5
  9414  00467E  6E3C               	movwf	(Beep@frequency+1)^0,c
  9415  004680  0EC7               	movlw	199
  9416  004682  6E3B               	movwf	Beep@frequency^0,c
  9417  004684  0E00               	movlw	0
  9418  004686  6E3E               	movwf	(Beep@duration+1)^0,c
  9419  004688  0E4D               	movlw	77
  9420  00468A  6E3D               	movwf	Beep@duration^0,c
  9421  00468C  EC33  F034         	call	_Beep	;wreg free
  9422                           
  9423                           ;main.c: 1055:  sleep(6);
  9424  004690  0E00               	movlw	0
  9425  004692  6E03               	movwf	(sleep@ms+1)^0,c
  9426  004694  0E4F               	movlw	79
  9427  004696  6E02               	movwf	sleep@ms^0,c
  9428  004698  EC79  F037         	call	_sleep	;wreg free
  9429                           
  9430                           ;main.c: 1056:  Beep(146, 77);
  9431  00469C  0E06               	movlw	6
  9432  00469E  6E3C               	movwf	(Beep@frequency+1)^0,c
  9433  0046A0  0E7D               	movlw	125
  9434  0046A2  6E3B               	movwf	Beep@frequency^0,c
  9435  0046A4  0E00               	movlw	0
  9436  0046A6  6E3E               	movwf	(Beep@duration+1)^0,c
  9437  0046A8  0E4D               	movlw	77
  9438  0046AA  6E3D               	movwf	Beep@duration^0,c
  9439  0046AC  EC33  F034         	call	_Beep	;wreg free
  9440                           
  9441                           ;main.c: 1057:  sleep(80);
  9442  0046B0  0E00               	movlw	0
  9443  0046B2  6E03               	movwf	(sleep@ms+1)^0,c
  9444  0046B4  0E50               	movlw	80
  9445  0046B6  6E02               	movwf	sleep@ms^0,c
  9446  0046B8  EC79  F037         	call	_sleep	;wreg free
  9447                           
  9448                           ;main.c: 1058:  Beep(138, 77);
  9449  0046BC  0E07               	movlw	7
  9450  0046BE  6E3C               	movwf	(Beep@frequency+1)^0,c
  9451  0046C0  0E48               	movlw	72
  9452  0046C2  6E3B               	movwf	Beep@frequency^0,c
  9453  0046C4  0E00               	movlw	0
  9454  0046C6  6E3E               	movwf	(Beep@duration+1)^0,c
  9455  0046C8  0E4D               	movlw	77
  9456  0046CA  6E3D               	movwf	Beep@duration^0,c
  9457  0046CC  EC33  F034         	call	_Beep	;wreg free
  9458                           
  9459                           ;main.c: 1059:  sleep(79);
  9460  0046D0  0E00               	movlw	0
  9461  0046D2  6E03               	movwf	(sleep@ms+1)^0,c
  9462  0046D4  0E50               	movlw	80
  9463  0046D6  6E02               	movwf	sleep@ms^0,c
  9464  0046D8  EC79  F037         	call	_sleep	;wreg free
  9465                           
  9466                           ;main.c: 1060:  Beep(1479, 77);
  9467  0046DC  0E07               	movlw	7
  9468  0046DE  6E3C               	movwf	(Beep@frequency+1)^0,c
  9469  0046E0  0EB7               	movlw	183
  9470  0046E2  6E3B               	movwf	Beep@frequency^0,c
  9471  0046E4  0E00               	movlw	0
  9472  0046E6  6E3E               	movwf	(Beep@duration+1)^0,c
  9473  0046E8  0E4D               	movlw	77
  9474  0046EA  6E3D               	movwf	Beep@duration^0,c
  9475  0046EC  EC33  F034         	call	_Beep	;wreg free
  9476                           
  9477                           ;main.c: 1061:  sleep(80);
  9478  0046F0  0E00               	movlw	0
  9479  0046F2  6E03               	movwf	(sleep@ms+1)^0,c
  9480  0046F4  0E50               	movlw	80
  9481  0046F6  6E02               	movwf	sleep@ms^0,c
  9482  0046F8  EC79  F037         	call	_sleep	;wreg free
  9483                           
  9484                           ;main.c: 1062:  Beep(1661, 77);
  9485  0046FC  0E08               	movlw	8
  9486  0046FE  6E3C               	movwf	(Beep@frequency+1)^0,c
  9487  004700  0EA9               	movlw	169
  9488  004702  6E3B               	movwf	Beep@frequency^0,c
  9489  004704  0E00               	movlw	0
  9490  004706  6E3E               	movwf	(Beep@duration+1)^0,c
  9491  004708  0E4D               	movlw	77
  9492  00470A  6E3D               	movwf	Beep@duration^0,c
  9493  00470C  EC33  F034         	call	_Beep	;wreg free
  9494                           
  9495                           ;main.c: 1063:  sleep(80);
  9496  004710  0E00               	movlw	0
  9497  004712  6E03               	movwf	(sleep@ms+1)^0,c
  9498  004714  0E50               	movlw	80
  9499  004716  6E02               	movwf	sleep@ms^0,c
  9500  004718  EC79  F037         	call	_sleep	;wreg free
  9501                           
  9502                           ;main.c: 1064:  Beep(1864, 77);
  9503  00471C  0E07               	movlw	7
  9504  00471E  6E3C               	movwf	(Beep@frequency+1)^0,c
  9505  004720  0E48               	movlw	72
  9506  004722  6E3B               	movwf	Beep@frequency^0,c
  9507  004724  0E00               	movlw	0
  9508  004726  6E3E               	movwf	(Beep@duration+1)^0,c
  9509  004728  0E4D               	movlw	77
  9510  00472A  6E3D               	movwf	Beep@duration^0,c
  9511  00472C  EC33  F034         	call	_Beep	;wreg free
  9512                           
  9513                           ;main.c: 1065:  sleep(80);
  9514  004730  0E00               	movlw	0
  9515  004732  6E03               	movwf	(sleep@ms+1)^0,c
  9516  004734  0E50               	movlw	80
  9517  004736  6E02               	movwf	sleep@ms^0,c
  9518  004738  EC79  F037         	call	_sleep	;wreg free
  9519                           
  9520                           ;main.c: 1066:  Beep(1975, 77);
  9521  00473C  0E08               	movlw	8
  9522  00473E  6E3C               	movwf	(Beep@frequency+1)^0,c
  9523  004740  0EA9               	movlw	169
  9524  004742  6E3B               	movwf	Beep@frequency^0,c
  9525  004744  0E00               	movlw	0
  9526  004746  6E3E               	movwf	(Beep@duration+1)^0,c
  9527  004748  0E9A               	movlw	154
  9528  00474A  6E3D               	movwf	Beep@duration^0,c
  9529  00474C  EC33  F034         	call	_Beep	;wreg free
  9530                           
  9531                           ;main.c: 1067:  sleep(79);
  9532  004750  0E00               	movlw	0
  9533  004752  6E03               	movwf	(sleep@ms+1)^0,c
  9534  004754  0E02               	movlw	2
  9535  004756  6E02               	movwf	sleep@ms^0,c
  9536  004758  EC79  F037         	call	_sleep	;wreg free
  9537                           
  9538                           ;main.c: 1068:  Beep(2217, 77);
  9539  00475C  0E00               	movlw	0
  9540  00475E  6E3C               	movwf	(Beep@frequency+1)^0,c
  9541  004760  0E8A               	movlw	138
  9542  004762  6E3B               	movwf	Beep@frequency^0,c
  9543  004764  0E00               	movlw	0
  9544  004766  6E3E               	movwf	(Beep@duration+1)^0,c
  9545  004768  0E4D               	movlw	77
  9546  00476A  6E3D               	movwf	Beep@duration^0,c
  9547  00476C  EC33  F034         	call	_Beep	;wreg free
  9548                           
  9549                           ;main.c: 1069:  sleep(80);
  9550  004770  0E00               	movlw	0
  9551  004772  6E03               	movwf	(sleep@ms+1)^0,c
  9552  004774  0E50               	movlw	80
  9553  004776  6E02               	movwf	sleep@ms^0,c
  9554  004778  EC79  F037         	call	_sleep	;wreg free
  9555                           
  9556                           ;main.c: 1070:  Beep(1864, 77);
  9557  00477C  0E09               	movlw	9
  9558  00477E  6E3C               	movwf	(Beep@frequency+1)^0,c
  9559  004780  0E2D               	movlw	45
  9560  004782  6E3B               	movwf	Beep@frequency^0,c
  9561  004784  0E00               	movlw	0
  9562  004786  6E3E               	movwf	(Beep@duration+1)^0,c
  9563  004788  0E4D               	movlw	77
  9564  00478A  6E3D               	movwf	Beep@duration^0,c
  9565  00478C  EC33  F034         	call	_Beep	;wreg free
  9566                           
  9567                           ;main.c: 1071:  sleep(79);
  9568  004790  0E00               	movlw	0
  9569  004792  6E03               	movwf	(sleep@ms+1)^0,c
  9570  004794  0E50               	movlw	80
  9571  004796  6E02               	movwf	sleep@ms^0,c
  9572  004798  EC79  F037         	call	_sleep	;wreg free
  9573                           
  9574                           ;main.c: 1072:  Beep(2217, 154);
  9575  00479C  0E07               	movlw	7
  9576  00479E  6E3C               	movwf	(Beep@frequency+1)^0,c
  9577  0047A0  0E48               	movlw	72
  9578  0047A2  6E3B               	movwf	Beep@frequency^0,c
  9579  0047A4  0E00               	movlw	0
  9580  0047A6  6E3E               	movwf	(Beep@duration+1)^0,c
  9581  0047A8  0E4D               	movlw	77
  9582  0047AA  6E3D               	movwf	Beep@duration^0,c
  9583  0047AC  EC33  F034         	call	_Beep	;wreg free
  9584                           
  9585                           ;main.c: 1073:  sleep(2);
  9586  0047B0  0E00               	movlw	0
  9587  0047B2  6E03               	movwf	(sleep@ms+1)^0,c
  9588  0047B4  0E50               	movlw	80
  9589  0047B6  6E02               	movwf	sleep@ms^0,c
  9590  0047B8  EC79  F037         	call	_sleep	;wreg free
  9591                           
  9592                           ;main.c: 1074:  Beep(138, 77);
  9593  0047BC  0E09               	movlw	9
  9594  0047BE  6E3C               	movwf	(Beep@frequency+1)^0,c
  9595  0047C0  0E2D               	movlw	45
  9596  0047C2  6E3B               	movwf	Beep@frequency^0,c
  9597  0047C4  0E00               	movlw	0
  9598  0047C6  6E3E               	movwf	(Beep@duration+1)^0,c
  9599  0047C8  0E9A               	movlw	154
  9600  0047CA  6E3D               	movwf	Beep@duration^0,c
  9601  0047CC  EC33  F034         	call	_Beep	;wreg free
  9602                           
  9603                           ;main.c: 1075:  sleep(79);
  9604  0047D0  0E00               	movlw	0
  9605  0047D2  6E03               	movwf	(sleep@ms+1)^0,c
  9606  0047D4  0E02               	movlw	2
  9607  0047D6  6E02               	movwf	sleep@ms^0,c
  9608  0047D8  EC79  F037         	call	_sleep	;wreg free
  9609                           
  9610                           ;main.c: 1076:  Beep(2489, 77);
  9611  0047DC  0E00               	movlw	0
  9612  0047DE  6E3C               	movwf	(Beep@frequency+1)^0,c
  9613  0047E0  0EA4               	movlw	164
  9614  0047E2  6E3B               	movwf	Beep@frequency^0,c
  9615  0047E4  0E00               	movlw	0
  9616  0047E6  6E3E               	movwf	(Beep@duration+1)^0,c
  9617  0047E8  0E4D               	movlw	77
  9618  0047EA  6E3D               	movwf	Beep@duration^0,c
  9619  0047EC  EC33  F034         	call	_Beep	;wreg free
  9620                           
  9621                           ;main.c: 1077:  sleep(79);
  9622  0047F0  0E00               	movlw	0
  9623  0047F2  6E03               	movwf	(sleep@ms+1)^0,c
  9624  0047F4  0E50               	movlw	80
  9625  0047F6  6E02               	movwf	sleep@ms^0,c
  9626  0047F8  EC79  F037         	call	_sleep	;wreg free
  9627                           
  9628                           ;main.c: 1078:  Beep(1864, 77);
  9629  0047FC  0E08               	movlw	8
  9630  0047FE  6E3C               	movwf	(Beep@frequency+1)^0,c
  9631  004800  0EA9               	movlw	169
  9632  004802  6E3B               	movwf	Beep@frequency^0,c
  9633  004804  0E01               	movlw	1
  9634  004806  6E3E               	movwf	(Beep@duration+1)^0,c
  9635  004808  0E34               	movlw	52
  9636  00480A  6E3D               	movwf	Beep@duration^0,c
  9637  00480C  EC33  F034         	call	_Beep	;wreg free
  9638                           
  9639                           ;main.c: 1079:  sleep(80);
  9640  004810  0E00               	movlw	0
  9641  004812  6E03               	movwf	(sleep@ms+1)^0,c
  9642  004814  0E06               	movlw	6
  9643  004816  6E02               	movwf	sleep@ms^0,c
  9644  004818  EC79  F037         	call	_sleep	;wreg free
  9645                           
  9646                           ;main.c: 1080:  Beep(2489, 154);
  9647  00481C  0E00               	movlw	0
  9648  00481E  6E3C               	movwf	(Beep@frequency+1)^0,c
  9649  004820  0E92               	movlw	146
  9650  004822  6E3B               	movwf	Beep@frequency^0,c
  9651  004824  0E00               	movlw	0
  9652  004826  6E3E               	movwf	(Beep@duration+1)^0,c
  9653  004828  0E4D               	movlw	77
  9654  00482A  6E3D               	movwf	Beep@duration^0,c
  9655  00482C  EC33  F034         	call	_Beep	;wreg free
  9656                           
  9657                           ;main.c: 1081:  sleep(2);
  9658  004830  0E00               	movlw	0
  9659  004832  6E03               	movwf	(sleep@ms+1)^0,c
  9660  004834  0E50               	movlw	80
  9661  004836  6E02               	movwf	sleep@ms^0,c
  9662  004838  EC79  F037         	call	_sleep	;wreg free
  9663                           
  9664                           ;main.c: 1082:  Beep(174, 77);
  9665  00483C  0E00               	movlw	0
  9666  00483E  6E3C               	movwf	(Beep@frequency+1)^0,c
  9667  004840  0E8A               	movlw	138
  9668  004842  6E3B               	movwf	Beep@frequency^0,c
  9669  004844  0E00               	movlw	0
  9670  004846  6E3E               	movwf	(Beep@duration+1)^0,c
  9671  004848  0E4D               	movlw	77
  9672  00484A  6E3D               	movwf	Beep@duration^0,c
  9673  00484C  EC33  F034         	call	_Beep	;wreg free
  9674                           
  9675                           ;main.c: 1083:  sleep(80);
  9676  004850  0E00               	movlw	0
  9677  004852  6E03               	movwf	(sleep@ms+1)^0,c
  9678  004854  0E4F               	movlw	79
  9679  004856  6E02               	movwf	sleep@ms^0,c
  9680  004858  EC79  F037         	call	_sleep	;wreg free
  9681                           
  9682                           ;main.c: 1084:  Beep(2217, 77);
  9683  00485C  0E05               	movlw	5
  9684  00485E  6E3C               	movwf	(Beep@frequency+1)^0,c
  9685  004860  0EC7               	movlw	199
  9686  004862  6E3B               	movwf	Beep@frequency^0,c
  9687  004864  0E00               	movlw	0
  9688  004866  6E3E               	movwf	(Beep@duration+1)^0,c
  9689  004868  0E4D               	movlw	77
  9690  00486A  6E3D               	movwf	Beep@duration^0,c
  9691  00486C  EC33  F034         	call	_Beep	;wreg free
  9692                           
  9693                           ;main.c: 1085:  sleep(79);
  9694  004870  0E00               	movlw	0
  9695  004872  6E03               	movwf	(sleep@ms+1)^0,c
  9696  004874  0E50               	movlw	80
  9697  004876  6E02               	movwf	sleep@ms^0,c
  9698  004878  EC79  F037         	call	_sleep	;wreg free
  9699                           
  9700                           ;main.c: 1086:  Beep(1864, 77);
  9701  00487C  0E06               	movlw	6
  9702  00487E  6E3C               	movwf	(Beep@frequency+1)^0,c
  9703  004880  0E7D               	movlw	125
  9704  004882  6E3B               	movwf	Beep@frequency^0,c
  9705  004884  0E00               	movlw	0
  9706  004886  6E3E               	movwf	(Beep@duration+1)^0,c
  9707  004888  0E4D               	movlw	77
  9708  00488A  6E3D               	movwf	Beep@duration^0,c
  9709  00488C  EC33  F034         	call	_Beep	;wreg free
  9710                           
  9711                           ;main.c: 1087:  sleep(80);
  9712  004890  0E00               	movlw	0
  9713  004892  6E03               	movwf	(sleep@ms+1)^0,c
  9714  004894  0E50               	movlw	80
  9715  004896  6E02               	movwf	sleep@ms^0,c
  9716  004898  EC79  F037         	call	_sleep	;wreg free
  9717                           
  9718                           ;main.c: 1088:  Beep(2217, 154);
  9719  00489C  0E07               	movlw	7
  9720  00489E  6E3C               	movwf	(Beep@frequency+1)^0,c
  9721  0048A0  0E48               	movlw	72
  9722  0048A2  6E3B               	movwf	Beep@frequency^0,c
  9723  0048A4  0E00               	movlw	0
  9724  0048A6  6E3E               	movwf	(Beep@duration+1)^0,c
  9725  0048A8  0E4D               	movlw	77
  9726  0048AA  6E3D               	movwf	Beep@duration^0,c
  9727  0048AC  EC33  F034         	call	_Beep	;wreg free
  9728                           
  9729                           ;main.c: 1089:  sleep(2);
  9730  0048B0  0E00               	movlw	0
  9731  0048B2  6E03               	movwf	(sleep@ms+1)^0,c
  9732  0048B4  0E50               	movlw	80
  9733  0048B6  6E02               	movwf	sleep@ms^0,c
  9734  0048B8  EC79  F037         	call	_sleep	;wreg free
  9735                           
  9736                           ;main.c: 1090:  Beep(138, 77);
  9737  0048BC  0E07               	movlw	7
  9738  0048BE  6E3C               	movwf	(Beep@frequency+1)^0,c
  9739  0048C0  0EB7               	movlw	183
  9740  0048C2  6E3B               	movwf	Beep@frequency^0,c
  9741  0048C4  0E00               	movlw	0
  9742  0048C6  6E3E               	movwf	(Beep@duration+1)^0,c
  9743  0048C8  0E4D               	movlw	77
  9744  0048CA  6E3D               	movwf	Beep@duration^0,c
  9745  0048CC  EC33  F034         	call	_Beep	;wreg free
  9746                           
  9747                           ;main.c: 1091:  sleep(79);
  9748  0048D0  0E00               	movlw	0
  9749  0048D2  6E03               	movwf	(sleep@ms+1)^0,c
  9750  0048D4  0E4F               	movlw	79
  9751  0048D6  6E02               	movwf	sleep@ms^0,c
  9752  0048D8  EC79  F037         	call	_sleep	;wreg free
  9753                           
  9754                           ;main.c: 1092:  Beep(1479, 77);
  9755  0048DC  0E08               	movlw	8
  9756  0048DE  6E3C               	movwf	(Beep@frequency+1)^0,c
  9757  0048E0  0EA9               	movlw	169
  9758  0048E2  6E3B               	movwf	Beep@frequency^0,c
  9759  0048E4  0E00               	movlw	0
  9760  0048E6  6E3E               	movwf	(Beep@duration+1)^0,c
  9761  0048E8  0E4D               	movlw	77
  9762  0048EA  6E3D               	movwf	Beep@duration^0,c
  9763  0048EC  EC33  F034         	call	_Beep	;wreg free
  9764                           
  9765                           ;main.c: 1093:  sleep(79);
  9766  0048F0  0E00               	movlw	0
  9767  0048F2  6E03               	movwf	(sleep@ms+1)^0,c
  9768  0048F4  0E50               	movlw	80
  9769  0048F6  6E02               	movwf	sleep@ms^0,c
  9770  0048F8  EC79  F037         	call	_sleep	;wreg free
  9771                           
  9772                           ;main.c: 1094:  Beep(1661, 77);
  9773  0048FC  0E07               	movlw	7
  9774  0048FE  6E3C               	movwf	(Beep@frequency+1)^0,c
  9775  004900  0E48               	movlw	72
  9776  004902  6E3B               	movwf	Beep@frequency^0,c
  9777  004904  0E00               	movlw	0
  9778  004906  6E3E               	movwf	(Beep@duration+1)^0,c
  9779  004908  0E4D               	movlw	77
  9780  00490A  6E3D               	movwf	Beep@duration^0,c
  9781  00490C  EC33  F034         	call	_Beep	;wreg free
  9782                           
  9783                           ;main.c: 1095:  sleep(80);
  9784  004910  0E00               	movlw	0
  9785  004912  6E03               	movwf	(sleep@ms+1)^0,c
  9786  004914  0E4F               	movlw	79
  9787  004916  6E02               	movwf	sleep@ms^0,c
  9788  004918  EC79  F037         	call	_sleep	;wreg free
  9789                           
  9790                           ;main.c: 1096:  Beep(1864, 77);
  9791  00491C  0E08               	movlw	8
  9792  00491E  6E3C               	movwf	(Beep@frequency+1)^0,c
  9793  004920  0EA9               	movlw	169
  9794  004922  6E3B               	movwf	Beep@frequency^0,c
  9795  004924  0E00               	movlw	0
  9796  004926  6E3E               	movwf	(Beep@duration+1)^0,c
  9797  004928  0E9A               	movlw	154
  9798  00492A  6E3D               	movwf	Beep@duration^0,c
  9799  00492C  EC33  F034         	call	_Beep	;wreg free
  9800                           
  9801                           ;main.c: 1097:  sleep(80);
  9802  004930  0E00               	movlw	0
  9803  004932  6E03               	movwf	(sleep@ms+1)^0,c
  9804  004934  0E02               	movlw	2
  9805  004936  6E02               	movwf	sleep@ms^0,c
  9806  004938  EC79  F037         	call	_sleep	;wreg free
  9807                           
  9808                           ;main.c: 1098:  Beep(1975, 77);
  9809  00493C  0E00               	movlw	0
  9810  00493E  6E3C               	movwf	(Beep@frequency+1)^0,c
  9811  004940  0E8A               	movlw	138
  9812  004942  6E3B               	movwf	Beep@frequency^0,c
  9813  004944  0E00               	movlw	0
  9814  004946  6E3E               	movwf	(Beep@duration+1)^0,c
  9815  004948  0E4D               	movlw	77
  9816  00494A  6E3D               	movwf	Beep@duration^0,c
  9817  00494C  EC33  F034         	call	_Beep	;wreg free
  9818                           
  9819                           ;main.c: 1099:  sleep(80);
  9820  004950  0E00               	movlw	0
  9821  004952  6E03               	movwf	(sleep@ms+1)^0,c
  9822  004954  0E4F               	movlw	79
  9823  004956  6E02               	movwf	sleep@ms^0,c
  9824  004958  EC79  F037         	call	_sleep	;wreg free
  9825                           
  9826                           ;main.c: 1100:  Beep(2217, 77);
  9827  00495C  0E09               	movlw	9
  9828  00495E  6E3C               	movwf	(Beep@frequency+1)^0,c
  9829  004960  0EB9               	movlw	185
  9830  004962  6E3B               	movwf	Beep@frequency^0,c
  9831  004964  0E00               	movlw	0
  9832  004966  6E3E               	movwf	(Beep@duration+1)^0,c
  9833  004968  0E4D               	movlw	77
  9834  00496A  6E3D               	movwf	Beep@duration^0,c
  9835  00496C  EC33  F034         	call	_Beep	;wreg free
  9836                           
  9837                           ;main.c: 1101:  sleep(80);
  9838  004970  0E00               	movlw	0
  9839  004972  6E03               	movwf	(sleep@ms+1)^0,c
  9840  004974  0E4F               	movlw	79
  9841  004976  6E02               	movwf	sleep@ms^0,c
  9842  004978  EC79  F037         	call	_sleep	;wreg free
  9843                           
  9844                           ;main.c: 1102:  Beep(1864, 77);
  9845  00497C  0E07               	movlw	7
  9846  00497E  6E3C               	movwf	(Beep@frequency+1)^0,c
  9847  004980  0E48               	movlw	72
  9848  004982  6E3B               	movwf	Beep@frequency^0,c
  9849  004984  0E00               	movlw	0
  9850  004986  6E3E               	movwf	(Beep@duration+1)^0,c
  9851  004988  0E4D               	movlw	77
  9852  00498A  6E3D               	movwf	Beep@duration^0,c
  9853  00498C  EC33  F034         	call	_Beep	;wreg free
  9854                           
  9855                           ;main.c: 1103:  sleep(80);
  9856  004990  0E00               	movlw	0
  9857  004992  6E03               	movwf	(sleep@ms+1)^0,c
  9858  004994  0E50               	movlw	80
  9859  004996  6E02               	movwf	sleep@ms^0,c
  9860  004998  EC79  F037         	call	_sleep	;wreg free
  9861                           
  9862                           ;main.c: 1104:  Beep(2217, 154);
  9863  00499C  0E09               	movlw	9
  9864  00499E  6E3C               	movwf	(Beep@frequency+1)^0,c
  9865  0049A0  0EB9               	movlw	185
  9866  0049A2  6E3B               	movwf	Beep@frequency^0,c
  9867  0049A4  0E00               	movlw	0
  9868  0049A6  6E3E               	movwf	(Beep@duration+1)^0,c
  9869  0049A8  0E9A               	movlw	154
  9870  0049AA  6E3D               	movwf	Beep@duration^0,c
  9871  0049AC  EC33  F034         	call	_Beep	;wreg free
  9872                           
  9873                           ;main.c: 1105:  sleep(2);
  9874  0049B0  0E00               	movlw	0
  9875  0049B2  6E03               	movwf	(sleep@ms+1)^0,c
  9876  0049B4  0E02               	movlw	2
  9877  0049B6  6E02               	movwf	sleep@ms^0,c
  9878  0049B8  EC79  F037         	call	_sleep	;wreg free
  9879                           
  9880                           ;main.c: 1106:  Beep(138, 77);
  9881  0049BC  0E00               	movlw	0
  9882  0049BE  6E3C               	movwf	(Beep@frequency+1)^0,c
  9883  0049C0  0EAE               	movlw	174
  9884  0049C2  6E3B               	movwf	Beep@frequency^0,c
  9885  0049C4  0E00               	movlw	0
  9886  0049C6  6E3E               	movwf	(Beep@duration+1)^0,c
  9887  0049C8  0E4D               	movlw	77
  9888  0049CA  6E3D               	movwf	Beep@duration^0,c
  9889  0049CC  EC33  F034         	call	_Beep	;wreg free
  9890                           
  9891                           ;main.c: 1107:  sleep(80);
  9892  0049D0  0E00               	movlw	0
  9893  0049D2  6E03               	movwf	(sleep@ms+1)^0,c
  9894  0049D4  0E50               	movlw	80
  9895  0049D6  6E02               	movwf	sleep@ms^0,c
  9896  0049D8  EC79  F037         	call	_sleep	;wreg free
  9897                           
  9898                           ;main.c: 1108:  Beep(2489, 77);
  9899  0049DC  0E08               	movlw	8
  9900  0049DE  6E3C               	movwf	(Beep@frequency+1)^0,c
  9901  0049E0  0EA9               	movlw	169
  9902  0049E2  6E3B               	movwf	Beep@frequency^0,c
  9903  0049E4  0E00               	movlw	0
  9904  0049E6  6E3E               	movwf	(Beep@duration+1)^0,c
  9905  0049E8  0E4D               	movlw	77
  9906  0049EA  6E3D               	movwf	Beep@duration^0,c
  9907  0049EC  EC33  F034         	call	_Beep	;wreg free
  9908                           
  9909                           ;main.c: 1109:  sleep(80);
  9910  0049F0  0E00               	movlw	0
  9911  0049F2  6E03               	movwf	(sleep@ms+1)^0,c
  9912  0049F4  0E4F               	movlw	79
  9913  0049F6  6E02               	movwf	sleep@ms^0,c
  9914  0049F8  EC79  F037         	call	_sleep	;wreg free
  9915                           
  9916                           ;main.c: 1110:  Beep(1864, 77);
  9917  0049FC  0E07               	movlw	7
  9918  0049FE  6E3C               	movwf	(Beep@frequency+1)^0,c
  9919  004A00  0E48               	movlw	72
  9920  004A02  6E3B               	movwf	Beep@frequency^0,c
  9921  004A04  0E00               	movlw	0
  9922  004A06  6E3E               	movwf	(Beep@duration+1)^0,c
  9923  004A08  0E4D               	movlw	77
  9924  004A0A  6E3D               	movwf	Beep@duration^0,c
  9925  004A0C  EC33  F034         	call	_Beep	;wreg free
  9926                           
  9927                           ;main.c: 1111:  sleep(80);
  9928  004A10  0E00               	movlw	0
  9929  004A12  6E03               	movwf	(sleep@ms+1)^0,c
  9930  004A14  0E50               	movlw	80
  9931  004A16  6E02               	movwf	sleep@ms^0,c
  9932  004A18  EC79  F037         	call	_sleep	;wreg free
  9933                           
  9934                           ;main.c: 1112:  Beep(2489, 154);
  9935  004A1C  0E08               	movlw	8
  9936  004A1E  6E3C               	movwf	(Beep@frequency+1)^0,c
  9937  004A20  0EA9               	movlw	169
  9938  004A22  6E3B               	movwf	Beep@frequency^0,c
  9939  004A24  0E00               	movlw	0
  9940  004A26  6E3E               	movwf	(Beep@duration+1)^0,c
  9941  004A28  0E9A               	movlw	154
  9942  004A2A  6E3D               	movwf	Beep@duration^0,c
  9943  004A2C  EC33  F034         	call	_Beep	;wreg free
  9944                           
  9945                           ;main.c: 1113:  sleep(2);
  9946  004A30  0E00               	movlw	0
  9947  004A32  6E03               	movwf	(sleep@ms+1)^0,c
  9948  004A34  0E02               	movlw	2
  9949  004A36  6E02               	movwf	sleep@ms^0,c
  9950  004A38  EC79  F037         	call	_sleep	;wreg free
  9951                           
  9952                           ;main.c: 1114:  Beep(174, 77);
  9953  004A3C  0E00               	movlw	0
  9954  004A3E  6E3C               	movwf	(Beep@frequency+1)^0,c
  9955  004A40  0E8A               	movlw	138
  9956  004A42  6E3B               	movwf	Beep@frequency^0,c
  9957  004A44  0E00               	movlw	0
  9958  004A46  6E3E               	movwf	(Beep@duration+1)^0,c
  9959  004A48  0E4D               	movlw	77
  9960  004A4A  6E3D               	movwf	Beep@duration^0,c
  9961  004A4C  EC33  F034         	call	_Beep	;wreg free
  9962                           
  9963                           ;main.c: 1115:  sleep(80);
  9964  004A50  0E00               	movlw	0
  9965  004A52  6E03               	movwf	(sleep@ms+1)^0,c
  9966  004A54  0E4F               	movlw	79
  9967  004A56  6E02               	movwf	sleep@ms^0,c
  9968  004A58  EC79  F037         	call	_sleep	;wreg free
  9969                           
  9970                           ;main.c: 1116:  Beep(2217, 308);
  9971  004A5C  0E05               	movlw	5
  9972  004A5E  6E3C               	movwf	(Beep@frequency+1)^0,c
  9973  004A60  0EC7               	movlw	199
  9974  004A62  6E3B               	movwf	Beep@frequency^0,c
  9975  004A64  0E00               	movlw	0
  9976  004A66  6E3E               	movwf	(Beep@duration+1)^0,c
  9977  004A68  0E4D               	movlw	77
  9978  004A6A  6E3D               	movwf	Beep@duration^0,c
  9979  004A6C  EC33  F034         	call	_Beep	;wreg free
  9980                           
  9981                           ;main.c: 1117:  sleep(6);
  9982  004A70  0E00               	movlw	0
  9983  004A72  6E03               	movwf	(sleep@ms+1)^0,c
  9984  004A74  0E4F               	movlw	79
  9985  004A76  6E02               	movwf	sleep@ms^0,c
  9986  004A78  EC79  F037         	call	_sleep	;wreg free
  9987                           
  9988                           ;main.c: 1118:  Beep(155, 77);
  9989  004A7C  0E06               	movlw	6
  9990  004A7E  6E3C               	movwf	(Beep@frequency+1)^0,c
  9991  004A80  0E7D               	movlw	125
  9992  004A82  6E3B               	movwf	Beep@frequency^0,c
  9993  004A84  0E00               	movlw	0
  9994  004A86  6E3E               	movwf	(Beep@duration+1)^0,c
  9995  004A88  0E4D               	movlw	77
  9996  004A8A  6E3D               	movwf	Beep@duration^0,c
  9997  004A8C  EC33  F034         	call	_Beep	;wreg free
  9998                           
  9999                           ;main.c: 1119:  sleep(80);
 10000  004A90  0E00               	movlw	0
 10001  004A92  6E03               	movwf	(sleep@ms+1)^0,c
 10002  004A94  0E50               	movlw	80
 10003  004A96  6E02               	movwf	sleep@ms^0,c
 10004  004A98  EC79  F037         	call	_sleep	;wreg free
 10005                           
 10006                           ;main.c: 1120:  Beep(138, 77);
 10007  004A9C  0E07               	movlw	7
 10008  004A9E  6E3C               	movwf	(Beep@frequency+1)^0,c
 10009  004AA0  0E48               	movlw	72
 10010  004AA2  6E3B               	movwf	Beep@frequency^0,c
 10011  004AA4  0E00               	movlw	0
 10012  004AA6  6E3E               	movwf	(Beep@duration+1)^0,c
 10013  004AA8  0E4D               	movlw	77
 10014  004AAA  6E3D               	movwf	Beep@duration^0,c
 10015  004AAC  EC33  F034         	call	_Beep	;wreg free
 10016                           
 10017                           ;main.c: 1121:  sleep(79);
 10018  004AB0  0E00               	movlw	0
 10019  004AB2  6E03               	movwf	(sleep@ms+1)^0,c
 10020  004AB4  0E50               	movlw	80
 10021  004AB6  6E02               	movwf	sleep@ms^0,c
 10022  004AB8  EC79  F037         	call	_sleep	;wreg free
 10023                           
 10024                           ;main.c: 1122:  Beep(987, 73);
 10025  004ABC  0E07               	movlw	7
 10026  004ABE  6E3C               	movwf	(Beep@frequency+1)^0,c
 10027  004AC0  0EB7               	movlw	183
 10028  004AC2  6E3B               	movwf	Beep@frequency^0,c
 10029  004AC4  0E00               	movlw	0
 10030  004AC6  6E3E               	movwf	(Beep@duration+1)^0,c
 10031  004AC8  0E4D               	movlw	77
 10032  004ACA  6E3D               	movwf	Beep@duration^0,c
 10033  004ACC  EC33  F034         	call	_Beep	;wreg free
 10034                           
 10035                           ;main.c: 1123:  sleep(76);
 10036  004AD0  0E00               	movlw	0
 10037  004AD2  6E03               	movwf	(sleep@ms+1)^0,c
 10038  004AD4  0E50               	movlw	80
 10039  004AD6  6E02               	movwf	sleep@ms^0,c
 10040  004AD8  EC79  F037         	call	_sleep	;wreg free
 10041                           
 10042                           ;main.c: 1124:  Beep(1108, 73);
 10043  004ADC  0E08               	movlw	8
 10044  004ADE  6E3C               	movwf	(Beep@frequency+1)^0,c
 10045  004AE0  0EA9               	movlw	169
 10046  004AE2  6E3B               	movwf	Beep@frequency^0,c
 10047  004AE4  0E00               	movlw	0
 10048  004AE6  6E3E               	movwf	(Beep@duration+1)^0,c
 10049  004AE8  0E4D               	movlw	77
 10050  004AEA  6E3D               	movwf	Beep@duration^0,c
 10051  004AEC  EC33  F034         	call	_Beep	;wreg free
 10052                           
 10053                           ;main.c: 1125:  sleep(76);
 10054  004AF0  0E00               	movlw	0
 10055  004AF2  6E03               	movwf	(sleep@ms+1)^0,c
 10056  004AF4  0E50               	movlw	80
 10057  004AF6  6E02               	movwf	sleep@ms^0,c
 10058  004AF8  EC79  F037         	call	_sleep	;wreg free
 10059                           
 10060                           ;main.c: 1126:  Beep(1174, 73);
 10061  004AFC  0E07               	movlw	7
 10062  004AFE  6E3C               	movwf	(Beep@frequency+1)^0,c
 10063  004B00  0E48               	movlw	72
 10064  004B02  6E3B               	movwf	Beep@frequency^0,c
 10065  004B04  0E00               	movlw	0
 10066  004B06  6E3E               	movwf	(Beep@duration+1)^0,c
 10067  004B08  0E4D               	movlw	77
 10068  004B0A  6E3D               	movwf	Beep@duration^0,c
 10069  004B0C  EC33  F034         	call	_Beep	;wreg free
 10070                           
 10071                           ;main.c: 1127:  sleep(76);
 10072  004B10  0E00               	movlw	0
 10073  004B12  6E03               	movwf	(sleep@ms+1)^0,c
 10074  004B14  0E50               	movlw	80
 10075  004B16  6E02               	movwf	sleep@ms^0,c
 10076  004B18  EC79  F037         	call	_sleep	;wreg free
 10077                           
 10078                           ;main.c: 1128:  Beep(1318, 73);
 10079  004B1C  0E08               	movlw	8
 10080  004B1E  6E3C               	movwf	(Beep@frequency+1)^0,c
 10081  004B20  0EA9               	movlw	169
 10082  004B22  6E3B               	movwf	Beep@frequency^0,c
 10083  004B24  0E00               	movlw	0
 10084  004B26  6E3E               	movwf	(Beep@duration+1)^0,c
 10085  004B28  0E9A               	movlw	154
 10086  004B2A  6E3D               	movwf	Beep@duration^0,c
 10087  004B2C  EC33  F034         	call	_Beep	;wreg free
 10088                           
 10089                           ;main.c: 1129:  sleep(75);
 10090  004B30  0E00               	movlw	0
 10091  004B32  6E03               	movwf	(sleep@ms+1)^0,c
 10092  004B34  0E02               	movlw	2
 10093  004B36  6E02               	movwf	sleep@ms^0,c
 10094  004B38  EC79  F037         	call	_sleep	;wreg free
 10095                           
 10096                           ;main.c: 1130:  Beep(1479, 73);
 10097  004B3C  0E00               	movlw	0
 10098  004B3E  6E3C               	movwf	(Beep@frequency+1)^0,c
 10099  004B40  0E8A               	movlw	138
 10100  004B42  6E3B               	movwf	Beep@frequency^0,c
 10101  004B44  0E00               	movlw	0
 10102  004B46  6E3E               	movwf	(Beep@duration+1)^0,c
 10103  004B48  0E4D               	movlw	77
 10104  004B4A  6E3D               	movwf	Beep@duration^0,c
 10105  004B4C  EC33  F034         	call	_Beep	;wreg free
 10106                           
 10107                           ;main.c: 1131:  sleep(76);
 10108  004B50  0E00               	movlw	0
 10109  004B52  6E03               	movwf	(sleep@ms+1)^0,c
 10110  004B54  0E50               	movlw	80
 10111  004B56  6E02               	movwf	sleep@ms^0,c
 10112  004B58  EC79  F037         	call	_sleep	;wreg free
 10113                           
 10114                           ;main.c: 1132:  Beep(1174, 73);
 10115  004B5C  0E09               	movlw	9
 10116  004B5E  6E3C               	movwf	(Beep@frequency+1)^0,c
 10117  004B60  0EB9               	movlw	185
 10118  004B62  6E3B               	movwf	Beep@frequency^0,c
 10119  004B64  0E00               	movlw	0
 10120  004B66  6E3E               	movwf	(Beep@duration+1)^0,c
 10121  004B68  0E4D               	movlw	77
 10122  004B6A  6E3D               	movwf	Beep@duration^0,c
 10123  004B6C  EC33  F034         	call	_Beep	;wreg free
 10124                           
 10125                           ;main.c: 1133:  sleep(76);
 10126  004B70  0E00               	movlw	0
 10127  004B72  6E03               	movwf	(sleep@ms+1)^0,c
 10128  004B74  0E50               	movlw	80
 10129  004B76  6E02               	movwf	sleep@ms^0,c
 10130  004B78  EC79  F037         	call	_sleep	;wreg free
 10131                           
 10132                           ;main.c: 1134:  Beep(1479, 146);
 10133  004B7C  0E07               	movlw	7
 10134  004B7E  6E3C               	movwf	(Beep@frequency+1)^0,c
 10135  004B80  0E48               	movlw	72
 10136  004B82  6E3B               	movwf	Beep@frequency^0,c
 10137  004B84  0E00               	movlw	0
 10138  004B86  6E3E               	movwf	(Beep@duration+1)^0,c
 10139  004B88  0E4D               	movlw	77
 10140  004B8A  6E3D               	movwf	Beep@duration^0,c
 10141  004B8C  EC33  F034         	call	_Beep	;wreg free
 10142                           
 10143                           ;main.c: 1135:  sleep(2);
 10144  004B90  0E00               	movlw	0
 10145  004B92  6E03               	movwf	(sleep@ms+1)^0,c
 10146  004B94  0E50               	movlw	80
 10147  004B96  6E02               	movwf	sleep@ms^0,c
 10148  004B98  EC79  F037         	call	_sleep	;wreg free
 10149                           
 10150                           ;main.c: 1136:  Beep(92, 73);
 10151  004B9C  0E09               	movlw	9
 10152  004B9E  6E3C               	movwf	(Beep@frequency+1)^0,c
 10153  004BA0  0EB9               	movlw	185
 10154  004BA2  6E3B               	movwf	Beep@frequency^0,c
 10155  004BA4  0E00               	movlw	0
 10156  004BA6  6E3E               	movwf	(Beep@duration+1)^0,c
 10157  004BA8  0E9A               	movlw	154
 10158  004BAA  6E3D               	movwf	Beep@duration^0,c
 10159  004BAC  EC33  F034         	call	_Beep	;wreg free
 10160                           
 10161                           ;main.c: 1137:  sleep(75);
 10162  004BB0  0E00               	movlw	0
 10163  004BB2  6E03               	movwf	(sleep@ms+1)^0,c
 10164  004BB4  0E02               	movlw	2
 10165  004BB6  6E02               	movwf	sleep@ms^0,c
 10166  004BB8  EC79  F037         	call	_sleep	;wreg free
 10167                           
 10168                           ;main.c: 1138:  Beep(1396, 73);
 10169  004BBC  0E00               	movlw	0
 10170  004BBE  6E3C               	movwf	(Beep@frequency+1)^0,c
 10171  004BC0  0EAE               	movlw	174
 10172  004BC2  6E3B               	movwf	Beep@frequency^0,c
 10173  004BC4  0E00               	movlw	0
 10174  004BC6  6E3E               	movwf	(Beep@duration+1)^0,c
 10175  004BC8  0E4D               	movlw	77
 10176  004BCA  6E3D               	movwf	Beep@duration^0,c
 10177  004BCC  EC33  F034         	call	_Beep	;wreg free
 10178                           
 10179                           ;main.c: 1139:  sleep(76);
 10180  004BD0  0E00               	movlw	0
 10181  004BD2  6E03               	movwf	(sleep@ms+1)^0,c
 10182  004BD4  0E50               	movlw	80
 10183  004BD6  6E02               	movwf	sleep@ms^0,c
 10184  004BD8  EC79  F037         	call	_sleep	;wreg free
 10185                           
 10186                           ;main.c: 1140:  Beep(1108, 73);
 10187  004BDC  0E08               	movlw	8
 10188  004BDE  6E3C               	movwf	(Beep@frequency+1)^0,c
 10189  004BE0  0EA9               	movlw	169
 10190  004BE2  6E3B               	movwf	Beep@frequency^0,c
 10191  004BE4  0E01               	movlw	1
 10192  004BE6  6E3E               	movwf	(Beep@duration+1)^0,c
 10193  004BE8  0E34               	movlw	52
 10194  004BEA  6E3D               	movwf	Beep@duration^0,c
 10195  004BEC  EC33  F034         	call	_Beep	;wreg free
 10196                           
 10197                           ;main.c: 1141:  sleep(76);
 10198  004BF0  0E00               	movlw	0
 10199  004BF2  6E03               	movwf	(sleep@ms+1)^0,c
 10200  004BF4  0E06               	movlw	6
 10201  004BF6  6E02               	movwf	sleep@ms^0,c
 10202  004BF8  EC79  F037         	call	_sleep	;wreg free
 10203                           
 10204                           ;main.c: 1142:  Beep(1396, 146);
 10205  004BFC  0E00               	movlw	0
 10206  004BFE  6E3C               	movwf	(Beep@frequency+1)^0,c
 10207  004C00  0E9B               	movlw	155
 10208  004C02  6E3B               	movwf	Beep@frequency^0,c
 10209  004C04  0E00               	movlw	0
 10210  004C06  6E3E               	movwf	(Beep@duration+1)^0,c
 10211  004C08  0E4D               	movlw	77
 10212  004C0A  6E3D               	movwf	Beep@duration^0,c
 10213  004C0C  EC33  F034         	call	_Beep	;wreg free
 10214                           
 10215                           ;main.c: 1143:  sleep(2);
 10216  004C10  0E00               	movlw	0
 10217  004C12  6E03               	movwf	(sleep@ms+1)^0,c
 10218  004C14  0E50               	movlw	80
 10219  004C16  6E02               	movwf	sleep@ms^0,c
 10220  004C18  EC79  F037         	call	_sleep	;wreg free
 10221                           
 10222                           ;main.c: 1144:  Beep(92, 73);
 10223  004C1C  0E00               	movlw	0
 10224  004C1E  6E3C               	movwf	(Beep@frequency+1)^0,c
 10225  004C20  0E8A               	movlw	138
 10226  004C22  6E3B               	movwf	Beep@frequency^0,c
 10227  004C24  0E00               	movlw	0
 10228  004C26  6E3E               	movwf	(Beep@duration+1)^0,c
 10229  004C28  0E4D               	movlw	77
 10230  004C2A  6E3D               	movwf	Beep@duration^0,c
 10231  004C2C  EC33  F034         	call	_Beep	;wreg free
 10232                           
 10233                           ;main.c: 1145:  sleep(75);
 10234  004C30  0E00               	movlw	0
 10235  004C32  6E03               	movwf	(sleep@ms+1)^0,c
 10236  004C34  0E4F               	movlw	79
 10237  004C36  6E02               	movwf	sleep@ms^0,c
 10238  004C38  EC79  F037         	call	_sleep	;wreg free
 10239                           
 10240                           ;main.c: 1146:  Beep(1318, 73);
 10241  004C3C  0E03               	movlw	3
 10242  004C3E  6E3C               	movwf	(Beep@frequency+1)^0,c
 10243  004C40  0EDB               	movlw	219
 10244  004C42  6E3B               	movwf	Beep@frequency^0,c
 10245  004C44  0E00               	movlw	0
 10246  004C46  6E3E               	movwf	(Beep@duration+1)^0,c
 10247  004C48  0E49               	movlw	73
 10248  004C4A  6E3D               	movwf	Beep@duration^0,c
 10249  004C4C  EC33  F034         	call	_Beep	;wreg free
 10250                           
 10251                           ;main.c: 1147:  sleep(76);
 10252  004C50  0E00               	movlw	0
 10253  004C52  6E03               	movwf	(sleep@ms+1)^0,c
 10254  004C54  0E4C               	movlw	76
 10255  004C56  6E02               	movwf	sleep@ms^0,c
 10256  004C58  EC79  F037         	call	_sleep	;wreg free
 10257                           
 10258                           ;main.c: 1148:  Beep(1046, 73);
 10259  004C5C  0E04               	movlw	4
 10260  004C5E  6E3C               	movwf	(Beep@frequency+1)^0,c
 10261  004C60  0E54               	movlw	84
 10262  004C62  6E3B               	movwf	Beep@frequency^0,c
 10263  004C64  0E00               	movlw	0
 10264  004C66  6E3E               	movwf	(Beep@duration+1)^0,c
 10265  004C68  0E49               	movlw	73
 10266  004C6A  6E3D               	movwf	Beep@duration^0,c
 10267  004C6C  EC33  F034         	call	_Beep	;wreg free
 10268                           
 10269                           ;main.c: 1149:  sleep(76);
 10270  004C70  0E00               	movlw	0
 10271  004C72  6E03               	movwf	(sleep@ms+1)^0,c
 10272  004C74  0E4C               	movlw	76
 10273  004C76  6E02               	movwf	sleep@ms^0,c
 10274  004C78  EC79  F037         	call	_sleep	;wreg free
 10275                           
 10276                           ;main.c: 1150:  Beep(1318, 146);
 10277  004C7C  0E04               	movlw	4
 10278  004C7E  6E3C               	movwf	(Beep@frequency+1)^0,c
 10279  004C80  0E96               	movlw	150
 10280  004C82  6E3B               	movwf	Beep@frequency^0,c
 10281  004C84  0E00               	movlw	0
 10282  004C86  6E3E               	movwf	(Beep@duration+1)^0,c
 10283  004C88  0E49               	movlw	73
 10284  004C8A  6E3D               	movwf	Beep@duration^0,c
 10285  004C8C  EC33  F034         	call	_Beep	;wreg free
 10286                           
 10287                           ;main.c: 1151:  sleep(2);
 10288  004C90  0E00               	movlw	0
 10289  004C92  6E03               	movwf	(sleep@ms+1)^0,c
 10290  004C94  0E4C               	movlw	76
 10291  004C96  6E02               	movwf	sleep@ms^0,c
 10292  004C98  EC79  F037         	call	_sleep	;wreg free
 10293                           
 10294                           ;main.c: 1152:  Beep(92, 73);
 10295  004C9C  0E05               	movlw	5
 10296  004C9E  6E3C               	movwf	(Beep@frequency+1)^0,c
 10297  004CA0  0E26               	movlw	38
 10298  004CA2  6E3B               	movwf	Beep@frequency^0,c
 10299  004CA4  0E00               	movlw	0
 10300  004CA6  6E3E               	movwf	(Beep@duration+1)^0,c
 10301  004CA8  0E49               	movlw	73
 10302  004CAA  6E3D               	movwf	Beep@duration^0,c
 10303  004CAC  EC33  F034         	call	_Beep	;wreg free
 10304                           
 10305                           ;main.c: 1153:  sleep(75);
 10306  004CB0  0E00               	movlw	0
 10307  004CB2  6E03               	movwf	(sleep@ms+1)^0,c
 10308  004CB4  0E4B               	movlw	75
 10309  004CB6  6E02               	movwf	sleep@ms^0,c
 10310  004CB8  EC79  F037         	call	_sleep	;wreg free
 10311                           
 10312                           ;main.c: 1154:  Beep(987, 73);
 10313  004CBC  0E05               	movlw	5
 10314  004CBE  6E3C               	movwf	(Beep@frequency+1)^0,c
 10315  004CC0  0EC7               	movlw	199
 10316  004CC2  6E3B               	movwf	Beep@frequency^0,c
 10317  004CC4  0E00               	movlw	0
 10318  004CC6  6E3E               	movwf	(Beep@duration+1)^0,c
 10319  004CC8  0E49               	movlw	73
 10320  004CCA  6E3D               	movwf	Beep@duration^0,c
 10321  004CCC  EC33  F034         	call	_Beep	;wreg free
 10322                           
 10323                           ;main.c: 1155:  sleep(76);
 10324  004CD0  0E00               	movlw	0
 10325  004CD2  6E03               	movwf	(sleep@ms+1)^0,c
 10326  004CD4  0E4C               	movlw	76
 10327  004CD6  6E02               	movwf	sleep@ms^0,c
 10328  004CD8  EC79  F037         	call	_sleep	;wreg free
 10329                           
 10330                           ;main.c: 1156:  Beep(1108, 73);
 10331  004CDC  0E04               	movlw	4
 10332  004CDE  6E3C               	movwf	(Beep@frequency+1)^0,c
 10333  004CE0  0E96               	movlw	150
 10334  004CE2  6E3B               	movwf	Beep@frequency^0,c
 10335  004CE4  0E00               	movlw	0
 10336  004CE6  6E3E               	movwf	(Beep@duration+1)^0,c
 10337  004CE8  0E49               	movlw	73
 10338  004CEA  6E3D               	movwf	Beep@duration^0,c
 10339  004CEC  EC33  F034         	call	_Beep	;wreg free
 10340                           
 10341                           ;main.c: 1157:  sleep(76);
 10342  004CF0  0E00               	movlw	0
 10343  004CF2  6E03               	movwf	(sleep@ms+1)^0,c
 10344  004CF4  0E4C               	movlw	76
 10345  004CF6  6E02               	movwf	sleep@ms^0,c
 10346  004CF8  EC79  F037         	call	_sleep	;wreg free
 10347                           
 10348                           ;main.c: 1158:  Beep(1174, 73);
 10349  004CFC  0E05               	movlw	5
 10350  004CFE  6E3C               	movwf	(Beep@frequency+1)^0,c
 10351  004D00  0EC7               	movlw	199
 10352  004D02  6E3B               	movwf	Beep@frequency^0,c
 10353  004D04  0E00               	movlw	0
 10354  004D06  6E3E               	movwf	(Beep@duration+1)^0,c
 10355  004D08  0E92               	movlw	146
 10356  004D0A  6E3D               	movwf	Beep@duration^0,c
 10357  004D0C  EC33  F034         	call	_Beep	;wreg free
 10358                           
 10359                           ;main.c: 1159:  sleep(76);
 10360  004D10  0E00               	movlw	0
 10361  004D12  6E03               	movwf	(sleep@ms+1)^0,c
 10362  004D14  0E02               	movlw	2
 10363  004D16  6E02               	movwf	sleep@ms^0,c
 10364  004D18  EC79  F037         	call	_sleep	;wreg free
 10365                           
 10366                           ;main.c: 1160:  Beep(1318, 73);
 10367  004D1C  0E00               	movlw	0
 10368  004D1E  6E3C               	movwf	(Beep@frequency+1)^0,c
 10369  004D20  0E5C               	movlw	92
 10370  004D22  6E3B               	movwf	Beep@frequency^0,c
 10371  004D24  0E00               	movlw	0
 10372  004D26  6E3E               	movwf	(Beep@duration+1)^0,c
 10373  004D28  0E49               	movlw	73
 10374  004D2A  6E3D               	movwf	Beep@duration^0,c
 10375  004D2C  EC33  F034         	call	_Beep	;wreg free
 10376                           
 10377                           ;main.c: 1161:  sleep(75);
 10378  004D30  0E00               	movlw	0
 10379  004D32  6E03               	movwf	(sleep@ms+1)^0,c
 10380  004D34  0E4B               	movlw	75
 10381  004D36  6E02               	movwf	sleep@ms^0,c
 10382  004D38  EC79  F037         	call	_sleep	;wreg free
 10383                           
 10384                           ;main.c: 1162:  Beep(1479, 73);
 10385  004D3C  0E05               	movlw	5
 10386  004D3E  6E3C               	movwf	(Beep@frequency+1)^0,c
 10387  004D40  0E74               	movlw	116
 10388  004D42  6E3B               	movwf	Beep@frequency^0,c
 10389  004D44  0E00               	movlw	0
 10390  004D46  6E3E               	movwf	(Beep@duration+1)^0,c
 10391  004D48  0E49               	movlw	73
 10392  004D4A  6E3D               	movwf	Beep@duration^0,c
 10393  004D4C  EC33  F034         	call	_Beep	;wreg free
 10394                           
 10395                           ;main.c: 1163:  sleep(76);
 10396  004D50  0E00               	movlw	0
 10397  004D52  6E03               	movwf	(sleep@ms+1)^0,c
 10398  004D54  0E4C               	movlw	76
 10399  004D56  6E02               	movwf	sleep@ms^0,c
 10400  004D58  EC79  F037         	call	_sleep	;wreg free
 10401                           
 10402                           ;main.c: 1164:  Beep(1174, 73);
 10403  004D5C  0E04               	movlw	4
 10404  004D5E  6E3C               	movwf	(Beep@frequency+1)^0,c
 10405  004D60  0E54               	movlw	84
 10406  004D62  6E3B               	movwf	Beep@frequency^0,c
 10407  004D64  0E00               	movlw	0
 10408  004D66  6E3E               	movwf	(Beep@duration+1)^0,c
 10409  004D68  0E49               	movlw	73
 10410  004D6A  6E3D               	movwf	Beep@duration^0,c
 10411  004D6C  EC33  F034         	call	_Beep	;wreg free
 10412                           
 10413                           ;main.c: 1165:  sleep(76);
 10414  004D70  0E00               	movlw	0
 10415  004D72  6E03               	movwf	(sleep@ms+1)^0,c
 10416  004D74  0E4C               	movlw	76
 10417  004D76  6E02               	movwf	sleep@ms^0,c
 10418  004D78  EC79  F037         	call	_sleep	;wreg free
 10419                           
 10420                           ;main.c: 1166:  Beep(1479, 73);
 10421  004D7C  0E05               	movlw	5
 10422  004D7E  6E3C               	movwf	(Beep@frequency+1)^0,c
 10423  004D80  0E74               	movlw	116
 10424  004D82  6E3B               	movwf	Beep@frequency^0,c
 10425  004D84  0E00               	movlw	0
 10426  004D86  6E3E               	movwf	(Beep@duration+1)^0,c
 10427  004D88  0E92               	movlw	146
 10428  004D8A  6E3D               	movwf	Beep@duration^0,c
 10429  004D8C  EC33  F034         	call	_Beep	;wreg free
 10430                           
 10431                           ;main.c: 1167:  sleep(76);
 10432  004D90  0E00               	movlw	0
 10433  004D92  6E03               	movwf	(sleep@ms+1)^0,c
 10434  004D94  0E02               	movlw	2
 10435  004D96  6E02               	movwf	sleep@ms^0,c
 10436  004D98  EC79  F037         	call	_sleep	;wreg free
 10437                           
 10438                           ;main.c: 1168:  Beep(1975, 73);
 10439  004D9C  0E00               	movlw	0
 10440  004D9E  6E3C               	movwf	(Beep@frequency+1)^0,c
 10441  004DA0  0E5C               	movlw	92
 10442  004DA2  6E3B               	movwf	Beep@frequency^0,c
 10443  004DA4  0E00               	movlw	0
 10444  004DA6  6E3E               	movwf	(Beep@duration+1)^0,c
 10445  004DA8  0E49               	movlw	73
 10446  004DAA  6E3D               	movwf	Beep@duration^0,c
 10447  004DAC  EC33  F034         	call	_Beep	;wreg free
 10448                           
 10449                           ;main.c: 1169:  sleep(75);
 10450  004DB0  0E00               	movlw	0
 10451  004DB2  6E03               	movwf	(sleep@ms+1)^0,c
 10452  004DB4  0E4B               	movlw	75
 10453  004DB6  6E02               	movwf	sleep@ms^0,c
 10454  004DB8  EC79  F037         	call	_sleep	;wreg free
 10455                           
 10456                           ;main.c: 1170:  Beep(1760, 73);
 10457  004DBC  0E05               	movlw	5
 10458  004DBE  6E3C               	movwf	(Beep@frequency+1)^0,c
 10459  004DC0  0E26               	movlw	38
 10460  004DC2  6E3B               	movwf	Beep@frequency^0,c
 10461  004DC4  0E00               	movlw	0
 10462  004DC6  6E3E               	movwf	(Beep@duration+1)^0,c
 10463  004DC8  0E49               	movlw	73
 10464  004DCA  6E3D               	movwf	Beep@duration^0,c
 10465  004DCC  EC33  F034         	call	_Beep	;wreg free
 10466                           
 10467                           ;main.c: 1171:  sleep(76);
 10468  004DD0  0E00               	movlw	0
 10469  004DD2  6E03               	movwf	(sleep@ms+1)^0,c
 10470  004DD4  0E4C               	movlw	76
 10471  004DD6  6E02               	movwf	sleep@ms^0,c
 10472  004DD8  EC79  F037         	call	_sleep	;wreg free
 10473                           
 10474                           ;main.c: 1172:  Beep(1479, 73);
 10475  004DDC  0E04               	movlw	4
 10476  004DDE  6E3C               	movwf	(Beep@frequency+1)^0,c
 10477  004DE0  0E16               	movlw	22
 10478  004DE2  6E3B               	movwf	Beep@frequency^0,c
 10479  004DE4  0E00               	movlw	0
 10480  004DE6  6E3E               	movwf	(Beep@duration+1)^0,c
 10481  004DE8  0E49               	movlw	73
 10482  004DEA  6E3D               	movwf	Beep@duration^0,c
 10483  004DEC  EC33  F034         	call	_Beep	;wreg free
 10484                           
 10485                           ;main.c: 1173:  sleep(76);
 10486  004DF0  0E00               	movlw	0
 10487  004DF2  6E03               	movwf	(sleep@ms+1)^0,c
 10488  004DF4  0E4C               	movlw	76
 10489  004DF6  6E02               	movwf	sleep@ms^0,c
 10490  004DF8  EC79  F037         	call	_sleep	;wreg free
 10491                           
 10492                           ;main.c: 1174:  Beep(1174, 73);
 10493  004DFC  0E05               	movlw	5
 10494  004DFE  6E3C               	movwf	(Beep@frequency+1)^0,c
 10495  004E00  0E26               	movlw	38
 10496  004E02  6E3B               	movwf	Beep@frequency^0,c
 10497  004E04  0E00               	movlw	0
 10498  004E06  6E3E               	movwf	(Beep@duration+1)^0,c
 10499  004E08  0E92               	movlw	146
 10500  004E0A  6E3D               	movwf	Beep@duration^0,c
 10501  004E0C  EC33  F034         	call	_Beep	;wreg free
 10502                           
 10503                           ;main.c: 1175:  sleep(76);
 10504  004E10  0E00               	movlw	0
 10505  004E12  6E03               	movwf	(sleep@ms+1)^0,c
 10506  004E14  0E02               	movlw	2
 10507  004E16  6E02               	movwf	sleep@ms^0,c
 10508  004E18  EC79  F037         	call	_sleep	;wreg free
 10509                           
 10510                           ;main.c: 1176:  Beep(1479, 73);
 10511  004E1C  0E00               	movlw	0
 10512  004E1E  6E3C               	movwf	(Beep@frequency+1)^0,c
 10513  004E20  0E5C               	movlw	92
 10514  004E22  6E3B               	movwf	Beep@frequency^0,c
 10515  004E24  0E00               	movlw	0
 10516  004E26  6E3E               	movwf	(Beep@duration+1)^0,c
 10517  004E28  0E49               	movlw	73
 10518  004E2A  6E3D               	movwf	Beep@duration^0,c
 10519  004E2C  EC33  F034         	call	_Beep	;wreg free
 10520                           
 10521                           ;main.c: 1177:  sleep(75);
 10522  004E30  0E00               	movlw	0
 10523  004E32  6E03               	movwf	(sleep@ms+1)^0,c
 10524  004E34  0E4B               	movlw	75
 10525  004E36  6E02               	movwf	sleep@ms^0,c
 10526  004E38  EC79  F037         	call	_sleep	;wreg free
 10527                           
 10528                           ;main.c: 1178:  Beep(1760, 537);
 10529  004E3C  0E03               	movlw	3
 10530  004E3E  6E3C               	movwf	(Beep@frequency+1)^0,c
 10531  004E40  0EDB               	movlw	219
 10532  004E42  6E3B               	movwf	Beep@frequency^0,c
 10533  004E44  0E00               	movlw	0
 10534  004E46  6E3E               	movwf	(Beep@duration+1)^0,c
 10535  004E48  0E49               	movlw	73
 10536  004E4A  6E3D               	movwf	Beep@duration^0,c
 10537  004E4C  EC33  F034         	call	_Beep	;wreg free
 10538                           
 10539                           ;main.c: 1179:  sleep(58);
 10540  004E50  0E00               	movlw	0
 10541  004E52  6E03               	movwf	(sleep@ms+1)^0,c
 10542  004E54  0E4C               	movlw	76
 10543  004E56  6E02               	movwf	sleep@ms^0,c
 10544  004E58  EC79  F037         	call	_sleep	;wreg free
 10545                           
 10546                           ;main.c: 1180:  Beep(987, 72);
 10547  004E5C  0E04               	movlw	4
 10548  004E5E  6E3C               	movwf	(Beep@frequency+1)^0,c
 10549  004E60  0E54               	movlw	84
 10550  004E62  6E3B               	movwf	Beep@frequency^0,c
 10551  004E64  0E00               	movlw	0
 10552  004E66  6E3E               	movwf	(Beep@duration+1)^0,c
 10553  004E68  0E49               	movlw	73
 10554  004E6A  6E3D               	movwf	Beep@duration^0,c
 10555  004E6C  EC33  F034         	call	_Beep	;wreg free
 10556                           
 10557                           ;main.c: 1181:  sleep(73);
 10558  004E70  0E00               	movlw	0
 10559  004E72  6E03               	movwf	(sleep@ms+1)^0,c
 10560  004E74  0E4C               	movlw	76
 10561  004E76  6E02               	movwf	sleep@ms^0,c
 10562  004E78  EC79  F037         	call	_sleep	;wreg free
 10563                           
 10564                           ;main.c: 1182:  Beep(1108, 72);
 10565  004E7C  0E04               	movlw	4
 10566  004E7E  6E3C               	movwf	(Beep@frequency+1)^0,c
 10567  004E80  0E96               	movlw	150
 10568  004E82  6E3B               	movwf	Beep@frequency^0,c
 10569  004E84  0E00               	movlw	0
 10570  004E86  6E3E               	movwf	(Beep@duration+1)^0,c
 10571  004E88  0E49               	movlw	73
 10572  004E8A  6E3D               	movwf	Beep@duration^0,c
 10573  004E8C  EC33  F034         	call	_Beep	;wreg free
 10574                           
 10575                           ;main.c: 1183:  sleep(74);
 10576  004E90  0E00               	movlw	0
 10577  004E92  6E03               	movwf	(sleep@ms+1)^0,c
 10578  004E94  0E4C               	movlw	76
 10579  004E96  6E02               	movwf	sleep@ms^0,c
 10580  004E98  EC79  F037         	call	_sleep	;wreg free
 10581                           
 10582                           ;main.c: 1184:  Beep(1174, 72);
 10583  004E9C  0E05               	movlw	5
 10584  004E9E  6E3C               	movwf	(Beep@frequency+1)^0,c
 10585  004EA0  0E26               	movlw	38
 10586  004EA2  6E3B               	movwf	Beep@frequency^0,c
 10587  004EA4  0E00               	movlw	0
 10588  004EA6  6E3E               	movwf	(Beep@duration+1)^0,c
 10589  004EA8  0E49               	movlw	73
 10590  004EAA  6E3D               	movwf	Beep@duration^0,c
 10591  004EAC  EC33  F034         	call	_Beep	;wreg free
 10592                           
 10593                           ;main.c: 1185:  sleep(74);
 10594  004EB0  0E00               	movlw	0
 10595  004EB2  6E03               	movwf	(sleep@ms+1)^0,c
 10596  004EB4  0E4B               	movlw	75
 10597  004EB6  6E02               	movwf	sleep@ms^0,c
 10598  004EB8  EC79  F037         	call	_sleep	;wreg free
 10599                           
 10600                           ;main.c: 1186:  Beep(1318, 72);
 10601  004EBC  0E05               	movlw	5
 10602  004EBE  6E3C               	movwf	(Beep@frequency+1)^0,c
 10603  004EC0  0EC7               	movlw	199
 10604  004EC2  6E3B               	movwf	Beep@frequency^0,c
 10605  004EC4  0E00               	movlw	0
 10606  004EC6  6E3E               	movwf	(Beep@duration+1)^0,c
 10607  004EC8  0E49               	movlw	73
 10608  004ECA  6E3D               	movwf	Beep@duration^0,c
 10609  004ECC  EC33  F034         	call	_Beep	;wreg free
 10610                           
 10611                           ;main.c: 1187:  sleep(74);
 10612  004ED0  0E00               	movlw	0
 10613  004ED2  6E03               	movwf	(sleep@ms+1)^0,c
 10614  004ED4  0E4C               	movlw	76
 10615  004ED6  6E02               	movwf	sleep@ms^0,c
 10616  004ED8  EC79  F037         	call	_sleep	;wreg free
 10617                           
 10618                           ;main.c: 1188:  Beep(1479, 72);
 10619  004EDC  0E04               	movlw	4
 10620  004EDE  6E3C               	movwf	(Beep@frequency+1)^0,c
 10621  004EE0  0E96               	movlw	150
 10622  004EE2  6E3B               	movwf	Beep@frequency^0,c
 10623  004EE4  0E00               	movlw	0
 10624  004EE6  6E3E               	movwf	(Beep@duration+1)^0,c
 10625  004EE8  0E49               	movlw	73
 10626  004EEA  6E3D               	movwf	Beep@duration^0,c
 10627  004EEC  EC33  F034         	call	_Beep	;wreg free
 10628                           
 10629                           ;main.c: 1189:  sleep(74);
 10630  004EF0  0E00               	movlw	0
 10631  004EF2  6E03               	movwf	(sleep@ms+1)^0,c
 10632  004EF4  0E4C               	movlw	76
 10633  004EF6  6E02               	movwf	sleep@ms^0,c
 10634  004EF8  EC79  F037         	call	_sleep	;wreg free
 10635                           
 10636                           ;main.c: 1190:  Beep(1174, 72);
 10637  004EFC  0E05               	movlw	5
 10638  004EFE  6E3C               	movwf	(Beep@frequency+1)^0,c
 10639  004F00  0EC7               	movlw	199
 10640  004F02  6E3B               	movwf	Beep@frequency^0,c
 10641  004F04  0E00               	movlw	0
 10642  004F06  6E3E               	movwf	(Beep@duration+1)^0,c
 10643  004F08  0E49               	movlw	73
 10644  004F0A  6E3D               	movwf	Beep@duration^0,c
 10645  004F0C  EC33  F034         	call	_Beep	;wreg free
 10646                           
 10647                           ;main.c: 1191:  sleep(74);
 10648  004F10  0E00               	movlw	0
 10649  004F12  6E03               	movwf	(sleep@ms+1)^0,c
 10650  004F14  0E4C               	movlw	76
 10651  004F16  6E02               	movwf	sleep@ms^0,c
 10652  004F18  EC79  F037         	call	_sleep	;wreg free
 10653                           
 10654                           ;main.c: 1192:  Beep(1479, 144);
 10655  004F1C  0E07               	movlw	7
 10656  004F1E  6E3C               	movwf	(Beep@frequency+1)^0,c
 10657  004F20  0EB7               	movlw	183
 10658  004F22  6E3B               	movwf	Beep@frequency^0,c
 10659  004F24  0E00               	movlw	0
 10660  004F26  6E3E               	movwf	(Beep@duration+1)^0,c
 10661  004F28  0E49               	movlw	73
 10662  004F2A  6E3D               	movwf	Beep@duration^0,c
 10663  004F2C  EC33  F034         	call	_Beep	;wreg free
 10664                           
 10665                           ;main.c: 1193:  sleep(2);
 10666  004F30  0E00               	movlw	0
 10667  004F32  6E03               	movwf	(sleep@ms+1)^0,c
 10668  004F34  0E4B               	movlw	75
 10669  004F36  6E02               	movwf	sleep@ms^0,c
 10670  004F38  EC79  F037         	call	_sleep	;wreg free
 10671                           
 10672                           ;main.c: 1194:  Beep(92, 72);
 10673  004F3C  0E06               	movlw	6
 10674  004F3E  6E3C               	movwf	(Beep@frequency+1)^0,c
 10675  004F40  0EE0               	movlw	224
 10676  004F42  6E3B               	movwf	Beep@frequency^0,c
 10677  004F44  0E00               	movlw	0
 10678  004F46  6E3E               	movwf	(Beep@duration+1)^0,c
 10679  004F48  0E49               	movlw	73
 10680  004F4A  6E3D               	movwf	Beep@duration^0,c
 10681  004F4C  EC33  F034         	call	_Beep	;wreg free
 10682                           
 10683                           ;main.c: 1195:  sleep(74);
 10684  004F50  0E00               	movlw	0
 10685  004F52  6E03               	movwf	(sleep@ms+1)^0,c
 10686  004F54  0E4C               	movlw	76
 10687  004F56  6E02               	movwf	sleep@ms^0,c
 10688  004F58  EC79  F037         	call	_sleep	;wreg free
 10689                           
 10690                           ;main.c: 1196:  Beep(1396, 72);
 10691  004F5C  0E05               	movlw	5
 10692  004F5E  6E3C               	movwf	(Beep@frequency+1)^0,c
 10693  004F60  0EC7               	movlw	199
 10694  004F62  6E3B               	movwf	Beep@frequency^0,c
 10695  004F64  0E00               	movlw	0
 10696  004F66  6E3E               	movwf	(Beep@duration+1)^0,c
 10697  004F68  0E49               	movlw	73
 10698  004F6A  6E3D               	movwf	Beep@duration^0,c
 10699  004F6C  EC33  F034         	call	_Beep	;wreg free
 10700                           
 10701                           ;main.c: 1197:  sleep(73);
 10702  004F70  0E00               	movlw	0
 10703  004F72  6E03               	movwf	(sleep@ms+1)^0,c
 10704  004F74  0E4C               	movlw	76
 10705  004F76  6E02               	movwf	sleep@ms^0,c
 10706  004F78  EC79  F037         	call	_sleep	;wreg free
 10707                           
 10708                           ;main.c: 1198:  Beep(1108, 72);
 10709  004F7C  0E04               	movlw	4
 10710  004F7E  6E3C               	movwf	(Beep@frequency+1)^0,c
 10711  004F80  0E96               	movlw	150
 10712  004F82  6E3B               	movwf	Beep@frequency^0,c
 10713  004F84  0E00               	movlw	0
 10714  004F86  6E3E               	movwf	(Beep@duration+1)^0,c
 10715  004F88  0E49               	movlw	73
 10716  004F8A  6E3D               	movwf	Beep@duration^0,c
 10717  004F8C  EC33  F034         	call	_Beep	;wreg free
 10718                           
 10719                           ;main.c: 1199:  sleep(73);
 10720  004F90  0E00               	movlw	0
 10721  004F92  6E03               	movwf	(sleep@ms+1)^0,c
 10722  004F94  0E4C               	movlw	76
 10723  004F96  6E02               	movwf	sleep@ms^0,c
 10724  004F98  EC79  F037         	call	_sleep	;wreg free
 10725                           
 10726                           ;main.c: 1200:  Beep(1396, 143);
 10727  004F9C  0E05               	movlw	5
 10728  004F9E  6E3C               	movwf	(Beep@frequency+1)^0,c
 10729  004FA0  0EC7               	movlw	199
 10730  004FA2  6E3B               	movwf	Beep@frequency^0,c
 10731  004FA4  0E00               	movlw	0
 10732  004FA6  6E3E               	movwf	(Beep@duration+1)^0,c
 10733  004FA8  0E49               	movlw	73
 10734  004FAA  6E3D               	movwf	Beep@duration^0,c
 10735  004FAC  EC33  F034         	call	_Beep	;wreg free
 10736                           
 10737                           ;main.c: 1201:  sleep(2);
 10738  004FB0  0E00               	movlw	0
 10739  004FB2  6E03               	movwf	(sleep@ms+1)^0,c
 10740  004FB4  0E4B               	movlw	75
 10741  004FB6  6E02               	movwf	sleep@ms^0,c
 10742  004FB8  EC79  F037         	call	_sleep	;wreg free
 10743                           
 10744                           ;main.c: 1202:  Beep(92, 72);
 10745  004FBC  0E06               	movlw	6
 10746  004FBE  6E3C               	movwf	(Beep@frequency+1)^0,c
 10747  004FC0  0EE0               	movlw	224
 10748  004FC2  6E3B               	movwf	Beep@frequency^0,c
 10749  004FC4  0E02               	movlw	2
 10750  004FC6  6E3E               	movwf	(Beep@duration+1)^0,c
 10751  004FC8  0E19               	movlw	25
 10752  004FCA  6E3D               	movwf	Beep@duration^0,c
 10753  004FCC  EC33  F034         	call	_Beep	;wreg free
 10754                           
 10755                           ;main.c: 1203:  sleep(74);
 10756  004FD0  0E00               	movlw	0
 10757  004FD2  6E03               	movwf	(sleep@ms+1)^0,c
 10758  004FD4  0E3A               	movlw	58
 10759  004FD6  6E02               	movwf	sleep@ms^0,c
 10760  004FD8  EC79  F037         	call	_sleep	;wreg free
 10761                           
 10762                           ;main.c: 1204:  Beep(1318, 72);
 10763  004FDC  0E03               	movlw	3
 10764  004FDE  6E3C               	movwf	(Beep@frequency+1)^0,c
 10765  004FE0  0EDB               	movlw	219
 10766  004FE2  6E3B               	movwf	Beep@frequency^0,c
 10767  004FE4  0E00               	movlw	0
 10768  004FE6  6E3E               	movwf	(Beep@duration+1)^0,c
 10769  004FE8  0E48               	movlw	72
 10770  004FEA  6E3D               	movwf	Beep@duration^0,c
 10771  004FEC  EC33  F034         	call	_Beep	;wreg free
 10772                           
 10773                           ;main.c: 1205:  sleep(73);
 10774  004FF0  0E00               	movlw	0
 10775  004FF2  6E03               	movwf	(sleep@ms+1)^0,c
 10776  004FF4  0E49               	movlw	73
 10777  004FF6  6E02               	movwf	sleep@ms^0,c
 10778  004FF8  EC79  F037         	call	_sleep	;wreg free
 10779                           
 10780                           ;main.c: 1206:  Beep(1046, 72);
 10781  004FFC  0E04               	movlw	4
 10782  004FFE  6E3C               	movwf	(Beep@frequency+1)^0,c
 10783  005000  0E54               	movlw	84
 10784  005002  6E3B               	movwf	Beep@frequency^0,c
 10785  005004  0E00               	movlw	0
 10786  005006  6E3E               	movwf	(Beep@duration+1)^0,c
 10787  005008  0E48               	movlw	72
 10788  00500A  6E3D               	movwf	Beep@duration^0,c
 10789  00500C  EC33  F034         	call	_Beep	;wreg free
 10790                           
 10791                           ;main.c: 1207:  sleep(73);
 10792  005010  0E00               	movlw	0
 10793  005012  6E03               	movwf	(sleep@ms+1)^0,c
 10794  005014  0E4A               	movlw	74
 10795  005016  6E02               	movwf	sleep@ms^0,c
 10796  005018  EC79  F037         	call	_sleep	;wreg free
 10797                           
 10798                           ;main.c: 1208:  Beep(1318, 143);
 10799  00501C  0E04               	movlw	4
 10800  00501E  6E3C               	movwf	(Beep@frequency+1)^0,c
 10801  005020  0E96               	movlw	150
 10802  005022  6E3B               	movwf	Beep@frequency^0,c
 10803  005024  0E00               	movlw	0
 10804  005026  6E3E               	movwf	(Beep@duration+1)^0,c
 10805  005028  0E48               	movlw	72
 10806  00502A  6E3D               	movwf	Beep@duration^0,c
 10807  00502C  EC33  F034         	call	_Beep	;wreg free
 10808                           
 10809                           ;main.c: 1209:  sleep(2);
 10810  005030  0E00               	movlw	0
 10811  005032  6E03               	movwf	(sleep@ms+1)^0,c
 10812  005034  0E4A               	movlw	74
 10813  005036  6E02               	movwf	sleep@ms^0,c
 10814  005038  EC79  F037         	call	_sleep	;wreg free
 10815                           
 10816                           ;main.c: 1210:  Beep(92, 72);
 10817  00503C  0E05               	movlw	5
 10818  00503E  6E3C               	movwf	(Beep@frequency+1)^0,c
 10819  005040  0E26               	movlw	38
 10820  005042  6E3B               	movwf	Beep@frequency^0,c
 10821  005044  0E00               	movlw	0
 10822  005046  6E3E               	movwf	(Beep@duration+1)^0,c
 10823  005048  0E48               	movlw	72
 10824  00504A  6E3D               	movwf	Beep@duration^0,c
 10825  00504C  EC33  F034         	call	_Beep	;wreg free
 10826                           
 10827                           ;main.c: 1211:  sleep(74);
 10828  005050  0E00               	movlw	0
 10829  005052  6E03               	movwf	(sleep@ms+1)^0,c
 10830  005054  0E4A               	movlw	74
 10831  005056  6E02               	movwf	sleep@ms^0,c
 10832  005058  EC79  F037         	call	_sleep	;wreg free
 10833                           
 10834                           ;main.c: 1212:  Beep(987, 72);
 10835  00505C  0E05               	movlw	5
 10836  00505E  6E3C               	movwf	(Beep@frequency+1)^0,c
 10837  005060  0EC7               	movlw	199
 10838  005062  6E3B               	movwf	Beep@frequency^0,c
 10839  005064  0E00               	movlw	0
 10840  005066  6E3E               	movwf	(Beep@duration+1)^0,c
 10841  005068  0E48               	movlw	72
 10842  00506A  6E3D               	movwf	Beep@duration^0,c
 10843  00506C  EC33  F034         	call	_Beep	;wreg free
 10844                           
 10845                           ;main.c: 1213:  sleep(73);
 10846  005070  0E00               	movlw	0
 10847  005072  6E03               	movwf	(sleep@ms+1)^0,c
 10848  005074  0E4A               	movlw	74
 10849  005076  6E02               	movwf	sleep@ms^0,c
 10850  005078  EC79  F037         	call	_sleep	;wreg free
 10851                           
 10852                           ;main.c: 1214:  Beep(1108, 72);
 10853  00507C  0E04               	movlw	4
 10854  00507E  6E3C               	movwf	(Beep@frequency+1)^0,c
 10855  005080  0E96               	movlw	150
 10856  005082  6E3B               	movwf	Beep@frequency^0,c
 10857  005084  0E00               	movlw	0
 10858  005086  6E3E               	movwf	(Beep@duration+1)^0,c
 10859  005088  0E48               	movlw	72
 10860  00508A  6E3D               	movwf	Beep@duration^0,c
 10861  00508C  EC33  F034         	call	_Beep	;wreg free
 10862                           
 10863                           ;main.c: 1215:  sleep(74);
 10864  005090  0E00               	movlw	0
 10865  005092  6E03               	movwf	(sleep@ms+1)^0,c
 10866  005094  0E4A               	movlw	74
 10867  005096  6E02               	movwf	sleep@ms^0,c
 10868  005098  EC79  F037         	call	_sleep	;wreg free
 10869                           
 10870                           ;main.c: 1216:  Beep(1174, 72);
 10871  00509C  0E05               	movlw	5
 10872  00509E  6E3C               	movwf	(Beep@frequency+1)^0,c
 10873  0050A0  0EC7               	movlw	199
 10874  0050A2  6E3B               	movwf	Beep@frequency^0,c
 10875  0050A4  0E00               	movlw	0
 10876  0050A6  6E3E               	movwf	(Beep@duration+1)^0,c
 10877  0050A8  0E90               	movlw	144
 10878  0050AA  6E3D               	movwf	Beep@duration^0,c
 10879  0050AC  EC33  F034         	call	_Beep	;wreg free
 10880                           
 10881                           ;main.c: 1217:  sleep(74);
 10882  0050B0  0E00               	movlw	0
 10883  0050B2  6E03               	movwf	(sleep@ms+1)^0,c
 10884  0050B4  0E02               	movlw	2
 10885  0050B6  6E02               	movwf	sleep@ms^0,c
 10886  0050B8  EC79  F037         	call	_sleep	;wreg free
 10887                           
 10888                           ;main.c: 1218:  Beep(1318, 72);
 10889  0050BC  0E00               	movlw	0
 10890  0050BE  6E3C               	movwf	(Beep@frequency+1)^0,c
 10891  0050C0  0E5C               	movlw	92
 10892  0050C2  6E3B               	movwf	Beep@frequency^0,c
 10893  0050C4  0E00               	movlw	0
 10894  0050C6  6E3E               	movwf	(Beep@duration+1)^0,c
 10895  0050C8  0E48               	movlw	72
 10896  0050CA  6E3D               	movwf	Beep@duration^0,c
 10897  0050CC  EC33  F034         	call	_Beep	;wreg free
 10898                           
 10899                           ;main.c: 1219:  sleep(74);
 10900  0050D0  0E00               	movlw	0
 10901  0050D2  6E03               	movwf	(sleep@ms+1)^0,c
 10902  0050D4  0E4A               	movlw	74
 10903  0050D6  6E02               	movwf	sleep@ms^0,c
 10904  0050D8  EC79  F037         	call	_sleep	;wreg free
 10905                           
 10906                           ;main.c: 1220:  Beep(1479, 70);
 10907  0050DC  0E05               	movlw	5
 10908  0050DE  6E3C               	movwf	(Beep@frequency+1)^0,c
 10909  0050E0  0E74               	movlw	116
 10910  0050E2  6E3B               	movwf	Beep@frequency^0,c
 10911  0050E4  0E00               	movlw	0
 10912  0050E6  6E3E               	movwf	(Beep@duration+1)^0,c
 10913  0050E8  0E48               	movlw	72
 10914  0050EA  6E3D               	movwf	Beep@duration^0,c
 10915  0050EC  EC33  F034         	call	_Beep	;wreg free
 10916                           
 10917                           ;main.c: 1221:  sleep(72);
 10918  0050F0  0E00               	movlw	0
 10919  0050F2  6E03               	movwf	(sleep@ms+1)^0,c
 10920  0050F4  0E49               	movlw	73
 10921  0050F6  6E02               	movwf	sleep@ms^0,c
 10922  0050F8  EC79  F037         	call	_sleep	;wreg free
 10923                           
 10924                           ;main.c: 1222:  Beep(1174, 70);
 10925  0050FC  0E04               	movlw	4
 10926  0050FE  6E3C               	movwf	(Beep@frequency+1)^0,c
 10927  005100  0E54               	movlw	84
 10928  005102  6E3B               	movwf	Beep@frequency^0,c
 10929  005104  0E00               	movlw	0
 10930  005106  6E3E               	movwf	(Beep@duration+1)^0,c
 10931  005108  0E48               	movlw	72
 10932  00510A  6E3D               	movwf	Beep@duration^0,c
 10933  00510C  EC33  F034         	call	_Beep	;wreg free
 10934                           
 10935                           ;main.c: 1223:  sleep(72);
 10936  005110  0E00               	movlw	0
 10937  005112  6E03               	movwf	(sleep@ms+1)^0,c
 10938  005114  0E49               	movlw	73
 10939  005116  6E02               	movwf	sleep@ms^0,c
 10940  005118  EC79  F037         	call	_sleep	;wreg free
 10941                           
 10942                           ;main.c: 1224:  Beep(1479, 68);
 10943  00511C  0E05               	movlw	5
 10944  00511E  6E3C               	movwf	(Beep@frequency+1)^0,c
 10945  005120  0E74               	movlw	116
 10946  005122  6E3B               	movwf	Beep@frequency^0,c
 10947  005124  0E00               	movlw	0
 10948  005126  6E3E               	movwf	(Beep@duration+1)^0,c
 10949  005128  0E8F               	movlw	143
 10950  00512A  6E3D               	movwf	Beep@duration^0,c
 10951  00512C  EC33  F034         	call	_Beep	;wreg free
 10952                           
 10953                           ;main.c: 1225:  sleep(70);
 10954  005130  0E00               	movlw	0
 10955  005132  6E03               	movwf	(sleep@ms+1)^0,c
 10956  005134  0E02               	movlw	2
 10957  005136  6E02               	movwf	sleep@ms^0,c
 10958  005138  EC79  F037         	call	_sleep	;wreg free
 10959                           
 10960                           ;main.c: 1226:  Beep(1975, 68);
 10961  00513C  0E00               	movlw	0
 10962  00513E  6E3C               	movwf	(Beep@frequency+1)^0,c
 10963  005140  0E5C               	movlw	92
 10964  005142  6E3B               	movwf	Beep@frequency^0,c
 10965  005144  0E00               	movlw	0
 10966  005146  6E3E               	movwf	(Beep@duration+1)^0,c
 10967  005148  0E48               	movlw	72
 10968  00514A  6E3D               	movwf	Beep@duration^0,c
 10969  00514C  EC33  F034         	call	_Beep	;wreg free
 10970                           
 10971                           ;main.c: 1227:  sleep(70);
 10972  005150  0E00               	movlw	0
 10973  005152  6E03               	movwf	(sleep@ms+1)^0,c
 10974  005154  0E4A               	movlw	74
 10975  005156  6E02               	movwf	sleep@ms^0,c
 10976  005158  EC79  F037         	call	_sleep	;wreg free
 10977                           
 10978                           ;main.c: 1228:  Beep(1479, 67);
 10979  00515C  0E05               	movlw	5
 10980  00515E  6E3C               	movwf	(Beep@frequency+1)^0,c
 10981  005160  0E26               	movlw	38
 10982  005162  6E3B               	movwf	Beep@frequency^0,c
 10983  005164  0E00               	movlw	0
 10984  005166  6E3E               	movwf	(Beep@duration+1)^0,c
 10985  005168  0E48               	movlw	72
 10986  00516A  6E3D               	movwf	Beep@duration^0,c
 10987  00516C  EC33  F034         	call	_Beep	;wreg free
 10988                           
 10989                           ;main.c: 1229:  sleep(69);
 10990  005170  0E00               	movlw	0
 10991  005172  6E03               	movwf	(sleep@ms+1)^0,c
 10992  005174  0E49               	movlw	73
 10993  005176  6E02               	movwf	sleep@ms^0,c
 10994  005178  EC79  F037         	call	_sleep	;wreg free
 10995                           
 10996                           ;main.c: 1230:  Beep(1174, 67);
 10997  00517C  0E04               	movlw	4
 10998  00517E  6E3C               	movwf	(Beep@frequency+1)^0,c
 10999  005180  0E16               	movlw	22
 11000  005182  6E3B               	movwf	Beep@frequency^0,c
 11001  005184  0E00               	movlw	0
 11002  005186  6E3E               	movwf	(Beep@duration+1)^0,c
 11003  005188  0E48               	movlw	72
 11004  00518A  6E3D               	movwf	Beep@duration^0,c
 11005  00518C  EC33  F034         	call	_Beep	;wreg free
 11006                           
 11007                           ;main.c: 1231:  sleep(69);
 11008  005190  0E00               	movlw	0
 11009  005192  6E03               	movwf	(sleep@ms+1)^0,c
 11010  005194  0E49               	movlw	73
 11011  005196  6E02               	movwf	sleep@ms^0,c
 11012  005198  EC79  F037         	call	_sleep	;wreg free
 11013                           
 11014                           ;main.c: 1232:  Beep(1479, 67);
 11015  00519C  0E05               	movlw	5
 11016  00519E  6E3C               	movwf	(Beep@frequency+1)^0,c
 11017  0051A0  0E26               	movlw	38
 11018  0051A2  6E3B               	movwf	Beep@frequency^0,c
 11019  0051A4  0E00               	movlw	0
 11020  0051A6  6E3E               	movwf	(Beep@duration+1)^0,c
 11021  0051A8  0E8F               	movlw	143
 11022  0051AA  6E3D               	movwf	Beep@duration^0,c
 11023  0051AC  EC33  F034         	call	_Beep	;wreg free
 11024                           
 11025                           ;main.c: 1233:  sleep(69);
 11026  0051B0  0E00               	movlw	0
 11027  0051B2  6E03               	movwf	(sleep@ms+1)^0,c
 11028  0051B4  0E02               	movlw	2
 11029  0051B6  6E02               	movwf	sleep@ms^0,c
 11030  0051B8  EC79  F037         	call	_sleep	;wreg free
 11031                           
 11032                           ;main.c: 1234:  Beep(1975, 67);
 11033  0051BC  0E00               	movlw	0
 11034  0051BE  6E3C               	movwf	(Beep@frequency+1)^0,c
 11035  0051C0  0E5C               	movlw	92
 11036  0051C2  6E3B               	movwf	Beep@frequency^0,c
 11037  0051C4  0E00               	movlw	0
 11038  0051C6  6E3E               	movwf	(Beep@duration+1)^0,c
 11039  0051C8  0E48               	movlw	72
 11040  0051CA  6E3D               	movwf	Beep@duration^0,c
 11041  0051CC  EC33  F034         	call	_Beep	;wreg free
 11042                           
 11043                           ;main.c: 1235:  sleep(69);
 11044  0051D0  0E00               	movlw	0
 11045  0051D2  6E03               	movwf	(sleep@ms+1)^0,c
 11046  0051D4  0E4A               	movlw	74
 11047  0051D6  6E02               	movwf	sleep@ms^0,c
 11048  0051D8  EC79  F037         	call	_sleep	;wreg free
 11049                           
 11050                           ;main.c: 1236:  Beep(987, 490);
 11051  0051DC  0E03               	movlw	3
 11052  0051DE  6E3C               	movwf	(Beep@frequency+1)^0,c
 11053  0051E0  0EDB               	movlw	219
 11054  0051E2  6E3B               	movwf	Beep@frequency^0,c
 11055  0051E4  0E00               	movlw	0
 11056  0051E6  6E3E               	movwf	(Beep@duration+1)^0,c
 11057  0051E8  0E48               	movlw	72
 11058  0051EA  6E3D               	movwf	Beep@duration^0,c
 11059  0051EC  EC33  F034         	call	_Beep	;wreg free
 11060                           
 11061                           ;main.c: 1237:  sleep(53);
 11062  0051F0  0E00               	movlw	0
 11063  0051F2  6E03               	movwf	(sleep@ms+1)^0,c
 11064  0051F4  0E49               	movlw	73
 11065  0051F6  6E02               	movwf	sleep@ms^0,c
 11066  0051F8  EC79  F037         	call	_sleep	;wreg free
 11067                           
 11068                           ;main.c: 1238:  Beep(61, 207);
 11069  0051FC  0E04               	movlw	4
 11070  0051FE  6E3C               	movwf	(Beep@frequency+1)^0,c
 11071  005200  0E54               	movlw	84
 11072  005202  6E3B               	movwf	Beep@frequency^0,c
 11073  005204  0E00               	movlw	0
 11074  005206  6E3E               	movwf	(Beep@duration+1)^0,c
 11075  005208  0E48               	movlw	72
 11076  00520A  6E3D               	movwf	Beep@duration^0,c
 11077  00520C  EC33  F034         	call	_Beep	;wreg free
 11078                           
 11079                           ;main.c: 1239:  sleep(22);
 11080  005210  0E00               	movlw	0
 11081  005212  6E03               	movwf	(sleep@ms+1)^0,c
 11082  005214  0E4A               	movlw	74
 11083  005216  6E02               	movwf	sleep@ms^0,c
 11084  005218  EC79  F037         	call	_sleep	;wreg free
 11085                           
 11086                           ;main.c: 1240:  Beep(1174, 207);
 11087  00521C  0E04               	movlw	4
 11088  00521E  6E3C               	movwf	(Beep@frequency+1)^0,c
 11089  005220  0E96               	movlw	150
 11090  005222  6E3B               	movwf	Beep@frequency^0,c
 11091  005224  0E00               	movlw	0
 11092  005226  6E3E               	movwf	(Beep@duration+1)^0,c
 11093  005228  0E48               	movlw	72
 11094  00522A  6E3D               	movwf	Beep@duration^0,c
 11095  00522C  EC33  F034         	call	_Beep	;wreg free
 11096                           
 11097                           ;main.c: 1241:  sleep(484);
 11098  005230  0E00               	movlw	0
 11099  005232  6E03               	movwf	(sleep@ms+1)^0,c
 11100  005234  0E4A               	movlw	74
 11101  005236  6E02               	movwf	sleep@ms^0,c
 11102  005238  EC79  F037         	call	_sleep	;wreg free
 11103                           
 11104                           ;main.c: 1242:  Beep(61, 207);
 11105  00523C  0E05               	movlw	5
 11106  00523E  6E3C               	movwf	(Beep@frequency+1)^0,c
 11107  005240  0E26               	movlw	38
 11108  005242  6E3B               	movwf	Beep@frequency^0,c
 11109  005244  0E00               	movlw	0
 11110  005246  6E3E               	movwf	(Beep@duration+1)^0,c
 11111  005248  0E48               	movlw	72
 11112  00524A  6E3D               	movwf	Beep@duration^0,c
 11113  00524C  EC33  F034         	call	_Beep	;wreg free
 11114                           
 11115                           ;main.c: 1243:  sleep(22);
 11116  005250  0E00               	movlw	0
 11117  005252  6E03               	movwf	(sleep@ms+1)^0,c
 11118  005254  0E4A               	movlw	74
 11119  005256  6E02               	movwf	sleep@ms^0,c
 11120  005258  EC79  F037         	call	_sleep	;wreg free
 11121                           
 11122                           ;main.c: 1244:  Beep(1174, 207);
 11123  00525C  0E05               	movlw	5
 11124  00525E  6E3C               	movwf	(Beep@frequency+1)^0,c
 11125  005260  0EC7               	movlw	199
 11126  005262  6E3B               	movwf	Beep@frequency^0,c
 11127  005264  0E00               	movlw	0
 11128  005266  6E3E               	movwf	(Beep@duration+1)^0,c
 11129  005268  0E46               	movlw	70
 11130  00526A  6E3D               	movwf	Beep@duration^0,c
 11131  00526C  EC33  F034         	call	_Beep	;wreg free
 11132                           
 11133                           ;main.c: 1245:  sleep(484);
 11134  005270  0E00               	movlw	0
 11135  005272  6E03               	movwf	(sleep@ms+1)^0,c
 11136  005274  0E48               	movlw	72
 11137  005276  6E02               	movwf	sleep@ms^0,c
 11138  005278  EC79  F037         	call	_sleep	;wreg free
 11139                           
 11140                           ;main.c: 1246:  Beep(493, 56);
 11141  00527C  0E04               	movlw	4
 11142  00527E  6E3C               	movwf	(Beep@frequency+1)^0,c
 11143  005280  0E96               	movlw	150
 11144  005282  6E3B               	movwf	Beep@frequency^0,c
 11145  005284  0E00               	movlw	0
 11146  005286  6E3E               	movwf	(Beep@duration+1)^0,c
 11147  005288  0E46               	movlw	70
 11148  00528A  6E3D               	movwf	Beep@duration^0,c
 11149  00528C  EC33  F034         	call	_Beep	;wreg free
 11150                           
 11151                           ;main.c: 1247:  sleep(58);
 11152  005290  0E00               	movlw	0
 11153  005292  6E03               	movwf	(sleep@ms+1)^0,c
 11154  005294  0E48               	movlw	72
 11155  005296  6E02               	movwf	sleep@ms^0,c
 11156  005298  EC79  F037         	call	_sleep	;wreg free
 11157                           
 11158                           ;main.c: 1248:  Beep(554, 56);
 11159  00529C  0E05               	movlw	5
 11160  00529E  6E3C               	movwf	(Beep@frequency+1)^0,c
 11161  0052A0  0EC7               	movlw	199
 11162  0052A2  6E3B               	movwf	Beep@frequency^0,c
 11163  0052A4  0E00               	movlw	0
 11164  0052A6  6E3E               	movwf	(Beep@duration+1)^0,c
 11165  0052A8  0E44               	movlw	68
 11166  0052AA  6E3D               	movwf	Beep@duration^0,c
 11167  0052AC  EC33  F034         	call	_Beep	;wreg free
 11168                           
 11169                           ;main.c: 1249:  sleep(58);
 11170  0052B0  0E00               	movlw	0
 11171  0052B2  6E03               	movwf	(sleep@ms+1)^0,c
 11172  0052B4  0E46               	movlw	70
 11173  0052B6  6E02               	movwf	sleep@ms^0,c
 11174  0052B8  EC79  F037         	call	_sleep	;wreg free
 11175                           
 11176                           ;main.c: 1250:  Beep(587, 56);
 11177  0052BC  0E07               	movlw	7
 11178  0052BE  6E3C               	movwf	(Beep@frequency+1)^0,c
 11179  0052C0  0EB7               	movlw	183
 11180  0052C2  6E3B               	movwf	Beep@frequency^0,c
 11181  0052C4  0E00               	movlw	0
 11182  0052C6  6E3E               	movwf	(Beep@duration+1)^0,c
 11183  0052C8  0E44               	movlw	68
 11184  0052CA  6E3D               	movwf	Beep@duration^0,c
 11185  0052CC  EC33  F034         	call	_Beep	;wreg free
 11186                           
 11187                           ;main.c: 1251:  sleep(58);
 11188  0052D0  0E00               	movlw	0
 11189  0052D2  6E03               	movwf	(sleep@ms+1)^0,c
 11190  0052D4  0E46               	movlw	70
 11191  0052D6  6E02               	movwf	sleep@ms^0,c
 11192  0052D8  EC79  F037         	call	_sleep	;wreg free
 11193                           
 11194                           ;main.c: 1252:  Beep(659, 56);
 11195  0052DC  0E05               	movlw	5
 11196  0052DE  6E3C               	movwf	(Beep@frequency+1)^0,c
 11197  0052E0  0EC7               	movlw	199
 11198  0052E2  6E3B               	movwf	Beep@frequency^0,c
 11199  0052E4  0E00               	movlw	0
 11200  0052E6  6E3E               	movwf	(Beep@duration+1)^0,c
 11201  0052E8  0E43               	movlw	67
 11202  0052EA  6E3D               	movwf	Beep@duration^0,c
 11203  0052EC  EC33  F034         	call	_Beep	;wreg free
 11204                           
 11205                           ;main.c: 1253:  sleep(58);
 11206  0052F0  0E00               	movlw	0
 11207  0052F2  6E03               	movwf	(sleep@ms+1)^0,c
 11208  0052F4  0E45               	movlw	69
 11209  0052F6  6E02               	movwf	sleep@ms^0,c
 11210  0052F8  EC79  F037         	call	_sleep	;wreg free
 11211                           
 11212                           ;main.c: 1254:  Beep(739, 56);
 11213  0052FC  0E04               	movlw	4
 11214  0052FE  6E3C               	movwf	(Beep@frequency+1)^0,c
 11215  005300  0E96               	movlw	150
 11216  005302  6E3B               	movwf	Beep@frequency^0,c
 11217  005304  0E00               	movlw	0
 11218  005306  6E3E               	movwf	(Beep@duration+1)^0,c
 11219  005308  0E43               	movlw	67
 11220  00530A  6E3D               	movwf	Beep@duration^0,c
 11221  00530C  EC33  F034         	call	_Beep	;wreg free
 11222                           
 11223                           ;main.c: 1255:  sleep(58);
 11224  005310  0E00               	movlw	0
 11225  005312  6E03               	movwf	(sleep@ms+1)^0,c
 11226  005314  0E45               	movlw	69
 11227  005316  6E02               	movwf	sleep@ms^0,c
 11228  005318  EC79  F037         	call	_sleep	;wreg free
 11229                           
 11230                           ;main.c: 1256:  Beep(587, 56);
 11231  00531C  0E05               	movlw	5
 11232  00531E  6E3C               	movwf	(Beep@frequency+1)^0,c
 11233  005320  0EC7               	movlw	199
 11234  005322  6E3B               	movwf	Beep@frequency^0,c
 11235  005324  0E00               	movlw	0
 11236  005326  6E3E               	movwf	(Beep@duration+1)^0,c
 11237  005328  0E43               	movlw	67
 11238  00532A  6E3D               	movwf	Beep@duration^0,c
 11239  00532C  EC33  F034         	call	_Beep	;wreg free
 11240                           
 11241                           ;main.c: 1257:  sleep(58);
 11242  005330  0E00               	movlw	0
 11243  005332  6E03               	movwf	(sleep@ms+1)^0,c
 11244  005334  0E45               	movlw	69
 11245  005336  6E02               	movwf	sleep@ms^0,c
 11246  005338  EC79  F037         	call	_sleep	;wreg free
 11247                           
 11248                           ;main.c: 1258:  Beep(739, 56);
 11249  00533C  0E07               	movlw	7
 11250  00533E  6E3C               	movwf	(Beep@frequency+1)^0,c
 11251  005340  0EB7               	movlw	183
 11252  005342  6E3B               	movwf	Beep@frequency^0,c
 11253  005344  0E00               	movlw	0
 11254  005346  6E3E               	movwf	(Beep@duration+1)^0,c
 11255  005348  0E43               	movlw	67
 11256  00534A  6E3D               	movwf	Beep@duration^0,c
 11257  00534C  EC33  F034         	call	_Beep	;wreg free
 11258                           
 11259                           ;main.c: 1259:  sleep(58);
 11260  005350  0E00               	movlw	0
 11261  005352  6E03               	movwf	(sleep@ms+1)^0,c
 11262  005354  0E45               	movlw	69
 11263  005356  6E02               	movwf	sleep@ms^0,c
 11264  005358  EC79  F037         	call	_sleep	;wreg free
 11265                           
 11266                           ;main.c: 1260:  Beep(987, 56);
 11267  00535C  0E03               	movlw	3
 11268  00535E  6E3C               	movwf	(Beep@frequency+1)^0,c
 11269  005360  0EDB               	movlw	219
 11270  005362  6E3B               	movwf	Beep@frequency^0,c
 11271  005364  0E01               	movlw	1
 11272  005366  6E3E               	movwf	(Beep@duration+1)^0,c
 11273  005368  0EEA               	movlw	234
 11274  00536A  6E3D               	movwf	Beep@duration^0,c
 11275  00536C  EC33  F034         	call	_Beep	;wreg free
 11276                           
 11277                           ;main.c: 1261:  sleep(58);
 11278  005370  0E00               	movlw	0
 11279  005372  6E03               	movwf	(sleep@ms+1)^0,c
 11280  005374  0E35               	movlw	53
 11281  005376  6E02               	movwf	sleep@ms^0,c
 11282  005378  EC79  F037         	call	_sleep	;wreg free
 11283                           
 11284                           ;main.c: 1262:  Beep(932, 56);
 11285  00537C  0E00               	movlw	0
 11286  00537E  6E3C               	movwf	(Beep@frequency+1)^0,c
 11287  005380  0E3D               	movlw	61
 11288  005382  6E3B               	movwf	Beep@frequency^0,c
 11289  005384  0E00               	movlw	0
 11290  005386  6E3E               	movwf	(Beep@duration+1)^0,c
 11291  005388  0ECF               	movlw	207
 11292  00538A  6E3D               	movwf	Beep@duration^0,c
 11293  00538C  EC33  F034         	call	_Beep	;wreg free
 11294                           
 11295                           ;main.c: 1263:  sleep(58);
 11296  005390  0E00               	movlw	0
 11297  005392  6E03               	movwf	(sleep@ms+1)^0,c
 11298  005394  0E16               	movlw	22
 11299  005396  6E02               	movwf	sleep@ms^0,c
 11300  005398  EC79  F037         	call	_sleep	;wreg free
 11301                           
 11302                           ;main.c: 1264:  Beep(739, 56);
 11303  00539C  0E04               	movlw	4
 11304  00539E  6E3C               	movwf	(Beep@frequency+1)^0,c
 11305  0053A0  0E96               	movlw	150
 11306  0053A2  6E3B               	movwf	Beep@frequency^0,c
 11307  0053A4  0E00               	movlw	0
 11308  0053A6  6E3E               	movwf	(Beep@duration+1)^0,c
 11309  0053A8  0ECF               	movlw	207
 11310  0053AA  6E3D               	movwf	Beep@duration^0,c
 11311  0053AC  EC33  F034         	call	_Beep	;wreg free
 11312                           
 11313                           ;main.c: 1265:  sleep(58);
 11314  0053B0  0E01               	movlw	1
 11315  0053B2  6E03               	movwf	(sleep@ms+1)^0,c
 11316  0053B4  0EE4               	movlw	228
 11317  0053B6  6E02               	movwf	sleep@ms^0,c
 11318  0053B8  EC79  F037         	call	_sleep	;wreg free
 11319                           
 11320                           ;main.c: 1266:  Beep(932, 56);
 11321  0053BC  0E00               	movlw	0
 11322  0053BE  6E3C               	movwf	(Beep@frequency+1)^0,c
 11323  0053C0  0E3D               	movlw	61
 11324  0053C2  6E3B               	movwf	Beep@frequency^0,c
 11325  0053C4  0E00               	movlw	0
 11326  0053C6  6E3E               	movwf	(Beep@duration+1)^0,c
 11327  0053C8  0ECF               	movlw	207
 11328  0053CA  6E3D               	movwf	Beep@duration^0,c
 11329  0053CC  EC33  F034         	call	_Beep	;wreg free
 11330                           
 11331                           ;main.c: 1267:  sleep(58);
 11332  0053D0  0E00               	movlw	0
 11333  0053D2  6E03               	movwf	(sleep@ms+1)^0,c
 11334  0053D4  0E16               	movlw	22
 11335  0053D6  6E02               	movwf	sleep@ms^0,c
 11336  0053D8  EC79  F037         	call	_sleep	;wreg free
 11337                           
 11338                           ;main.c: 1268:  Beep(1108, 56);
 11339  0053DC  0E04               	movlw	4
 11340  0053DE  6E3C               	movwf	(Beep@frequency+1)^0,c
 11341  0053E0  0E96               	movlw	150
 11342  0053E2  6E3B               	movwf	Beep@frequency^0,c
 11343  0053E4  0E00               	movlw	0
 11344  0053E6  6E3E               	movwf	(Beep@duration+1)^0,c
 11345  0053E8  0ECF               	movlw	207
 11346  0053EA  6E3D               	movwf	Beep@duration^0,c
 11347  0053EC  EC33  F034         	call	_Beep	;wreg free
 11348                           
 11349                           ;main.c: 1269:  sleep(58);
 11350  0053F0  0E01               	movlw	1
 11351  0053F2  6E03               	movwf	(sleep@ms+1)^0,c
 11352  0053F4  0EE4               	movlw	228
 11353  0053F6  6E02               	movwf	sleep@ms^0,c
 11354  0053F8  EC79  F037         	call	_sleep	;wreg free
 11355                           
 11356                           ;main.c: 1270:  Beep(987, 415);
 11357  0053FC  0E01               	movlw	1
 11358  0053FE  6E3C               	movwf	(Beep@frequency+1)^0,c
 11359  005400  0EED               	movlw	237
 11360  005402  6E3B               	movwf	Beep@frequency^0,c
 11361  005404  0E00               	movlw	0
 11362  005406  6E3E               	movwf	(Beep@duration+1)^0,c
 11363  005408  0E38               	movlw	56
 11364  00540A  6E3D               	movwf	Beep@duration^0,c
 11365  00540C  EC33  F034         	call	_Beep	;wreg free
 11366                           
 11367                           ;main.c: 1271:  sleep(44);
 11368  005410  0E00               	movlw	0
 11369  005412  6E03               	movwf	(sleep@ms+1)^0,c
 11370  005414  0E3A               	movlw	58
 11371  005416  6E02               	movwf	sleep@ms^0,c
 11372  005418  EC79  F037         	call	_sleep	;wreg free
 11373                           
 11374                           ;main.c: 1272:  Beep(61, 207);
 11375  00541C  0E02               	movlw	2
 11376  00541E  6E3C               	movwf	(Beep@frequency+1)^0,c
 11377  005420  0E2A               	movlw	42
 11378  005422  6E3B               	movwf	Beep@frequency^0,c
 11379  005424  0E00               	movlw	0
 11380  005426  6E3E               	movwf	(Beep@duration+1)^0,c
 11381  005428  0E38               	movlw	56
 11382  00542A  6E3D               	movwf	Beep@duration^0,c
 11383  00542C  EC33  F034         	call	_Beep	;wreg free
 11384                           
 11385                           ;main.c: 1273:  sleep(22);
 11386  005430  0E00               	movlw	0
 11387  005432  6E03               	movwf	(sleep@ms+1)^0,c
 11388  005434  0E3A               	movlw	58
 11389  005436  6E02               	movwf	sleep@ms^0,c
 11390  005438  EC79  F037         	call	_sleep	;wreg free
 11391                           
 11392                           ;main.c: 1274:  Beep(1174, 207);
 11393  00543C  0E02               	movlw	2
 11394  00543E  6E3C               	movwf	(Beep@frequency+1)^0,c
 11395  005440  0E4B               	movlw	75
 11396  005442  6E3B               	movwf	Beep@frequency^0,c
 11397  005444  0E00               	movlw	0
 11398  005446  6E3E               	movwf	(Beep@duration+1)^0,c
 11399  005448  0E38               	movlw	56
 11400  00544A  6E3D               	movwf	Beep@duration^0,c
 11401  00544C  EC33  F034         	call	_Beep	;wreg free
 11402                           
 11403                           ;main.c: 1275:  sleep(484);
 11404  005450  0E00               	movlw	0
 11405  005452  6E03               	movwf	(sleep@ms+1)^0,c
 11406  005454  0E3A               	movlw	58
 11407  005456  6E02               	movwf	sleep@ms^0,c
 11408  005458  EC79  F037         	call	_sleep	;wreg free
 11409                           
 11410                           ;main.c: 1276:  Beep(61, 207);
 11411  00545C  0E02               	movlw	2
 11412  00545E  6E3C               	movwf	(Beep@frequency+1)^0,c
 11413  005460  0E93               	movlw	147
 11414  005462  6E3B               	movwf	Beep@frequency^0,c
 11415  005464  0E00               	movlw	0
 11416  005466  6E3E               	movwf	(Beep@duration+1)^0,c
 11417  005468  0E38               	movlw	56
 11418  00546A  6E3D               	movwf	Beep@duration^0,c
 11419  00546C  EC33  F034         	call	_Beep	;wreg free
 11420                           
 11421                           ;main.c: 1277:  sleep(22);
 11422  005470  0E00               	movlw	0
 11423  005472  6E03               	movwf	(sleep@ms+1)^0,c
 11424  005474  0E3A               	movlw	58
 11425  005476  6E02               	movwf	sleep@ms^0,c
 11426  005478  EC79  F037         	call	_sleep	;wreg free
 11427                           
 11428                           ;main.c: 1278:  Beep(1174, 207);
 11429  00547C  0E02               	movlw	2
 11430  00547E  6E3C               	movwf	(Beep@frequency+1)^0,c
 11431  005480  0EE3               	movlw	227
 11432  005482  6E3B               	movwf	Beep@frequency^0,c
 11433  005484  0E00               	movlw	0
 11434  005486  6E3E               	movwf	(Beep@duration+1)^0,c
 11435  005488  0E38               	movlw	56
 11436  00548A  6E3D               	movwf	Beep@duration^0,c
 11437  00548C  EC33  F034         	call	_Beep	;wreg free
 11438                           
 11439                           ;main.c: 1279:  sleep(484);
 11440  005490  0E00               	movlw	0
 11441  005492  6E03               	movwf	(sleep@ms+1)^0,c
 11442  005494  0E3A               	movlw	58
 11443  005496  6E02               	movwf	sleep@ms^0,c
 11444  005498  EC79  F037         	call	_sleep	;wreg free
 11445                           
 11446                           ;main.c: 1280:  Beep(987, 56);
 11447  00549C  0E02               	movlw	2
 11448  00549E  6E3C               	movwf	(Beep@frequency+1)^0,c
 11449  0054A0  0E4B               	movlw	75
 11450  0054A2  6E3B               	movwf	Beep@frequency^0,c
 11451  0054A4  0E00               	movlw	0
 11452  0054A6  6E3E               	movwf	(Beep@duration+1)^0,c
 11453  0054A8  0E38               	movlw	56
 11454  0054AA  6E3D               	movwf	Beep@duration^0,c
 11455  0054AC  EC33  F034         	call	_Beep	;wreg free
 11456                           
 11457                           ;main.c: 1281:  sleep(58);
 11458  0054B0  0E00               	movlw	0
 11459  0054B2  6E03               	movwf	(sleep@ms+1)^0,c
 11460  0054B4  0E3A               	movlw	58
 11461  0054B6  6E02               	movwf	sleep@ms^0,c
 11462  0054B8  EC79  F037         	call	_sleep	;wreg free
 11463                           
 11464                           ;main.c: 1282:  Beep(1108, 56);
 11465  0054BC  0E02               	movlw	2
 11466  0054BE  6E3C               	movwf	(Beep@frequency+1)^0,c
 11467  0054C0  0EE3               	movlw	227
 11468  0054C2  6E3B               	movwf	Beep@frequency^0,c
 11469  0054C4  0E00               	movlw	0
 11470  0054C6  6E3E               	movwf	(Beep@duration+1)^0,c
 11471  0054C8  0E38               	movlw	56
 11472  0054CA  6E3D               	movwf	Beep@duration^0,c
 11473  0054CC  EC33  F034         	call	_Beep	;wreg free
 11474                           
 11475                           ;main.c: 1283:  sleep(58);
 11476  0054D0  0E00               	movlw	0
 11477  0054D2  6E03               	movwf	(sleep@ms+1)^0,c
 11478  0054D4  0E3A               	movlw	58
 11479  0054D6  6E02               	movwf	sleep@ms^0,c
 11480  0054D8  EC79  F037         	call	_sleep	;wreg free
 11481                           
 11482                           ;main.c: 1284:  Beep(1174, 56);
 11483  0054DC  0E03               	movlw	3
 11484  0054DE  6E3C               	movwf	(Beep@frequency+1)^0,c
 11485  0054E0  0EDB               	movlw	219
 11486  0054E2  6E3B               	movwf	Beep@frequency^0,c
 11487  0054E4  0E00               	movlw	0
 11488  0054E6  6E3E               	movwf	(Beep@duration+1)^0,c
 11489  0054E8  0E38               	movlw	56
 11490  0054EA  6E3D               	movwf	Beep@duration^0,c
 11491  0054EC  EC33  F034         	call	_Beep	;wreg free
 11492                           
 11493                           ;main.c: 1285:  sleep(58);
 11494  0054F0  0E00               	movlw	0
 11495  0054F2  6E03               	movwf	(sleep@ms+1)^0,c
 11496  0054F4  0E3A               	movlw	58
 11497  0054F6  6E02               	movwf	sleep@ms^0,c
 11498  0054F8  EC79  F037         	call	_sleep	;wreg free
 11499                           
 11500                           ;main.c: 1286:  Beep(1318, 56);
 11501  0054FC  0E03               	movlw	3
 11502  0054FE  6E3C               	movwf	(Beep@frequency+1)^0,c
 11503  005500  0EA4               	movlw	164
 11504  005502  6E3B               	movwf	Beep@frequency^0,c
 11505  005504  0E00               	movlw	0
 11506  005506  6E3E               	movwf	(Beep@duration+1)^0,c
 11507  005508  0E38               	movlw	56
 11508  00550A  6E3D               	movwf	Beep@duration^0,c
 11509  00550C  EC33  F034         	call	_Beep	;wreg free
 11510                           
 11511                           ;main.c: 1287:  sleep(58);
 11512  005510  0E00               	movlw	0
 11513  005512  6E03               	movwf	(sleep@ms+1)^0,c
 11514  005514  0E3A               	movlw	58
 11515  005516  6E02               	movwf	sleep@ms^0,c
 11516  005518  EC79  F037         	call	_sleep	;wreg free
 11517                           
 11518                           ;main.c: 1288:  Beep(1479, 56);
 11519  00551C  0E02               	movlw	2
 11520  00551E  6E3C               	movwf	(Beep@frequency+1)^0,c
 11521  005520  0EE3               	movlw	227
 11522  005522  6E3B               	movwf	Beep@frequency^0,c
 11523  005524  0E00               	movlw	0
 11524  005526  6E3E               	movwf	(Beep@duration+1)^0,c
 11525  005528  0E38               	movlw	56
 11526  00552A  6E3D               	movwf	Beep@duration^0,c
 11527  00552C  EC33  F034         	call	_Beep	;wreg free
 11528                           
 11529                           ;main.c: 1289:  sleep(58);
 11530  005530  0E00               	movlw	0
 11531  005532  6E03               	movwf	(sleep@ms+1)^0,c
 11532  005534  0E3A               	movlw	58
 11533  005536  6E02               	movwf	sleep@ms^0,c
 11534  005538  EC79  F037         	call	_sleep	;wreg free
 11535                           
 11536                           ;main.c: 1290:  Beep(1174, 56);
 11537  00553C  0E03               	movlw	3
 11538  00553E  6E3C               	movwf	(Beep@frequency+1)^0,c
 11539  005540  0EA4               	movlw	164
 11540  005542  6E3B               	movwf	Beep@frequency^0,c
 11541  005544  0E00               	movlw	0
 11542  005546  6E3E               	movwf	(Beep@duration+1)^0,c
 11543  005548  0E38               	movlw	56
 11544  00554A  6E3D               	movwf	Beep@duration^0,c
 11545  00554C  EC33  F034         	call	_Beep	;wreg free
 11546                           
 11547                           ;main.c: 1291:  sleep(58);
 11548  005550  0E00               	movlw	0
 11549  005552  6E03               	movwf	(sleep@ms+1)^0,c
 11550  005554  0E3A               	movlw	58
 11551  005556  6E02               	movwf	sleep@ms^0,c
 11552  005558  EC79  F037         	call	_sleep	;wreg free
 11553                           
 11554                           ;main.c: 1292:  Beep(1479, 56);
 11555  00555C  0E04               	movlw	4
 11556  00555E  6E3C               	movwf	(Beep@frequency+1)^0,c
 11557  005560  0E54               	movlw	84
 11558  005562  6E3B               	movwf	Beep@frequency^0,c
 11559  005564  0E00               	movlw	0
 11560  005566  6E3E               	movwf	(Beep@duration+1)^0,c
 11561  005568  0E38               	movlw	56
 11562  00556A  6E3D               	movwf	Beep@duration^0,c
 11563  00556C  EC33  F034         	call	_Beep	;wreg free
 11564                           
 11565                           ;main.c: 1293:  sleep(58);
 11566  005570  0E00               	movlw	0
 11567  005572  6E03               	movwf	(sleep@ms+1)^0,c
 11568  005574  0E3A               	movlw	58
 11569  005576  6E02               	movwf	sleep@ms^0,c
 11570  005578  EC79  F037         	call	_sleep	;wreg free
 11571                           
 11572                           ;main.c: 1294:  Beep(1975, 56);
 11573  00557C  0E03               	movlw	3
 11574  00557E  6E3C               	movwf	(Beep@frequency+1)^0,c
 11575  005580  0EDB               	movlw	219
 11576  005582  6E3B               	movwf	Beep@frequency^0,c
 11577  005584  0E01               	movlw	1
 11578  005586  6E3E               	movwf	(Beep@duration+1)^0,c
 11579  005588  0E9F               	movlw	159
 11580  00558A  6E3D               	movwf	Beep@duration^0,c
 11581  00558C  EC33  F034         	call	_Beep	;wreg free
 11582                           
 11583                           ;main.c: 1295:  sleep(58);
 11584  005590  0E00               	movlw	0
 11585  005592  6E03               	movwf	(sleep@ms+1)^0,c
 11586  005594  0E2C               	movlw	44
 11587  005596  6E02               	movwf	sleep@ms^0,c
 11588  005598  EC79  F037         	call	_sleep	;wreg free
 11589                           
 11590                           ;main.c: 1296:  Beep(1864, 56);
 11591  00559C  0E00               	movlw	0
 11592  00559E  6E3C               	movwf	(Beep@frequency+1)^0,c
 11593  0055A0  0E3D               	movlw	61
 11594  0055A2  6E3B               	movwf	Beep@frequency^0,c
 11595  0055A4  0E00               	movlw	0
 11596  0055A6  6E3E               	movwf	(Beep@duration+1)^0,c
 11597  0055A8  0ECF               	movlw	207
 11598  0055AA  6E3D               	movwf	Beep@duration^0,c
 11599  0055AC  EC33  F034         	call	_Beep	;wreg free
 11600                           
 11601                           ;main.c: 1297:  sleep(58);
 11602  0055B0  0E00               	movlw	0
 11603  0055B2  6E03               	movwf	(sleep@ms+1)^0,c
 11604  0055B4  0E16               	movlw	22
 11605  0055B6  6E02               	movwf	sleep@ms^0,c
 11606  0055B8  EC79  F037         	call	_sleep	;wreg free
 11607                           
 11608                           ;main.c: 1298:  Beep(1479, 56);
 11609  0055BC  0E04               	movlw	4
 11610  0055BE  6E3C               	movwf	(Beep@frequency+1)^0,c
 11611  0055C0  0E96               	movlw	150
 11612  0055C2  6E3B               	movwf	Beep@frequency^0,c
 11613  0055C4  0E00               	movlw	0
 11614  0055C6  6E3E               	movwf	(Beep@duration+1)^0,c
 11615  0055C8  0ECF               	movlw	207
 11616  0055CA  6E3D               	movwf	Beep@duration^0,c
 11617  0055CC  EC33  F034         	call	_Beep	;wreg free
 11618                           
 11619                           ;main.c: 1299:  sleep(58);
 11620  0055D0  0E01               	movlw	1
 11621  0055D2  6E03               	movwf	(sleep@ms+1)^0,c
 11622  0055D4  0EE4               	movlw	228
 11623  0055D6  6E02               	movwf	sleep@ms^0,c
 11624  0055D8  EC79  F037         	call	_sleep	;wreg free
 11625                           
 11626                           ;main.c: 1300:  Beep(1864, 56);
 11627  0055DC  0E00               	movlw	0
 11628  0055DE  6E3C               	movwf	(Beep@frequency+1)^0,c
 11629  0055E0  0E3D               	movlw	61
 11630  0055E2  6E3B               	movwf	Beep@frequency^0,c
 11631  0055E4  0E00               	movlw	0
 11632  0055E6  6E3E               	movwf	(Beep@duration+1)^0,c
 11633  0055E8  0ECF               	movlw	207
 11634  0055EA  6E3D               	movwf	Beep@duration^0,c
 11635  0055EC  EC33  F034         	call	_Beep	;wreg free
 11636                           
 11637                           ;main.c: 1301:  sleep(58);
 11638  0055F0  0E00               	movlw	0
 11639  0055F2  6E03               	movwf	(sleep@ms+1)^0,c
 11640  0055F4  0E16               	movlw	22
 11641  0055F6  6E02               	movwf	sleep@ms^0,c
 11642  0055F8  EC79  F037         	call	_sleep	;wreg free
 11643                           
 11644                           ;main.c: 1302:  Beep(2217, 56);
 11645  0055FC  0E04               	movlw	4
 11646  0055FE  6E3C               	movwf	(Beep@frequency+1)^0,c
 11647  005600  0E96               	movlw	150
 11648  005602  6E3B               	movwf	Beep@frequency^0,c
 11649  005604  0E00               	movlw	0
 11650  005606  6E3E               	movwf	(Beep@duration+1)^0,c
 11651  005608  0ECF               	movlw	207
 11652  00560A  6E3D               	movwf	Beep@duration^0,c
 11653  00560C  EC33  F034         	call	_Beep	;wreg free
 11654                           
 11655                           ;main.c: 1303:  sleep(58);
 11656  005610  0E01               	movlw	1
 11657  005612  6E03               	movwf	(sleep@ms+1)^0,c
 11658  005614  0EE4               	movlw	228
 11659  005616  6E02               	movwf	sleep@ms^0,c
 11660  005618  EC79  F037         	call	_sleep	;wreg free
 11661                           
 11662                           ;main.c: 1304:  Beep(1975, 415);
 11663  00561C  0E03               	movlw	3
 11664  00561E  6E3C               	movwf	(Beep@frequency+1)^0,c
 11665  005620  0EDB               	movlw	219
 11666  005622  6E3B               	movwf	Beep@frequency^0,c
 11667  005624  0E00               	movlw	0
 11668  005626  6E3E               	movwf	(Beep@duration+1)^0,c
 11669  005628  0E38               	movlw	56
 11670  00562A  6E3D               	movwf	Beep@duration^0,c
 11671  00562C  EC33  F034         	call	_Beep	;wreg free
 11672                           
 11673                           ;main.c: 1305:  sleep(44);
 11674  005630  0E00               	movlw	0
 11675  005632  6E03               	movwf	(sleep@ms+1)^0,c
 11676  005634  0E3A               	movlw	58
 11677  005636  6E02               	movwf	sleep@ms^0,c
 11678  005638  EC79  F037         	call	_sleep	;wreg free
 11679                           
 11680                           ;main.c: 1306:  Beep(61, 207);
 11681  00563C  0E04               	movlw	4
 11682  00563E  6E3C               	movwf	(Beep@frequency+1)^0,c
 11683  005640  0E54               	movlw	84
 11684  005642  6E3B               	movwf	Beep@frequency^0,c
 11685  005644  0E00               	movlw	0
 11686  005646  6E3E               	movwf	(Beep@duration+1)^0,c
 11687  005648  0E38               	movlw	56
 11688  00564A  6E3D               	movwf	Beep@duration^0,c
 11689  00564C  EC33  F034         	call	_Beep	;wreg free
 11690                           
 11691                           ;main.c: 1307:  sleep(22);
 11692  005650  0E00               	movlw	0
 11693  005652  6E03               	movwf	(sleep@ms+1)^0,c
 11694  005654  0E3A               	movlw	58
 11695  005656  6E02               	movwf	sleep@ms^0,c
 11696  005658  EC79  F037         	call	_sleep	;wreg free
 11697                           
 11698                           ;main.c: 1308:  Beep(1174, 208);
 11699  00565C  0E04               	movlw	4
 11700  00565E  6E3C               	movwf	(Beep@frequency+1)^0,c
 11701  005660  0E96               	movlw	150
 11702  005662  6E3B               	movwf	Beep@frequency^0,c
 11703  005664  0E00               	movlw	0
 11704  005666  6E3E               	movwf	(Beep@duration+1)^0,c
 11705  005668  0E38               	movlw	56
 11706  00566A  6E3D               	movwf	Beep@duration^0,c
 11707  00566C  EC33  F034         	call	_Beep	;wreg free
 11708                           
 11709                           ;main.c: 1309:  sleep(484);
 11710  005670  0E00               	movlw	0
 11711  005672  6E03               	movwf	(sleep@ms+1)^0,c
 11712  005674  0E3A               	movlw	58
 11713  005676  6E02               	movwf	sleep@ms^0,c
 11714  005678  EC79  F037         	call	_sleep	;wreg free
 11715                           
 11716                           ;main.c: 1310:  Beep(61, 207);
 11717  00567C  0E05               	movlw	5
 11718  00567E  6E3C               	movwf	(Beep@frequency+1)^0,c
 11719  005680  0E26               	movlw	38
 11720  005682  6E3B               	movwf	Beep@frequency^0,c
 11721  005684  0E00               	movlw	0
 11722  005686  6E3E               	movwf	(Beep@duration+1)^0,c
 11723  005688  0E38               	movlw	56
 11724  00568A  6E3D               	movwf	Beep@duration^0,c
 11725  00568C  EC33  F034         	call	_Beep	;wreg free
 11726                           
 11727                           ;main.c: 1311:  sleep(22);
 11728  005690  0E00               	movlw	0
 11729  005692  6E03               	movwf	(sleep@ms+1)^0,c
 11730  005694  0E3A               	movlw	58
 11731  005696  6E02               	movwf	sleep@ms^0,c
 11732  005698  EC79  F037         	call	_sleep	;wreg free
 11733                           
 11734                           ;main.c: 1312:  Beep(1174, 207);
 11735  00569C  0E05               	movlw	5
 11736  00569E  6E3C               	movwf	(Beep@frequency+1)^0,c
 11737  0056A0  0EC7               	movlw	199
 11738  0056A2  6E3B               	movwf	Beep@frequency^0,c
 11739  0056A4  0E00               	movlw	0
 11740  0056A6  6E3E               	movwf	(Beep@duration+1)^0,c
 11741  0056A8  0E38               	movlw	56
 11742  0056AA  6E3D               	movwf	Beep@duration^0,c
 11743  0056AC  EC33  F034         	call	_Beep	;wreg free
 11744                           
 11745                           ;main.c: 1313:  sleep(484);
 11746  0056B0  0E00               	movlw	0
 11747  0056B2  6E03               	movwf	(sleep@ms+1)^0,c
 11748  0056B4  0E3A               	movlw	58
 11749  0056B6  6E02               	movwf	sleep@ms^0,c
 11750  0056B8  EC79  F037         	call	_sleep	;wreg free
 11751                           
 11752                           ;main.c: 1314:  Beep(61, 207);
 11753  0056BC  0E04               	movlw	4
 11754  0056BE  6E3C               	movwf	(Beep@frequency+1)^0,c
 11755  0056C0  0E96               	movlw	150
 11756  0056C2  6E3B               	movwf	Beep@frequency^0,c
 11757  0056C4  0E00               	movlw	0
 11758  0056C6  6E3E               	movwf	(Beep@duration+1)^0,c
 11759  0056C8  0E38               	movlw	56
 11760  0056CA  6E3D               	movwf	Beep@duration^0,c
 11761  0056CC  EC33  F034         	call	_Beep	;wreg free
 11762                           
 11763                           ;main.c: 1315:  sleep(22);
 11764  0056D0  0E00               	movlw	0
 11765  0056D2  6E03               	movwf	(sleep@ms+1)^0,c
 11766  0056D4  0E3A               	movlw	58
 11767  0056D6  6E02               	movwf	sleep@ms^0,c
 11768  0056D8  EC79  F037         	call	_sleep	;wreg free
 11769                           
 11770                           ;main.c: 1316:  Beep(1174, 206);
 11771  0056DC  0E05               	movlw	5
 11772  0056DE  6E3C               	movwf	(Beep@frequency+1)^0,c
 11773  0056E0  0EC7               	movlw	199
 11774  0056E2  6E3B               	movwf	Beep@frequency^0,c
 11775  0056E4  0E00               	movlw	0
 11776  0056E6  6E3E               	movwf	(Beep@duration+1)^0,c
 11777  0056E8  0E38               	movlw	56
 11778  0056EA  6E3D               	movwf	Beep@duration^0,c
 11779  0056EC  EC33  F034         	call	_Beep	;wreg free
 11780                           
 11781                           ;main.c: 1317:  sleep(22);
 11782  0056F0  0E00               	movlw	0
 11783  0056F2  6E03               	movwf	(sleep@ms+1)^0,c
 11784  0056F4  0E3A               	movlw	58
 11785  0056F6  6E02               	movwf	sleep@ms^0,c
 11786  0056F8  EC79  F037         	call	_sleep	;wreg free
 11787                           
 11788                           ;main.c: 1318:  Beep(1174, 206);
 11789  0056FC  0E07               	movlw	7
 11790  0056FE  6E3C               	movwf	(Beep@frequency+1)^0,c
 11791  005700  0EB7               	movlw	183
 11792  005702  6E3B               	movwf	Beep@frequency^0,c
 11793  005704  0E00               	movlw	0
 11794  005706  6E3E               	movwf	(Beep@duration+1)^0,c
 11795  005708  0E38               	movlw	56
 11796  00570A  6E3D               	movwf	Beep@duration^0,c
 11797  00570C  EC33  F034         	call	_Beep	;wreg free
 11798                           
 11799                           ;main.c: 1319:  sleep(22);
 11800  005710  0E00               	movlw	0
 11801  005712  6E03               	movwf	(sleep@ms+1)^0,c
 11802  005714  0E3A               	movlw	58
 11803  005716  6E02               	movwf	sleep@ms^0,c
 11804  005718  EC79  F037         	call	_sleep	;wreg free
 11805                           
 11806                           ;main.c: 1320:  Beep(1174, 207);
 11807  00571C  0E07               	movlw	7
 11808  00571E  6E3C               	movwf	(Beep@frequency+1)^0,c
 11809  005720  0E48               	movlw	72
 11810  005722  6E3B               	movwf	Beep@frequency^0,c
 11811  005724  0E00               	movlw	0
 11812  005726  6E3E               	movwf	(Beep@duration+1)^0,c
 11813  005728  0E38               	movlw	56
 11814  00572A  6E3D               	movwf	Beep@duration^0,c
 11815  00572C  EC33  F034         	call	_Beep	;wreg free
 11816                           
 11817                           ;main.c: 1321:  sleep(22);
 11818  005730  0E00               	movlw	0
 11819  005732  6E03               	movwf	(sleep@ms+1)^0,c
 11820  005734  0E3A               	movlw	58
 11821  005736  6E02               	movwf	sleep@ms^0,c
 11822  005738  EC79  F037         	call	_sleep	;wreg free
 11823                           
 11824                           ;main.c: 1322:  Beep(1661, 41);
 11825  00573C  0E05               	movlw	5
 11826  00573E  6E3C               	movwf	(Beep@frequency+1)^0,c
 11827  005740  0EC7               	movlw	199
 11828  005742  6E3B               	movwf	Beep@frequency^0,c
 11829  005744  0E00               	movlw	0
 11830  005746  6E3E               	movwf	(Beep@duration+1)^0,c
 11831  005748  0E38               	movlw	56
 11832  00574A  6E3D               	movwf	Beep@duration^0,c
 11833  00574C  EC33  F034         	call	_Beep	;wreg free
 11834                           
 11835                           ;main.c: 1323:  Beep(1760, 68);
 11836  005750  0E00               	movlw	0
 11837  005752  6E03               	movwf	(sleep@ms+1)^0,c
 11838  005754  0E3A               	movlw	58
 11839  005756  6E02               	movwf	sleep@ms^0,c
 11840  005758  EC79  F037         	call	_sleep	;wreg free
 11841                           
 11842                           ;main.c: 1324:  Beep(1864, 39);
 11843  00575C  0E07               	movlw	7
 11844  00575E  6E3C               	movwf	(Beep@frequency+1)^0,c
 11845  005760  0E48               	movlw	72
 11846  005762  6E3B               	movwf	Beep@frequency^0,c
 11847  005764  0E00               	movlw	0
 11848  005766  6E3E               	movwf	(Beep@duration+1)^0,c
 11849  005768  0E38               	movlw	56
 11850  00576A  6E3D               	movwf	Beep@duration^0,c
 11851  00576C  EC33  F034         	call	_Beep	;wreg free
 11852                           
 11853                           ;main.c: 1325:  Beep(1174, 56);
 11854  005770  0E00               	movlw	0
 11855  005772  6E03               	movwf	(sleep@ms+1)^0,c
 11856  005774  0E3A               	movlw	58
 11857  005776  6E02               	movwf	sleep@ms^0,c
 11858  005778  EC79  F037         	call	_sleep	;wreg free
 11859                           
 11860                           ;main.c: 1326:  sleep(22);
 11861  00577C  0E08               	movlw	8
 11862  00577E  6E3C               	movwf	(Beep@frequency+1)^0,c
 11863  005780  0EA9               	movlw	169
 11864  005782  6E3B               	movwf	Beep@frequency^0,c
 11865  005784  0E00               	movlw	0
 11866  005786  6E3E               	movwf	(Beep@duration+1)^0,c
 11867  005788  0E38               	movlw	56
 11868  00578A  6E3D               	movwf	Beep@duration^0,c
 11869  00578C  EC33  F034         	call	_Beep	;wreg free
 11870                           
 11871                           ;main.c: 1327:  Beep(1174, 206);
 11872  005790  0E00               	movlw	0
 11873  005792  6E03               	movwf	(sleep@ms+1)^0,c
 11874  005794  0E3A               	movlw	58
 11875  005796  6E02               	movwf	sleep@ms^0,c
 11876  005798  EC79  F037         	call	_sleep	;wreg free
 11877                           
 11878                           ;main.c: 1328:  sleep(22);
 11879  00579C  0E07               	movlw	7
 11880  00579E  6E3C               	movwf	(Beep@frequency+1)^0,c
 11881  0057A0  0EB7               	movlw	183
 11882  0057A2  6E3B               	movwf	Beep@frequency^0,c
 11883  0057A4  0E01               	movlw	1
 11884  0057A6  6E3E               	movwf	(Beep@duration+1)^0,c
 11885  0057A8  0E9F               	movlw	159
 11886  0057AA  6E3D               	movwf	Beep@duration^0,c
 11887  0057AC  EC33  F034         	call	_Beep	;wreg free
 11888                           
 11889                           ;main.c: 1329:  Beep(1174, 206);
 11890  0057B0  0E00               	movlw	0
 11891  0057B2  6E03               	movwf	(sleep@ms+1)^0,c
 11892  0057B4  0E2C               	movlw	44
 11893  0057B6  6E02               	movwf	sleep@ms^0,c
 11894  0057B8  EC79  F037         	call	_sleep	;wreg free
 11895                           
 11896                           ;main.c: 1330:  sleep(22);
 11897  0057BC  0E00               	movlw	0
 11898  0057BE  6E3C               	movwf	(Beep@frequency+1)^0,c
 11899  0057C0  0E3D               	movlw	61
 11900  0057C2  6E3B               	movwf	Beep@frequency^0,c
 11901  0057C4  0E00               	movlw	0
 11902  0057C6  6E3E               	movwf	(Beep@duration+1)^0,c
 11903  0057C8  0ECF               	movlw	207
 11904  0057CA  6E3D               	movwf	Beep@duration^0,c
 11905  0057CC  EC33  F034         	call	_Beep	;wreg free
 11906                           
 11907                           ;main.c: 1331:  Beep(1174, 207);
 11908  0057D0  0E00               	movlw	0
 11909  0057D2  6E03               	movwf	(sleep@ms+1)^0,c
 11910  0057D4  0E16               	movlw	22
 11911  0057D6  6E02               	movwf	sleep@ms^0,c
 11912  0057D8  EC79  F037         	call	_sleep	;wreg free
 11913                           
 11914                           ;main.c: 1332:  sleep(484);
 11915  0057DC  0E04               	movlw	4
 11916  0057DE  6E3C               	movwf	(Beep@frequency+1)^0,c
 11917  0057E0  0E96               	movlw	150
 11918  0057E2  6E3B               	movwf	Beep@frequency^0,c
 11919  0057E4  0E00               	movlw	0
 11920  0057E6  6E3E               	movwf	(Beep@duration+1)^0,c
 11921  0057E8  0ED0               	movlw	208
 11922  0057EA  6E3D               	movwf	Beep@duration^0,c
 11923  0057EC  EC33  F034         	call	_Beep	;wreg free
 11924                           
 11925                           ;main.c: 1333:  Beep(61, 52);
 11926  0057F0  0E01               	movlw	1
 11927  0057F2  6E03               	movwf	(sleep@ms+1)^0,c
 11928  0057F4  0EE4               	movlw	228
 11929  0057F6  6E02               	movwf	sleep@ms^0,c
 11930  0057F8  EC79  F037         	call	_sleep	;wreg free
 11931                           
 11932                           ;main.c: 1334:  sleep(5);
 11933  0057FC  0E00               	movlw	0
 11934  0057FE  6E3C               	movwf	(Beep@frequency+1)^0,c
 11935  005800  0E3D               	movlw	61
 11936  005802  6E3B               	movwf	Beep@frequency^0,c
 11937  005804  0E00               	movlw	0
 11938  005806  6E3E               	movwf	(Beep@duration+1)^0,c
 11939  005808  0ECF               	movlw	207
 11940  00580A  6E3D               	movwf	Beep@duration^0,c
 11941  00580C  EC33  F034         	call	_Beep	;wreg free
 11942                           
 11943                           ;main.c: 1335:  Beep(123, 52);
 11944  005810  0E00               	movlw	0
 11945  005812  6E03               	movwf	(sleep@ms+1)^0,c
 11946  005814  0E16               	movlw	22
 11947  005816  6E02               	movwf	sleep@ms^0,c
 11948  005818  EC79  F037         	call	_sleep	;wreg free
 11949                           
 11950                           ;main.c: 1336:  sleep(5);
 11951  00581C  0E04               	movlw	4
 11952  00581E  6E3C               	movwf	(Beep@frequency+1)^0,c
 11953  005820  0E96               	movlw	150
 11954  005822  6E3B               	movwf	Beep@frequency^0,c
 11955  005824  0E00               	movlw	0
 11956  005826  6E3E               	movwf	(Beep@duration+1)^0,c
 11957  005828  0ECF               	movlw	207
 11958  00582A  6E3D               	movwf	Beep@duration^0,c
 11959  00582C  EC33  F034         	call	_Beep	;wreg free
 11960                           
 11961                           ;main.c: 1337:  Beep(61, 52);
 11962  005830  0E01               	movlw	1
 11963  005832  6E03               	movwf	(sleep@ms+1)^0,c
 11964  005834  0EE4               	movlw	228
 11965  005836  6E02               	movwf	sleep@ms^0,c
 11966  005838  EC79  F037         	call	_sleep	;wreg free
 11967                           
 11968                           ;main.c: 1338:  sleep(5);
 11969  00583C  0E00               	movlw	0
 11970  00583E  6E3C               	movwf	(Beep@frequency+1)^0,c
 11971  005840  0E3D               	movlw	61
 11972  005842  6E3B               	movwf	Beep@frequency^0,c
 11973  005844  0E00               	movlw	0
 11974  005846  6E3E               	movwf	(Beep@duration+1)^0,c
 11975  005848  0ECF               	movlw	207
 11976  00584A  6E3D               	movwf	Beep@duration^0,c
 11977  00584C  EC33  F034         	call	_Beep	;wreg free
 11978                           
 11979                           ;main.c: 1339:  Beep(123, 52);
 11980  005850  0E00               	movlw	0
 11981  005852  6E03               	movwf	(sleep@ms+1)^0,c
 11982  005854  0E16               	movlw	22
 11983  005856  6E02               	movwf	sleep@ms^0,c
 11984  005858  EC79  F037         	call	_sleep	;wreg free
 11985                           
 11986                           ;main.c: 1340:  sleep(5);
 11987  00585C  0E04               	movlw	4
 11988  00585E  6E3C               	movwf	(Beep@frequency+1)^0,c
 11989  005860  0E96               	movlw	150
 11990  005862  6E3B               	movwf	Beep@frequency^0,c
 11991  005864  0E00               	movlw	0
 11992  005866  6E3E               	movwf	(Beep@duration+1)^0,c
 11993  005868  0ECE               	movlw	206
 11994  00586A  6E3D               	movwf	Beep@duration^0,c
 11995  00586C  EC33  F034         	call	_Beep	;wreg free
 11996                           
 11997                           ;main.c: 1341:  Beep(61, 52);
 11998  005870  0E00               	movlw	0
 11999  005872  6E03               	movwf	(sleep@ms+1)^0,c
 12000  005874  0E16               	movlw	22
 12001  005876  6E02               	movwf	sleep@ms^0,c
 12002  005878  EC79  F037         	call	_sleep	;wreg free
 12003                           
 12004                           ;main.c: 1342:  sleep(5);
 12005  00587C  0E04               	movlw	4
 12006  00587E  6E3C               	movwf	(Beep@frequency+1)^0,c
 12007  005880  0E96               	movlw	150
 12008  005882  6E3B               	movwf	Beep@frequency^0,c
 12009  005884  0E00               	movlw	0
 12010  005886  6E3E               	movwf	(Beep@duration+1)^0,c
 12011  005888  0ECE               	movlw	206
 12012  00588A  6E3D               	movwf	Beep@duration^0,c
 12013  00588C  EC33  F034         	call	_Beep	;wreg free
 12014                           
 12015                           ;main.c: 1343:  Beep(123, 52);
 12016  005890  0E00               	movlw	0
 12017  005892  6E03               	movwf	(sleep@ms+1)^0,c
 12018  005894  0E16               	movlw	22
 12019  005896  6E02               	movwf	sleep@ms^0,c
 12020  005898  EC79  F037         	call	_sleep	;wreg free
 12021                           
 12022                           ;main.c: 1344:  sleep(5);
 12023  00589C  0E04               	movlw	4
 12024  00589E  6E3C               	movwf	(Beep@frequency+1)^0,c
 12025  0058A0  0E96               	movlw	150
 12026  0058A2  6E3B               	movwf	Beep@frequency^0,c
 12027  0058A4  0E00               	movlw	0
 12028  0058A6  6E3E               	movwf	(Beep@duration+1)^0,c
 12029  0058A8  0ECF               	movlw	207
 12030  0058AA  6E3D               	movwf	Beep@duration^0,c
 12031  0058AC  EC33  F034         	call	_Beep	;wreg free
 12032                           
 12033                           ;main.c: 1345:  Beep(61, 52);
 12034  0058B0  0E00               	movlw	0
 12035  0058B2  6E03               	movwf	(sleep@ms+1)^0,c
 12036  0058B4  0E16               	movlw	22
 12037  0058B6  6E02               	movwf	sleep@ms^0,c
 12038  0058B8  EC79  F037         	call	_sleep	;wreg free
 12039                           
 12040                           ;main.c: 1346:  sleep(5);
 12041  0058BC  0E06               	movlw	6
 12042  0058BE  6E3C               	movwf	(Beep@frequency+1)^0,c
 12043  0058C0  0E7D               	movlw	125
 12044  0058C2  6E3B               	movwf	Beep@frequency^0,c
 12045  0058C4  0E00               	movlw	0
 12046  0058C6  6E3E               	movwf	(Beep@duration+1)^0,c
 12047  0058C8  0E29               	movlw	41
 12048  0058CA  6E3D               	movwf	Beep@duration^0,c
 12049  0058CC  EC33  F034         	call	_Beep	;wreg free
 12050                           
 12051                           ;main.c: 1347:  Beep(123, 52);
 12052  0058D0  0E06               	movlw	6
 12053  0058D2  6E3C               	movwf	(Beep@frequency+1)^0,c
 12054  0058D4  0EE0               	movlw	224
 12055  0058D6  6E3B               	movwf	Beep@frequency^0,c
 12056  0058D8  0E00               	movlw	0
 12057  0058DA  6E3E               	movwf	(Beep@duration+1)^0,c
 12058  0058DC  0E44               	movlw	68
 12059  0058DE  6E3D               	movwf	Beep@duration^0,c
 12060  0058E0  EC33  F034         	call	_Beep	;wreg free
 12061                           
 12062                           ;main.c: 1348:  sleep(5);
 12063  0058E4  0E07               	movlw	7
 12064  0058E6  6E3C               	movwf	(Beep@frequency+1)^0,c
 12065  0058E8  0E48               	movlw	72
 12066  0058EA  6E3B               	movwf	Beep@frequency^0,c
 12067  0058EC  0E00               	movlw	0
 12068  0058EE  6E3E               	movwf	(Beep@duration+1)^0,c
 12069  0058F0  0E27               	movlw	39
 12070  0058F2  6E3D               	movwf	Beep@duration^0,c
 12071  0058F4  EC33  F034         	call	_Beep	;wreg free
 12072                           
 12073                           ;main.c: 1349:  Beep(61, 52);
 12074  0058F8  0E04               	movlw	4
 12075  0058FA  6E3C               	movwf	(Beep@frequency+1)^0,c
 12076  0058FC  0E96               	movlw	150
 12077  0058FE  6E3B               	movwf	Beep@frequency^0,c
 12078  005900  0E00               	movlw	0
 12079  005902  6E3E               	movwf	(Beep@duration+1)^0,c
 12080  005904  0E38               	movlw	56
 12081  005906  6E3D               	movwf	Beep@duration^0,c
 12082  005908  EC33  F034         	call	_Beep	;wreg free
 12083                           
 12084                           ;main.c: 1350:  sleep(5);
 12085  00590C  0E00               	movlw	0
 12086  00590E  6E03               	movwf	(sleep@ms+1)^0,c
 12087  005910  0E16               	movlw	22
 12088  005912  6E02               	movwf	sleep@ms^0,c
 12089  005914  EC79  F037         	call	_sleep	;wreg free
 12090                           
 12091                           ;main.c: 1351:  Beep(123, 52);
 12092  005918  0E04               	movlw	4
 12093  00591A  6E3C               	movwf	(Beep@frequency+1)^0,c
 12094  00591C  0E96               	movlw	150
 12095  00591E  6E3B               	movwf	Beep@frequency^0,c
 12096  005920  0E00               	movlw	0
 12097  005922  6E3E               	movwf	(Beep@duration+1)^0,c
 12098  005924  0ECE               	movlw	206
 12099  005926  6E3D               	movwf	Beep@duration^0,c
 12100  005928  EC33  F034         	call	_Beep	;wreg free
 12101                           
 12102                           ;main.c: 1352:  sleep(5);
 12103  00592C  0E00               	movlw	0
 12104  00592E  6E03               	movwf	(sleep@ms+1)^0,c
 12105  005930  0E16               	movlw	22
 12106  005932  6E02               	movwf	sleep@ms^0,c
 12107  005934  EC79  F037         	call	_sleep	;wreg free
 12108                           
 12109                           ;main.c: 1353:  Beep(61, 52);
 12110  005938  0E04               	movlw	4
 12111  00593A  6E3C               	movwf	(Beep@frequency+1)^0,c
 12112  00593C  0E96               	movlw	150
 12113  00593E  6E3B               	movwf	Beep@frequency^0,c
 12114  005940  0E00               	movlw	0
 12115  005942  6E3E               	movwf	(Beep@duration+1)^0,c
 12116  005944  0ECE               	movlw	206
 12117  005946  6E3D               	movwf	Beep@duration^0,c
 12118  005948  EC33  F034         	call	_Beep	;wreg free
 12119                           
 12120                           ;main.c: 1354:  sleep(5);
 12121  00594C  0E00               	movlw	0
 12122  00594E  6E03               	movwf	(sleep@ms+1)^0,c
 12123  005950  0E16               	movlw	22
 12124  005952  6E02               	movwf	sleep@ms^0,c
 12125  005954  EC79  F037         	call	_sleep	;wreg free
 12126                           
 12127                           ;main.c: 1355:  Beep(123, 52);
 12128  005958  0E04               	movlw	4
 12129  00595A  6E3C               	movwf	(Beep@frequency+1)^0,c
 12130  00595C  0E96               	movlw	150
 12131  00595E  6E3B               	movwf	Beep@frequency^0,c
 12132  005960  0E00               	movlw	0
 12133  005962  6E3E               	movwf	(Beep@duration+1)^0,c
 12134  005964  0ECF               	movlw	207
 12135  005966  6E3D               	movwf	Beep@duration^0,c
 12136  005968  EC33  F034         	call	_Beep	;wreg free
 12137                           
 12138                           ;main.c: 1356:  sleep(5);
 12139  00596C  0E01               	movlw	1
 12140  00596E  6E03               	movwf	(sleep@ms+1)^0,c
 12141  005970  0EE4               	movlw	228
 12142  005972  6E02               	movwf	sleep@ms^0,c
 12143  005974  EC79  F037         	call	_sleep	;wreg free
 12144                           
 12145                           ;main.c: 1357:  Beep(61, 52);
 12146  005978  0E00               	movlw	0
 12147  00597A  6E3C               	movwf	(Beep@frequency+1)^0,c
 12148  00597C  0E3D               	movlw	61
 12149  00597E  6E3B               	movwf	Beep@frequency^0,c
 12150  005980  0E00               	movlw	0
 12151  005982  6E3E               	movwf	(Beep@duration+1)^0,c
 12152  005984  0E34               	movlw	52
 12153  005986  6E3D               	movwf	Beep@duration^0,c
 12154  005988  EC33  F034         	call	_Beep	;wreg free
 12155                           
 12156                           ;main.c: 1358:  sleep(5);
 12157  00598C  0E00               	movlw	0
 12158  00598E  6E03               	movwf	(sleep@ms+1)^0,c
 12159  005990  0E05               	movlw	5
 12160  005992  6E02               	movwf	sleep@ms^0,c
 12161  005994  EC79  F037         	call	_sleep	;wreg free
 12162                           
 12163                           ;main.c: 1359:  Beep(123, 52);
 12164  005998  0E00               	movlw	0
 12165  00599A  6E3C               	movwf	(Beep@frequency+1)^0,c
 12166  00599C  0E7B               	movlw	123
 12167  00599E  6E3B               	movwf	Beep@frequency^0,c
 12168  0059A0  0E00               	movlw	0
 12169  0059A2  6E3E               	movwf	(Beep@duration+1)^0,c
 12170  0059A4  0E34               	movlw	52
 12171  0059A6  6E3D               	movwf	Beep@duration^0,c
 12172  0059A8  EC33  F034         	call	_Beep	;wreg free
 12173                           
 12174                           ;main.c: 1360:  sleep(5);
 12175  0059AC  0E00               	movlw	0
 12176  0059AE  6E03               	movwf	(sleep@ms+1)^0,c
 12177  0059B0  0E05               	movlw	5
 12178  0059B2  6E02               	movwf	sleep@ms^0,c
 12179  0059B4  EC79  F037         	call	_sleep	;wreg free
 12180                           
 12181                           ;main.c: 1361:  Beep(61, 52);
 12182  0059B8  0E00               	movlw	0
 12183  0059BA  6E3C               	movwf	(Beep@frequency+1)^0,c
 12184  0059BC  0E3D               	movlw	61
 12185  0059BE  6E3B               	movwf	Beep@frequency^0,c
 12186  0059C0  0E00               	movlw	0
 12187  0059C2  6E3E               	movwf	(Beep@duration+1)^0,c
 12188  0059C4  0E34               	movlw	52
 12189  0059C6  6E3D               	movwf	Beep@duration^0,c
 12190  0059C8  EC33  F034         	call	_Beep	;wreg free
 12191                           
 12192                           ;main.c: 1362:  sleep(5);
 12193  0059CC  0E00               	movlw	0
 12194  0059CE  6E03               	movwf	(sleep@ms+1)^0,c
 12195  0059D0  0E05               	movlw	5
 12196  0059D2  6E02               	movwf	sleep@ms^0,c
 12197  0059D4  EC79  F037         	call	_sleep	;wreg free
 12198                           
 12199                           ;main.c: 1363:  Beep(123, 52);
 12200  0059D8  0E00               	movlw	0
 12201  0059DA  6E3C               	movwf	(Beep@frequency+1)^0,c
 12202  0059DC  0E7B               	movlw	123
 12203  0059DE  6E3B               	movwf	Beep@frequency^0,c
 12204  0059E0  0E00               	movlw	0
 12205  0059E2  6E3E               	movwf	(Beep@duration+1)^0,c
 12206  0059E4  0E34               	movlw	52
 12207  0059E6  6E3D               	movwf	Beep@duration^0,c
 12208  0059E8  EC33  F034         	call	_Beep	;wreg free
 12209                           
 12210                           ;main.c: 1364:  sleep(5);
 12211  0059EC  0E00               	movlw	0
 12212  0059EE  6E03               	movwf	(sleep@ms+1)^0,c
 12213  0059F0  0E05               	movlw	5
 12214  0059F2  6E02               	movwf	sleep@ms^0,c
 12215  0059F4  EC79  F037         	call	_sleep	;wreg free
 12216                           
 12217                           ;main.c: 1365:  Beep(61, 52);
 12218  0059F8  0E00               	movlw	0
 12219  0059FA  6E3C               	movwf	(Beep@frequency+1)^0,c
 12220  0059FC  0E3D               	movlw	61
 12221  0059FE  6E3B               	movwf	Beep@frequency^0,c
 12222  005A00  0E00               	movlw	0
 12223  005A02  6E3E               	movwf	(Beep@duration+1)^0,c
 12224  005A04  0E34               	movlw	52
 12225  005A06  6E3D               	movwf	Beep@duration^0,c
 12226  005A08  EC33  F034         	call	_Beep	;wreg free
 12227                           
 12228                           ;main.c: 1366:  sleep(5);
 12229  005A0C  0E00               	movlw	0
 12230  005A0E  6E03               	movwf	(sleep@ms+1)^0,c
 12231  005A10  0E05               	movlw	5
 12232  005A12  6E02               	movwf	sleep@ms^0,c
 12233  005A14  EC79  F037         	call	_sleep	;wreg free
 12234                           
 12235                           ;main.c: 1367:  Beep(123, 52);
 12236  005A18  0E00               	movlw	0
 12237  005A1A  6E3C               	movwf	(Beep@frequency+1)^0,c
 12238  005A1C  0E7B               	movlw	123
 12239  005A1E  6E3B               	movwf	Beep@frequency^0,c
 12240  005A20  0E00               	movlw	0
 12241  005A22  6E3E               	movwf	(Beep@duration+1)^0,c
 12242  005A24  0E34               	movlw	52
 12243  005A26  6E3D               	movwf	Beep@duration^0,c
 12244  005A28  EC33  F034         	call	_Beep	;wreg free
 12245                           
 12246                           ;main.c: 1368:  sleep(5);
 12247  005A2C  0E00               	movlw	0
 12248  005A2E  6E03               	movwf	(sleep@ms+1)^0,c
 12249  005A30  0E05               	movlw	5
 12250  005A32  6E02               	movwf	sleep@ms^0,c
 12251  005A34  EC79  F037         	call	_sleep	;wreg free
 12252                           
 12253                           ;main.c: 1369:  Beep(61, 52);
 12254  005A38  0E00               	movlw	0
 12255  005A3A  6E3C               	movwf	(Beep@frequency+1)^0,c
 12256  005A3C  0E3D               	movlw	61
 12257  005A3E  6E3B               	movwf	Beep@frequency^0,c
 12258  005A40  0E00               	movlw	0
 12259  005A42  6E3E               	movwf	(Beep@duration+1)^0,c
 12260  005A44  0E34               	movlw	52
 12261  005A46  6E3D               	movwf	Beep@duration^0,c
 12262  005A48  EC33  F034         	call	_Beep	;wreg free
 12263                           
 12264                           ;main.c: 1370:  sleep(5);
 12265  005A4C  0E00               	movlw	0
 12266  005A4E  6E03               	movwf	(sleep@ms+1)^0,c
 12267  005A50  0E05               	movlw	5
 12268  005A52  6E02               	movwf	sleep@ms^0,c
 12269  005A54  EC79  F037         	call	_sleep	;wreg free
 12270                           
 12271                           ;main.c: 1371:  Beep(123, 52);
 12272  005A58  0E00               	movlw	0
 12273  005A5A  6E3C               	movwf	(Beep@frequency+1)^0,c
 12274  005A5C  0E7B               	movlw	123
 12275  005A5E  6E3B               	movwf	Beep@frequency^0,c
 12276  005A60  0E00               	movlw	0
 12277  005A62  6E3E               	movwf	(Beep@duration+1)^0,c
 12278  005A64  0E34               	movlw	52
 12279  005A66  6E3D               	movwf	Beep@duration^0,c
 12280  005A68  EC33  F034         	call	_Beep	;wreg free
 12281                           
 12282                           ;main.c: 1372:  sleep(5);
 12283  005A6C  0E00               	movlw	0
 12284  005A6E  6E03               	movwf	(sleep@ms+1)^0,c
 12285  005A70  0E05               	movlw	5
 12286  005A72  6E02               	movwf	sleep@ms^0,c
 12287  005A74  EC79  F037         	call	_sleep	;wreg free
 12288                           
 12289                           ;main.c: 1373:  Beep(61, 52);
 12290  005A78  0E00               	movlw	0
 12291  005A7A  6E3C               	movwf	(Beep@frequency+1)^0,c
 12292  005A7C  0E3D               	movlw	61
 12293  005A7E  6E3B               	movwf	Beep@frequency^0,c
 12294  005A80  0E00               	movlw	0
 12295  005A82  6E3E               	movwf	(Beep@duration+1)^0,c
 12296  005A84  0E34               	movlw	52
 12297  005A86  6E3D               	movwf	Beep@duration^0,c
 12298  005A88  EC33  F034         	call	_Beep	;wreg free
 12299                           
 12300                           ;main.c: 1374:  sleep(5);
 12301  005A8C  0E00               	movlw	0
 12302  005A8E  6E03               	movwf	(sleep@ms+1)^0,c
 12303  005A90  0E05               	movlw	5
 12304  005A92  6E02               	movwf	sleep@ms^0,c
 12305  005A94  EC79  F037         	call	_sleep	;wreg free
 12306                           
 12307                           ;main.c: 1375:  Beep(123, 52);
 12308  005A98  0E00               	movlw	0
 12309  005A9A  6E3C               	movwf	(Beep@frequency+1)^0,c
 12310  005A9C  0E7B               	movlw	123
 12311  005A9E  6E3B               	movwf	Beep@frequency^0,c
 12312  005AA0  0E00               	movlw	0
 12313  005AA2  6E3E               	movwf	(Beep@duration+1)^0,c
 12314  005AA4  0E34               	movlw	52
 12315  005AA6  6E3D               	movwf	Beep@duration^0,c
 12316  005AA8  EC33  F034         	call	_Beep	;wreg free
 12317                           
 12318                           ;main.c: 1376:  sleep(5);
 12319  005AAC  0E00               	movlw	0
 12320  005AAE  6E03               	movwf	(sleep@ms+1)^0,c
 12321  005AB0  0E05               	movlw	5
 12322  005AB2  6E02               	movwf	sleep@ms^0,c
 12323  005AB4  EC79  F037         	call	_sleep	;wreg free
 12324                           
 12325                           ;main.c: 1377:  Beep(61, 52);
 12326  005AB8  0E00               	movlw	0
 12327  005ABA  6E3C               	movwf	(Beep@frequency+1)^0,c
 12328  005ABC  0E3D               	movlw	61
 12329  005ABE  6E3B               	movwf	Beep@frequency^0,c
 12330  005AC0  0E00               	movlw	0
 12331  005AC2  6E3E               	movwf	(Beep@duration+1)^0,c
 12332  005AC4  0E34               	movlw	52
 12333  005AC6  6E3D               	movwf	Beep@duration^0,c
 12334  005AC8  EC33  F034         	call	_Beep	;wreg free
 12335                           
 12336                           ;main.c: 1378:  sleep(5);
 12337  005ACC  0E00               	movlw	0
 12338  005ACE  6E03               	movwf	(sleep@ms+1)^0,c
 12339  005AD0  0E05               	movlw	5
 12340  005AD2  6E02               	movwf	sleep@ms^0,c
 12341  005AD4  EC79  F037         	call	_sleep	;wreg free
 12342                           
 12343                           ;main.c: 1379:  Beep(123, 52);
 12344  005AD8  0E00               	movlw	0
 12345  005ADA  6E3C               	movwf	(Beep@frequency+1)^0,c
 12346  005ADC  0E7B               	movlw	123
 12347  005ADE  6E3B               	movwf	Beep@frequency^0,c
 12348  005AE0  0E00               	movlw	0
 12349  005AE2  6E3E               	movwf	(Beep@duration+1)^0,c
 12350  005AE4  0E34               	movlw	52
 12351  005AE6  6E3D               	movwf	Beep@duration^0,c
 12352  005AE8  EC33  F034         	call	_Beep	;wreg free
 12353                           
 12354                           ;main.c: 1380:  sleep(5);
 12355  005AEC  0E00               	movlw	0
 12356  005AEE  6E03               	movwf	(sleep@ms+1)^0,c
 12357  005AF0  0E05               	movlw	5
 12358  005AF2  6E02               	movwf	sleep@ms^0,c
 12359  005AF4  EC79  F037         	call	_sleep	;wreg free
 12360                           
 12361                           ;main.c: 1381:  Beep(30, 207);
 12362  005AF8  0E00               	movlw	0
 12363  005AFA  6E3C               	movwf	(Beep@frequency+1)^0,c
 12364  005AFC  0E3D               	movlw	61
 12365  005AFE  6E3B               	movwf	Beep@frequency^0,c
 12366  005B00  0E00               	movlw	0
 12367  005B02  6E3E               	movwf	(Beep@duration+1)^0,c
 12368  005B04  0E34               	movlw	52
 12369  005B06  6E3D               	movwf	Beep@duration^0,c
 12370  005B08  EC33  F034         	call	_Beep	;wreg free
 12371                           
 12372                           ;main.c: 1382:  sleep(22);
 12373  005B0C  0E00               	movlw	0
 12374  005B0E  6E03               	movwf	(sleep@ms+1)^0,c
 12375  005B10  0E05               	movlw	5
 12376  005B12  6E02               	movwf	sleep@ms^0,c
 12377  005B14  EC79  F037         	call	_sleep	;wreg free
 12378                           
 12379                           ;main.c: 1383:  Beep(1174, 207);
 12380  005B18  0E00               	movlw	0
 12381  005B1A  6E3C               	movwf	(Beep@frequency+1)^0,c
 12382  005B1C  0E7B               	movlw	123
 12383  005B1E  6E3B               	movwf	Beep@frequency^0,c
 12384  005B20  0E00               	movlw	0
 12385  005B22  6E3E               	movwf	(Beep@duration+1)^0,c
 12386  005B24  0E34               	movlw	52
 12387  005B26  6E3D               	movwf	Beep@duration^0,c
 12388  005B28  EC33  F034         	call	_Beep	;wreg free
 12389                           
 12390                           ;main.c: 1384:  sleep(40110);
 12391  005B2C  0E00               	movlw	0
 12392  005B2E  6E03               	movwf	(sleep@ms+1)^0,c
 12393  005B30  0E05               	movlw	5
 12394  005B32  6E02               	movwf	sleep@ms^0,c
 12395  005B34  EC79  F037         	call	_sleep	;wreg free
 12396                           
 12397                           ;main.c: 1385:  Beep(12, 8496);
 12398  005B38  0E00               	movlw	0
 12399  005B3A  6E3C               	movwf	(Beep@frequency+1)^0,c
 12400  005B3C  0E3D               	movlw	61
 12401  005B3E  6E3B               	movwf	Beep@frequency^0,c
 12402  005B40  0E00               	movlw	0
 12403  005B42  6E3E               	movwf	(Beep@duration+1)^0,c
 12404  005B44  0E34               	movlw	52
 12405  005B46  6E3D               	movwf	Beep@duration^0,c
 12406  005B48  EC33  F034         	call	_Beep	;wreg free
 12407                           
 12408                           ;main.c: 1386: }
 12409  005B4C  0E00               	movlw	0
 12410  005B4E  6E03               	movwf	(sleep@ms+1)^0,c
 12411  005B50  0E05               	movlw	5
 12412  005B52  6E02               	movwf	sleep@ms^0,c
 12413  005B54  EC79  F037         	call	_sleep	;wreg free
 12414  005B58  0E00               	movlw	0
 12415  005B5A  6E3C               	movwf	(Beep@frequency+1)^0,c
 12416  005B5C  0E7B               	movlw	123
 12417  005B5E  6E3B               	movwf	Beep@frequency^0,c
 12418  005B60  0E00               	movlw	0
 12419  005B62  6E3E               	movwf	(Beep@duration+1)^0,c
 12420  005B64  0E34               	movlw	52
 12421  005B66  6E3D               	movwf	Beep@duration^0,c
 12422  005B68  EC33  F034         	call	_Beep	;wreg free
 12423  005B6C  0E00               	movlw	0
 12424  005B6E  6E03               	movwf	(sleep@ms+1)^0,c
 12425  005B70  0E05               	movlw	5
 12426  005B72  6E02               	movwf	sleep@ms^0,c
 12427  005B74  EC79  F037         	call	_sleep	;wreg free
 12428  005B78  0E00               	movlw	0
 12429  005B7A  6E3C               	movwf	(Beep@frequency+1)^0,c
 12430  005B7C  0E3D               	movlw	61
 12431  005B7E  6E3B               	movwf	Beep@frequency^0,c
 12432  005B80  0E00               	movlw	0
 12433  005B82  6E3E               	movwf	(Beep@duration+1)^0,c
 12434  005B84  0E34               	movlw	52
 12435  005B86  6E3D               	movwf	Beep@duration^0,c
 12436  005B88  EC33  F034         	call	_Beep	;wreg free
 12437  005B8C  0E00               	movlw	0
 12438  005B8E  6E03               	movwf	(sleep@ms+1)^0,c
 12439  005B90  0E05               	movlw	5
 12440  005B92  6E02               	movwf	sleep@ms^0,c
 12441  005B94  EC79  F037         	call	_sleep	;wreg free
 12442  005B98  0E00               	movlw	0
 12443  005B9A  6E3C               	movwf	(Beep@frequency+1)^0,c
 12444  005B9C  0E7B               	movlw	123
 12445  005B9E  6E3B               	movwf	Beep@frequency^0,c
 12446  005BA0  0E00               	movlw	0
 12447  005BA2  6E3E               	movwf	(Beep@duration+1)^0,c
 12448  005BA4  0E34               	movlw	52
 12449  005BA6  6E3D               	movwf	Beep@duration^0,c
 12450  005BA8  EC33  F034         	call	_Beep	;wreg free
 12451  005BAC  0E00               	movlw	0
 12452  005BAE  6E03               	movwf	(sleep@ms+1)^0,c
 12453  005BB0  0E05               	movlw	5
 12454  005BB2  6E02               	movwf	sleep@ms^0,c
 12455  005BB4  EC79  F037         	call	_sleep	;wreg free
 12456  005BB8  0E00               	movlw	0
 12457  005BBA  6E3C               	movwf	(Beep@frequency+1)^0,c
 12458  005BBC  0E3D               	movlw	61
 12459  005BBE  6E3B               	movwf	Beep@frequency^0,c
 12460  005BC0  0E00               	movlw	0
 12461  005BC2  6E3E               	movwf	(Beep@duration+1)^0,c
 12462  005BC4  0E34               	movlw	52
 12463  005BC6  6E3D               	movwf	Beep@duration^0,c
 12464  005BC8  EC33  F034         	call	_Beep	;wreg free
 12465  005BCC  0E00               	movlw	0
 12466  005BCE  6E03               	movwf	(sleep@ms+1)^0,c
 12467  005BD0  0E05               	movlw	5
 12468  005BD2  6E02               	movwf	sleep@ms^0,c
 12469  005BD4  EC79  F037         	call	_sleep	;wreg free
 12470  005BD8  0E00               	movlw	0
 12471  005BDA  6E3C               	movwf	(Beep@frequency+1)^0,c
 12472  005BDC  0E7B               	movlw	123
 12473  005BDE  6E3B               	movwf	Beep@frequency^0,c
 12474  005BE0  0E00               	movlw	0
 12475  005BE2  6E3E               	movwf	(Beep@duration+1)^0,c
 12476  005BE4  0E34               	movlw	52
 12477  005BE6  6E3D               	movwf	Beep@duration^0,c
 12478  005BE8  EC33  F034         	call	_Beep	;wreg free
 12479  005BEC  0E00               	movlw	0
 12480  005BEE  6E03               	movwf	(sleep@ms+1)^0,c
 12481  005BF0  0E05               	movlw	5
 12482  005BF2  6E02               	movwf	sleep@ms^0,c
 12483  005BF4  EC79  F037         	call	_sleep	;wreg free
 12484  005BF8  0E00               	movlw	0
 12485  005BFA  6E3C               	movwf	(Beep@frequency+1)^0,c
 12486  005BFC  0E3D               	movlw	61
 12487  005BFE  6E3B               	movwf	Beep@frequency^0,c
 12488  005C00  0E00               	movlw	0
 12489  005C02  6E3E               	movwf	(Beep@duration+1)^0,c
 12490  005C04  0E34               	movlw	52
 12491  005C06  6E3D               	movwf	Beep@duration^0,c
 12492  005C08  EC33  F034         	call	_Beep	;wreg free
 12493  005C0C  0E00               	movlw	0
 12494  005C0E  6E03               	movwf	(sleep@ms+1)^0,c
 12495  005C10  0E05               	movlw	5
 12496  005C12  6E02               	movwf	sleep@ms^0,c
 12497  005C14  EC79  F037         	call	_sleep	;wreg free
 12498  005C18  0E00               	movlw	0
 12499  005C1A  6E3C               	movwf	(Beep@frequency+1)^0,c
 12500  005C1C  0E7B               	movlw	123
 12501  005C1E  6E3B               	movwf	Beep@frequency^0,c
 12502  005C20  0E00               	movlw	0
 12503  005C22  6E3E               	movwf	(Beep@duration+1)^0,c
 12504  005C24  0E34               	movlw	52
 12505  005C26  6E3D               	movwf	Beep@duration^0,c
 12506  005C28  EC33  F034         	call	_Beep	;wreg free
 12507  005C2C  0E00               	movlw	0
 12508  005C2E  6E03               	movwf	(sleep@ms+1)^0,c
 12509  005C30  0E05               	movlw	5
 12510  005C32  6E02               	movwf	sleep@ms^0,c
 12511  005C34  EC79  F037         	call	_sleep	;wreg free
 12512  005C38  0E00               	movlw	0
 12513  005C3A  6E3C               	movwf	(Beep@frequency+1)^0,c
 12514  005C3C  0E3D               	movlw	61
 12515  005C3E  6E3B               	movwf	Beep@frequency^0,c
 12516  005C40  0E00               	movlw	0
 12517  005C42  6E3E               	movwf	(Beep@duration+1)^0,c
 12518  005C44  0E34               	movlw	52
 12519  005C46  6E3D               	movwf	Beep@duration^0,c
 12520  005C48  EC33  F034         	call	_Beep	;wreg free
 12521  005C4C  0E00               	movlw	0
 12522  005C4E  6E03               	movwf	(sleep@ms+1)^0,c
 12523  005C50  0E05               	movlw	5
 12524  005C52  6E02               	movwf	sleep@ms^0,c
 12525  005C54  EC79  F037         	call	_sleep	;wreg free
 12526  005C58  0E00               	movlw	0
 12527  005C5A  6E3C               	movwf	(Beep@frequency+1)^0,c
 12528  005C5C  0E7B               	movlw	123
 12529  005C5E  6E3B               	movwf	Beep@frequency^0,c
 12530  005C60  0E00               	movlw	0
 12531  005C62  6E3E               	movwf	(Beep@duration+1)^0,c
 12532  005C64  0E34               	movlw	52
 12533  005C66  6E3D               	movwf	Beep@duration^0,c
 12534  005C68  EC33  F034         	call	_Beep	;wreg free
 12535  005C6C  0E00               	movlw	0
 12536  005C6E  6E03               	movwf	(sleep@ms+1)^0,c
 12537  005C70  0E05               	movlw	5
 12538  005C72  6E02               	movwf	sleep@ms^0,c
 12539  005C74  EC79  F037         	call	_sleep	;wreg free
 12540  005C78  0E00               	movlw	0
 12541  005C7A  6E3C               	movwf	(Beep@frequency+1)^0,c
 12542  005C7C  0E1E               	movlw	30
 12543  005C7E  6E3B               	movwf	Beep@frequency^0,c
 12544  005C80  0E00               	movlw	0
 12545  005C82  6E3E               	movwf	(Beep@duration+1)^0,c
 12546  005C84  0ECF               	movlw	207
 12547  005C86  6E3D               	movwf	Beep@duration^0,c
 12548  005C88  EC33  F034         	call	_Beep	;wreg free
 12549  005C8C  0E00               	movlw	0
 12550  005C8E  6E03               	movwf	(sleep@ms+1)^0,c
 12551  005C90  0E16               	movlw	22
 12552  005C92  6E02               	movwf	sleep@ms^0,c
 12553  005C94  EC79  F037         	call	_sleep	;wreg free
 12554  005C98  0E04               	movlw	4
 12555  005C9A  6E3C               	movwf	(Beep@frequency+1)^0,c
 12556  005C9C  0E96               	movlw	150
 12557  005C9E  6E3B               	movwf	Beep@frequency^0,c
 12558  005CA0  0E00               	movlw	0
 12559  005CA2  6E3E               	movwf	(Beep@duration+1)^0,c
 12560  005CA4  0ECF               	movlw	207
 12561  005CA6  6E3D               	movwf	Beep@duration^0,c
 12562  005CA8  EC33  F034         	call	_Beep	;wreg free
 12563  005CAC  0E9C               	movlw	156
 12564  005CAE  6E03               	movwf	(sleep@ms+1)^0,c
 12565  005CB0  0EAE               	movlw	174
 12566  005CB2  6E02               	movwf	sleep@ms^0,c
 12567  005CB4  EC79  F037         	call	_sleep	;wreg free
 12568  005CB8  0E00               	movlw	0
 12569  005CBA  6E3C               	movwf	(Beep@frequency+1)^0,c
 12570  005CBC  0E0C               	movlw	12
 12571  005CBE  6E3B               	movwf	Beep@frequency^0,c
 12572  005CC0  0E21               	movlw	33
 12573  005CC2  6E3E               	movwf	(Beep@duration+1)^0,c
 12574  005CC4  0E30               	movlw	48
 12575  005CC6  6E3D               	movwf	Beep@duration^0,c
 12576  005CC8  EC33  F034         	call	_Beep	;wreg free
 12577  005CCC  0012               	return		;funcret
 12578  005CCE                     __end_of_peer_gynt_mountain_king:
 12579                           	opt callstack 0
 12580                           
 12581 ;; *************** function _sleep *****************
 12582 ;; Defined at:
 12583 ;;		line 167 in file "main.c"
 12584 ;; Parameters:    Size  Location     Type
 12585 ;;  ms              2    1[COMRAM] unsigned short 
 12586 ;; Auto vars:     Size  Location     Type
 12587 ;;  i               2    4[COMRAM] int 
 12588 ;; Return value:  Size  Location     Type
 12589 ;;                  1    wreg      void 
 12590 ;; Registers used:
 12591 ;;		wreg, status,2, status,0
 12592 ;; Tracked objects:
 12593 ;;		On entry : 0/0
 12594 ;;		On exit  : 0/0
 12595 ;;		Unchanged: 0/0
 12596 ;; Data sizes:     COMRAM   BANK0   BANK1   BANK2   BANK3   BANK4   BANK5   BANK6   BANK7   BANK8   BANK9  BANK10  BANK1
      +1  BANK12  BANK13  BANK14  BANK15
 12597 ;;      Params:         2       0       0       0       0       0       0       0       0       0       0       0       
      +0       0       0       0       0
 12598 ;;      Locals:         2       0       0       0       0       0       0       0       0       0       0       0       
      +0       0       0       0       0
 12599 ;;      Temps:          1       0       0       0       0       0       0       0       0       0       0       0       
      +0       0       0       0       0
 12600 ;;      Totals:         5       0       0       0       0       0       0       0       0       0       0       0       
      +0       0       0       0       0
 12601 ;;Total ram usage:        5 bytes
 12602 ;; Hardware stack levels used:    1
 12603 ;; Hardware stack levels required when called:    1
 12604 ;; This function calls:
 12605 ;;		Nothing
 12606 ;; This function is called by:
 12607 ;;		_main
 12608 ;;		_peer_gynt_mountain_king
 12609 ;; This function uses a non-reentrant model
 12610 ;;
 12611                           
 12612                           	psect	text10
 12613  006EF2                     __ptext10:
 12614                           	opt callstack 0
 12615  006EF2                     _sleep:
 12616                           	opt callstack 29
 12617  006EF2                     
 12618                           ;main.c: 168:  Beep(69, 106);;main.c: 169:  sleep(110);
 12619  006EF2  0E00               	movlw	0
 12620  006EF4  6E06               	movwf	(sleep@i+1)^0,c
 12621  006EF6  0E00               	movlw	0
 12622  006EF8  6E05               	movwf	sleep@i^0,c
 12623  006EFA  EF89  F037         	goto	l125
 12624  006EFE                     l2884:
 12625                           
 12626                           ;main.c: 170:  Beep(73, 106);
 12627  006EFE  0E15               	movlw	21
 12628  006F00  6E04               	movwf	??_sleep^0,c
 12629  006F02  0EC6               	movlw	198
 12630  006F04                     u3367:
 12631  006F04  2EE8               	decfsz	wreg,f,c
 12632  006F06  D7FE               	bra	u3367
 12633  006F08  2E04               	decfsz	??_sleep^0,f,c
 12634  006F0A  D7FC               	bra	u3367
 12635  006F0C  D000               	nop2	
 12636  006F0E                     
 12637                           ;main.c: 171:  sleep(109);
 12638  006F0E  4A05               	infsnz	sleep@i^0,f,c
 12639  006F10  2A06               	incf	(sleep@i+1)^0,f,c
 12640  006F12                     l125:
 12641  006F12  5002               	movf	sleep@ms^0,w,c
 12642  006F14  5C05               	subwf	sleep@i^0,w,c
 12643  006F16  5003               	movf	(sleep@ms+1)^0,w,c
 12644  006F18  5806               	subwfb	(sleep@i+1)^0,w,c
 12645  006F1A  A0D8               	btfss	status,0,c
 12646  006F1C  EF92  F037         	goto	u3121
 12647  006F20  EF94  F037         	goto	u3120
 12648  006F24                     u3121:
 12649  006F24  EF7F  F037         	goto	l2884
 12650  006F28                     u3120:
 12651  006F28  0012               	return		;funcret
 12652  006F2A                     __end_of_sleep:
 12653                           	opt callstack 0
 12654                           
 12655 ;; *************** function _Beep *****************
 12656 ;; Defined at:
 12657 ;;		line 155 in file "main.c"
 12658 ;; Parameters:    Size  Location     Type
 12659 ;;  frequency       2   58[COMRAM] unsigned short 
 12660 ;;  duration        2   60[COMRAM] unsigned short 
 12661 ;; Auto vars:     Size  Location     Type
 12662 ;;  i               2   63[COMRAM] int 
 12663 ;; Return value:  Size  Location     Type
 12664 ;;                  1    wreg      void 
 12665 ;; Registers used:
 12666 ;;		wreg, status,2, status,0, cstack
 12667 ;; Tracked objects:
 12668 ;;		On entry : 0/0
 12669 ;;		On exit  : 0/0
 12670 ;;		Unchanged: 0/0
 12671 ;; Data sizes:     COMRAM   BANK0   BANK1   BANK2   BANK3   BANK4   BANK5   BANK6   BANK7   BANK8   BANK9  BANK10  BANK1
      +1  BANK12  BANK13  BANK14  BANK15
 12672 ;;      Params:         4       0       0       0       0       0       0       0       0       0       0       0       
      +0       0       0       0       0
 12673 ;;      Locals:         2       0       0       0       0       0       0       0       0       0       0       0       
      +0       0       0       0       0
 12674 ;;      Temps:          1       0       0       0       0       0       0       0       0       0       0       0       
      +0       0       0       0       0
 12675 ;;      Totals:         7       0       0       0       0       0       0       0       0       0       0       0       
      +0       0       0       0       0
 12676 ;;Total ram usage:        7 bytes
 12677 ;; Hardware stack levels used:    1
 12678 ;; Hardware stack levels required when called:    3
 12679 ;; This function calls:
 12680 ;;		___fldiv
 12681 ;;		___flsub
 12682 ;;		___fltol
 12683 ;;		___xxtofl
 12684 ;; This function is called by:
 12685 ;;		_main
 12686 ;;		_peer_gynt_mountain_king
 12687 ;; This function uses a non-reentrant model
 12688 ;;
 12689                           
 12690                           	psect	text11
 12691  006866                     __ptext11:
 12692                           	opt callstack 0
 12693  006866                     _Beep:
 12694                           	opt callstack 26
 12695  006866                     
 12696                           ;main.c: 156:     };main.c: 157:     if (cnt == 140 && on == 1) {
 12697  006866  0E00               	movlw	0
 12698  006868  6E14               	movwf	___fldiv@a^0,c
 12699  00686A  0E00               	movlw	0
 12700  00686C  6E15               	movwf	(___fldiv@a+1)^0,c
 12701  00686E  0E80               	movlw	128
 12702  006870  6E16               	movwf	(___fldiv@a+2)^0,c
 12703  006872  0E40               	movlw	64
 12704  006874  6E17               	movwf	(___fldiv@a+3)^0,c
 12705  006876  C03B  F002         	movff	Beep@frequency,___xxtofl@val
 12706  00687A  C03C  F003         	movff	Beep@frequency+1,___xxtofl@val+1
 12707  00687E  6A04               	clrf	(___xxtofl@val+2)^0,c
 12708  006880  6A05               	clrf	(___xxtofl@val+3)^0,c
 12709  006882  0E00               	movlw	0
 12710  006884  EC94  F032         	call	___xxtofl
 12711  006888  C002  F010         	movff	?___xxtofl,___fldiv@b
 12712  00688C  C003  F011         	movff	?___xxtofl+1,___fldiv@b+1
 12713  006890  C004  F012         	movff	?___xxtofl+2,___fldiv@b+2
 12714  006894  C005  F013         	movff	?___xxtofl+3,___fldiv@b+3
 12715  006898  ECC7  F030         	call	___fldiv	;wreg free
 12716  00689C  C010  F031         	movff	?___fldiv,___fltol@f1
 12717  0068A0  C011  F032         	movff	?___fldiv+1,___fltol@f1+1
 12718  0068A4  C012  F033         	movff	?___fldiv+2,___fltol@f1+2
 12719  0068A8  C013  F034         	movff	?___fldiv+3,___fltol@f1+3
 12720  0068AC  EC3D  F035         	call	___fltol	;wreg free
 12721  0068B0  C031  F03B         	movff	?___fltol,Beep@frequency
 12722  0068B4  C032  F03C         	movff	?___fltol+1,Beep@frequency+1
 12723                           
 12724                           ;main.c: 158:         cnt = 0;
 12725  0068B8  C03B  F002         	movff	Beep@frequency,___xxtofl@val
 12726  0068BC  C03C  F003         	movff	Beep@frequency+1,___xxtofl@val+1
 12727  0068C0  6A04               	clrf	(___xxtofl@val+2)^0,c
 12728  0068C2  6A05               	clrf	(___xxtofl@val+3)^0,c
 12729  0068C4  0E00               	movlw	0
 12730  0068C6  EC94  F032         	call	___xxtofl
 12731  0068CA  C002  F014         	movff	?___xxtofl,___fldiv@a
 12732  0068CE  C003  F015         	movff	?___xxtofl+1,___fldiv@a+1
 12733  0068D2  C004  F016         	movff	?___xxtofl+2,___fldiv@a+2
 12734  0068D6  C005  F017         	movff	?___xxtofl+3,___fldiv@a+3
 12735  0068DA  0E00               	movlw	0
 12736  0068DC  6E10               	movwf	___fldiv@b^0,c
 12737  0068DE  0E24               	movlw	36
 12738  0068E0  6E11               	movwf	(___fldiv@b+1)^0,c
 12739  0068E2  0E74               	movlw	116
 12740  0068E4  6E12               	movwf	(___fldiv@b+2)^0,c
 12741  0068E6  0E49               	movlw	73
 12742  0068E8  6E13               	movwf	(___fldiv@b+3)^0,c
 12743  0068EA  ECC7  F030         	call	___fldiv	;wreg free
 12744  0068EE  C010  F02D         	movff	?___fldiv,___flsub@a
 12745  0068F2  C011  F02E         	movff	?___fldiv+1,___flsub@a+1
 12746  0068F6  C012  F02F         	movff	?___fldiv+2,___flsub@a+2
 12747  0068FA  C013  F030         	movff	?___fldiv+3,___flsub@a+3
 12748  0068FE  0E00               	movlw	0
 12749  006900  6E29               	movwf	___flsub@b^0,c
 12750  006902  0EFF               	movlw	255
 12751  006904  6E2A               	movwf	(___flsub@b+1)^0,c
 12752  006906  0E7F               	movlw	127
 12753  006908  6E2B               	movwf	(___flsub@b+2)^0,c
 12754  00690A  0E47               	movlw	71
 12755  00690C  6E2C               	movwf	(___flsub@b+3)^0,c
 12756  00690E  EC56  F037         	call	___flsub	;wreg free
 12757  006912  C029  F031         	movff	?___flsub,___fltol@f1
 12758  006916  C02A  F032         	movff	?___flsub+1,___fltol@f1+1
 12759  00691A  C02B  F033         	movff	?___flsub+2,___fltol@f1+2
 12760  00691E  C02C  F034         	movff	?___flsub+3,___fltol@f1+3
 12761  006922  EC3D  F035         	call	___fltol	;wreg free
 12762  006926  C031  F043         	movff	?___fltol,_offset
 12763  00692A  C032  F044         	movff	?___fltol+1,_offset+1
 12764  00692E                     
 12765                           ;main.c: 159:         LATAbits.LA1 = ~LATAbits.LA1;
 12766  00692E  C043  FFCE         	movff	_offset,4046	;volatile
 12767  006932  C044  FFCF         	movff	_offset+1,4047	;volatile
 12768  006936                     
 12769                           ;main.c: 160:     }
 12770  006936  80CD               	bsf	205,0,c	;volatile
 12771  006938                     
 12772                           ;main.c: 161: }
 12773  006938  0E00               	movlw	0
 12774  00693A  6E41               	movwf	(Beep@i+1)^0,c
 12775  00693C  0E00               	movlw	0
 12776  00693E  6E40               	movwf	Beep@i^0,c
 12777  006940  EFAC  F034         	goto	l119
 12778  006944                     l2878:
 12779                           
 12780                           ;main.c: 162: 
 12781  006944  0E15               	movlw	21
 12782  006946  6E3F               	movwf	??_Beep^0,c
 12783  006948  0EC6               	movlw	198
 12784  00694A                     u3377:
 12785  00694A  2EE8               	decfsz	wreg,f,c
 12786  00694C  D7FE               	bra	u3377
 12787  00694E  2E3F               	decfsz	??_Beep^0,f,c
 12788  006950  D7FC               	bra	u3377
 12789  006952  D000               	nop2	
 12790  006954                     
 12791                           ;main.c: 163: void peer_gynt_mountain_king() {
 12792  006954  4A40               	infsnz	Beep@i^0,f,c
 12793  006956  2A41               	incf	(Beep@i+1)^0,f,c
 12794  006958                     l119:
 12795  006958  503D               	movf	Beep@duration^0,w,c
 12796  00695A  5C40               	subwf	Beep@i^0,w,c
 12797  00695C  503E               	movf	(Beep@duration+1)^0,w,c
 12798  00695E  5841               	subwfb	(Beep@i+1)^0,w,c
 12799  006960  A0D8               	btfss	status,0,c
 12800  006962  EFB5  F034         	goto	u3111
 12801  006966  EFB7  F034         	goto	u3110
 12802  00696A                     u3111:
 12803  00696A  EFA2  F034         	goto	l2878
 12804  00696E                     u3110:
 12805  00696E                     
 12806                           ;main.c: 164:     Beep(184, 1654);
 12807  00696E  90CD               	bcf	205,0,c	;volatile
 12808  006970  0012               	return		;funcret
 12809  006972                     __end_of_Beep:
 12810                           	opt callstack 0
 12811                           
 12812 ;; *************** function ___xxtofl *****************
 12813 ;; Defined at:
 12814 ;;		line 10 in file "C:\Program Files (x86)\Microchip\xc8\v2.10\pic\sources\c99\common\xxtofl.c"
 12815 ;; Parameters:    Size  Location     Type
 12816 ;;  sign            1    wreg     unsigned char 
 12817 ;;  val             4    1[COMRAM] long 
 12818 ;; Auto vars:     Size  Location     Type
 12819 ;;  sign            1    9[COMRAM] unsigned char 
 12820 ;;  arg             4   11[COMRAM] unsigned long 
 12821 ;;  exp             1   10[COMRAM] unsigned char 
 12822 ;; Return value:  Size  Location     Type
 12823 ;;                  4    1[COMRAM] unsigned char 
 12824 ;; Registers used:
 12825 ;;		wreg, status,2, status,0
 12826 ;; Tracked objects:
 12827 ;;		On entry : 0/0
 12828 ;;		On exit  : 0/0
 12829 ;;		Unchanged: 0/0
 12830 ;; Data sizes:     COMRAM   BANK0   BANK1   BANK2   BANK3   BANK4   BANK5   BANK6   BANK7   BANK8   BANK9  BANK10  BANK1
      +1  BANK12  BANK13  BANK14  BANK15
 12831 ;;      Params:         4       0       0       0       0       0       0       0       0       0       0       0       
      +0       0       0       0       0
 12832 ;;      Locals:         6       0       0       0       0       0       0       0       0       0       0       0       
      +0       0       0       0       0
 12833 ;;      Temps:          4       0       0       0       0       0       0       0       0       0       0       0       
      +0       0       0       0       0
 12834 ;;      Totals:        14       0       0       0       0       0       0       0       0       0       0       0       
      +0       0       0       0       0
 12835 ;;Total ram usage:       14 bytes
 12836 ;; Hardware stack levels used:    1
 12837 ;; Hardware stack levels required when called:    1
 12838 ;; This function calls:
 12839 ;;		Nothing
 12840 ;; This function is called by:
 12841 ;;		_Beep
 12842 ;; This function uses a non-reentrant model
 12843 ;;
 12844                           
 12845                           	psect	text12
 12846  006528                     __ptext12:
 12847                           	opt callstack 0
 12848  006528                     ___xxtofl:
 12849                           	opt callstack 27
 12850                           
 12851                           ;incstack = 0
 12852                           ;___xxtofl@sign stored from wreg
 12853  006528  6E0A               	movwf	___xxtofl@sign^0,c
 12854  00652A  500A               	movf	___xxtofl@sign^0,w,c
 12855  00652C  B4D8               	btfsc	status,2,c
 12856  00652E  EF9B  F032         	goto	u3011
 12857  006532  EF9D  F032         	goto	u3010
 12858  006536                     u3011:
 12859  006536  EFBF  F032         	goto	l835
 12860  00653A                     u3010:
 12861  00653A  BE05               	btfsc	(___xxtofl@val+3)^0,7,c
 12862  00653C  EFA4  F032         	goto	u3020
 12863  006540  EFA2  F032         	goto	u3021
 12864  006544                     u3021:
 12865  006544  EFBF  F032         	goto	l835
 12866  006548                     u3020:
 12867  006548  C002  F006         	movff	___xxtofl@val,??___xxtofl
 12868  00654C  C003  F007         	movff	___xxtofl@val+1,??___xxtofl+1
 12869  006550  C004  F008         	movff	___xxtofl@val+2,??___xxtofl+2
 12870  006554  C005  F009         	movff	___xxtofl@val+3,??___xxtofl+3
 12871  006558  1E06               	comf	??___xxtofl^0,f,c
 12872  00655A  1E07               	comf	(??___xxtofl+1)^0,f,c
 12873  00655C  1E08               	comf	(??___xxtofl+2)^0,f,c
 12874  00655E  1E09               	comf	(??___xxtofl+3)^0,f,c
 12875  006560  2A06               	incf	??___xxtofl^0,f,c
 12876  006562  0E00               	movlw	0
 12877  006564  2207               	addwfc	(??___xxtofl+1)^0,f,c
 12878  006566  2208               	addwfc	(??___xxtofl+2)^0,f,c
 12879  006568  2209               	addwfc	(??___xxtofl+3)^0,f,c
 12880  00656A  C006  F00C         	movff	??___xxtofl,___xxtofl@arg
 12881  00656E  C007  F00D         	movff	??___xxtofl+1,___xxtofl@arg+1
 12882  006572  C008  F00E         	movff	??___xxtofl+2,___xxtofl@arg+2
 12883  006576  C009  F00F         	movff	??___xxtofl+3,___xxtofl@arg+3
 12884  00657A  EFC7  F032         	goto	l2830
 12885  00657E                     l835:
 12886  00657E  C002  F00C         	movff	___xxtofl@val,___xxtofl@arg
 12887  006582  C003  F00D         	movff	___xxtofl@val+1,___xxtofl@arg+1
 12888  006586  C004  F00E         	movff	___xxtofl@val+2,___xxtofl@arg+2
 12889  00658A  C005  F00F         	movff	___xxtofl@val+3,___xxtofl@arg+3
 12890  00658E                     l2830:
 12891  00658E  5002               	movf	___xxtofl@val^0,w,c
 12892  006590  1003               	iorwf	(___xxtofl@val+1)^0,w,c
 12893  006592  1004               	iorwf	(___xxtofl@val+2)^0,w,c
 12894  006594  1005               	iorwf	(___xxtofl@val+3)^0,w,c
 12895  006596  A4D8               	btfss	status,2,c
 12896  006598  EFD0  F032         	goto	u3031
 12897  00659C  EFD2  F032         	goto	u3030
 12898  0065A0                     u3031:
 12899  0065A0  EFDC  F032         	goto	l2836
 12900  0065A4                     u3030:
 12901  0065A4  0E00               	movlw	0
 12902  0065A6  6E02               	movwf	?___xxtofl^0,c
 12903  0065A8  0E00               	movlw	0
 12904  0065AA  6E03               	movwf	(?___xxtofl+1)^0,c
 12905  0065AC  0E00               	movlw	0
 12906  0065AE  6E04               	movwf	(?___xxtofl+2)^0,c
 12907  0065B0  0E00               	movlw	0
 12908  0065B2  6E05               	movwf	(?___xxtofl+3)^0,c
 12909  0065B4  EF6D  F033         	goto	l838
 12910  0065B8                     l2836:
 12911  0065B8  0E96               	movlw	150
 12912  0065BA  6E0B               	movwf	___xxtofl@exp^0,c
 12913  0065BC  EFE6  F032         	goto	l2840
 12914  0065C0                     l2838:
 12915  0065C0  2A0B               	incf	___xxtofl@exp^0,f,c
 12916  0065C2  90D8               	bcf	status,0,c
 12917  0065C4  320F               	rrcf	(___xxtofl@arg+3)^0,f,c
 12918  0065C6  320E               	rrcf	(___xxtofl@arg+2)^0,f,c
 12919  0065C8  320D               	rrcf	(___xxtofl@arg+1)^0,f,c
 12920  0065CA  320C               	rrcf	___xxtofl@arg^0,f,c
 12921  0065CC                     l2840:
 12922  0065CC  0E00               	movlw	0
 12923  0065CE  140C               	andwf	___xxtofl@arg^0,w,c
 12924  0065D0  6E06               	movwf	??___xxtofl^0,c
 12925  0065D2  0E00               	movlw	0
 12926  0065D4  140D               	andwf	(___xxtofl@arg+1)^0,w,c
 12927  0065D6  6E07               	movwf	(??___xxtofl+1)^0,c
 12928  0065D8  0E00               	movlw	0
 12929  0065DA  140E               	andwf	(___xxtofl@arg+2)^0,w,c
 12930  0065DC  6E08               	movwf	(??___xxtofl+2)^0,c
 12931  0065DE  0EFE               	movlw	254
 12932  0065E0  140F               	andwf	(___xxtofl@arg+3)^0,w,c
 12933  0065E2  6E09               	movwf	(??___xxtofl+3)^0,c
 12934  0065E4  5006               	movf	??___xxtofl^0,w,c
 12935  0065E6  1007               	iorwf	(??___xxtofl+1)^0,w,c
 12936  0065E8  1008               	iorwf	(??___xxtofl+2)^0,w,c
 12937  0065EA  1009               	iorwf	(??___xxtofl+3)^0,w,c
 12938  0065EC  A4D8               	btfss	status,2,c
 12939  0065EE  EFFB  F032         	goto	u3041
 12940  0065F2  EFFD  F032         	goto	u3040
 12941  0065F6                     u3041:
 12942  0065F6  EFE0  F032         	goto	l2838
 12943  0065FA                     u3040:
 12944  0065FA  EF0B  F033         	goto	l842
 12945  0065FE                     l2842:
 12946  0065FE  2A0B               	incf	___xxtofl@exp^0,f,c
 12947  006600  0E01               	movlw	1
 12948  006602  260C               	addwf	___xxtofl@arg^0,f,c
 12949  006604  0E00               	movlw	0
 12950  006606  220D               	addwfc	(___xxtofl@arg+1)^0,f,c
 12951  006608  220E               	addwfc	(___xxtofl@arg+2)^0,f,c
 12952  00660A  220F               	addwfc	(___xxtofl@arg+3)^0,f,c
 12953  00660C  90D8               	bcf	status,0,c
 12954  00660E  320F               	rrcf	(___xxtofl@arg+3)^0,f,c
 12955  006610  320E               	rrcf	(___xxtofl@arg+2)^0,f,c
 12956  006612  320D               	rrcf	(___xxtofl@arg+1)^0,f,c
 12957  006614  320C               	rrcf	___xxtofl@arg^0,f,c
 12958  006616                     l842:
 12959  006616  0E00               	movlw	0
 12960  006618  140C               	andwf	___xxtofl@arg^0,w,c
 12961  00661A  6E06               	movwf	??___xxtofl^0,c
 12962  00661C  0E00               	movlw	0
 12963  00661E  140D               	andwf	(___xxtofl@arg+1)^0,w,c
 12964  006620  6E07               	movwf	(??___xxtofl+1)^0,c
 12965  006622  0E00               	movlw	0
 12966  006624  140E               	andwf	(___xxtofl@arg+2)^0,w,c
 12967  006626  6E08               	movwf	(??___xxtofl+2)^0,c
 12968  006628  0EFF               	movlw	255
 12969  00662A  140F               	andwf	(___xxtofl@arg+3)^0,w,c
 12970  00662C  6E09               	movwf	(??___xxtofl+3)^0,c
 12971  00662E  5006               	movf	??___xxtofl^0,w,c
 12972  006630  1007               	iorwf	(??___xxtofl+1)^0,w,c
 12973  006632  1008               	iorwf	(??___xxtofl+2)^0,w,c
 12974  006634  1009               	iorwf	(??___xxtofl+3)^0,w,c
 12975  006636  A4D8               	btfss	status,2,c
 12976  006638  EF20  F033         	goto	u3051
 12977  00663C  EF22  F033         	goto	u3050
 12978  006640                     u3051:
 12979  006640  EFFF  F032         	goto	l2842
 12980  006644                     u3050:
 12981  006644  EF2A  F033         	goto	l2850
 12982  006648                     l2848:
 12983  006648  060B               	decf	___xxtofl@exp^0,f,c
 12984  00664A  90D8               	bcf	status,0,c
 12985  00664C  360C               	rlcf	___xxtofl@arg^0,f,c
 12986  00664E  360D               	rlcf	(___xxtofl@arg+1)^0,f,c
 12987  006650  360E               	rlcf	(___xxtofl@arg+2)^0,f,c
 12988  006652  360F               	rlcf	(___xxtofl@arg+3)^0,f,c
 12989  006654                     l2850:
 12990  006654  BE0E               	btfsc	(___xxtofl@arg+2)^0,7,c
 12991  006656  EF2F  F033         	goto	u3061
 12992  00665A  EF31  F033         	goto	u3060
 12993  00665E                     u3061:
 12994  00665E  EF39  F033         	goto	l849
 12995  006662                     u3060:
 12996  006662  0E02               	movlw	2
 12997  006664  600B               	cpfslt	___xxtofl@exp^0,c
 12998  006666  EF37  F033         	goto	u3071
 12999  00666A  EF39  F033         	goto	u3070
 13000  00666E                     u3071:
 13001  00666E  EF24  F033         	goto	l2848
 13002  006672                     u3070:
 13003  006672                     l849:
 13004  006672  B00B               	btfsc	___xxtofl@exp^0,0,c
 13005  006674  EF3E  F033         	goto	u3081
 13006  006678  EF40  F033         	goto	u3080
 13007  00667C                     u3081:
 13008  00667C  EF41  F033         	goto	l2856
 13009  006680                     u3080:
 13010  006680  9E0E               	bcf	(___xxtofl@arg+2)^0,7,c
 13011  006682                     l2856:
 13012  006682  90D8               	bcf	status,0,c
 13013  006684  320B               	rrcf	___xxtofl@exp^0,f,c
 13014  006686  C00B  F006         	movff	___xxtofl@exp,??___xxtofl
 13015  00668A  6A07               	clrf	(??___xxtofl+1)^0,c
 13016  00668C  6A08               	clrf	(??___xxtofl+2)^0,c
 13017  00668E  6A09               	clrf	(??___xxtofl+3)^0,c
 13018  006690  C006  F009         	movff	??___xxtofl,??___xxtofl+3
 13019  006694  6A08               	clrf	(??___xxtofl+2)^0,c
 13020  006696  6A07               	clrf	(??___xxtofl+1)^0,c
 13021  006698  6A06               	clrf	??___xxtofl^0,c
 13022  00669A  5006               	movf	??___xxtofl^0,w,c
 13023  00669C  120C               	iorwf	___xxtofl@arg^0,f,c
 13024  00669E  5007               	movf	(??___xxtofl+1)^0,w,c
 13025  0066A0  120D               	iorwf	(___xxtofl@arg+1)^0,f,c
 13026  0066A2  5008               	movf	(??___xxtofl+2)^0,w,c
 13027  0066A4  120E               	iorwf	(___xxtofl@arg+2)^0,f,c
 13028  0066A6  5009               	movf	(??___xxtofl+3)^0,w,c
 13029  0066A8  120F               	iorwf	(___xxtofl@arg+3)^0,f,c
 13030  0066AA  500A               	movf	___xxtofl@sign^0,w,c
 13031  0066AC  B4D8               	btfsc	status,2,c
 13032  0066AE  EF5B  F033         	goto	u3091
 13033  0066B2  EF5D  F033         	goto	u3090
 13034  0066B6                     u3091:
 13035  0066B6  EF65  F033         	goto	l2866
 13036  0066BA                     u3090:
 13037  0066BA  BE05               	btfsc	(___xxtofl@val+3)^0,7,c
 13038  0066BC  EF64  F033         	goto	u3100
 13039  0066C0  EF62  F033         	goto	u3101
 13040  0066C4                     u3101:
 13041  0066C4  EF65  F033         	goto	l2866
 13042  0066C8                     u3100:
 13043  0066C8  8E0F               	bsf	(___xxtofl@arg+3)^0,7,c
 13044  0066CA                     l2866:
 13045  0066CA  C00C  F002         	movff	___xxtofl@arg,?___xxtofl
 13046  0066CE  C00D  F003         	movff	___xxtofl@arg+1,?___xxtofl+1
 13047  0066D2  C00E  F004         	movff	___xxtofl@arg+2,?___xxtofl+2
 13048  0066D6  C00F  F005         	movff	___xxtofl@arg+3,?___xxtofl+3
 13049  0066DA                     l838:
 13050  0066DA  0012               	return		;funcret
 13051  0066DC                     __end_of___xxtofl:
 13052                           	opt callstack 0
 13053                           
 13054 ;; *************** function ___fltol *****************
 13055 ;; Defined at:
 13056 ;;		line 43 in file "C:\Program Files (x86)\Microchip\xc8\v2.10\pic\sources\c99\common\fltol.c"
 13057 ;; Parameters:    Size  Location     Type
 13058 ;;  f1              4   48[COMRAM] unsigned char 
 13059 ;; Auto vars:     Size  Location     Type
 13060 ;;  exp1            1   57[COMRAM] unsigned char 
 13061 ;;  sign1           1   56[COMRAM] unsigned char 
 13062 ;; Return value:  Size  Location     Type
 13063 ;;                  4   48[COMRAM] long 
 13064 ;; Registers used:
 13065 ;;		wreg, status,2, status,0
 13066 ;; Tracked objects:
 13067 ;;		On entry : 0/0
 13068 ;;		On exit  : 0/0
 13069 ;;		Unchanged: 0/0
 13070 ;; Data sizes:     COMRAM   BANK0   BANK1   BANK2   BANK3   BANK4   BANK5   BANK6   BANK7   BANK8   BANK9  BANK10  BANK1
      +1  BANK12  BANK13  BANK14  BANK15
 13071 ;;      Params:         4       0       0       0       0       0       0       0       0       0       0       0       
      +0       0       0       0       0
 13072 ;;      Locals:         2       0       0       0       0       0       0       0       0       0       0       0       
      +0       0       0       0       0
 13073 ;;      Temps:          4       0       0       0       0       0       0       0       0       0       0       0       
      +0       0       0       0       0
 13074 ;;      Totals:        10       0       0       0       0       0       0       0       0       0       0       0       
      +0       0       0       0       0
 13075 ;;Total ram usage:       10 bytes
 13076 ;; Hardware stack levels used:    1
 13077 ;; Hardware stack levels required when called:    1
 13078 ;; This function calls:
 13079 ;;		Nothing
 13080 ;; This function is called by:
 13081 ;;		_Beep
 13082 ;; This function uses a non-reentrant model
 13083 ;;
 13084                           
 13085                           	psect	text13
 13086  006A7A                     __ptext13:
 13087                           	opt callstack 0
 13088  006A7A                     ___fltol:
 13089                           	opt callstack 27
 13090  006A7A  3433               	rlcf	(___fltol@f1+2)^0,w,c
 13091  006A7C  3434               	rlcf	(___fltol@f1+3)^0,w,c
 13092  006A7E  6E3A               	movwf	___fltol@exp1^0,c
 13093  006A80  503A               	movf	___fltol@exp1^0,w,c
 13094  006A82  A4D8               	btfss	status,2,c
 13095  006A84  EF46  F035         	goto	u2941
 13096  006A88  EF48  F035         	goto	u2940
 13097  006A8C                     u2941:
 13098  006A8C  EF52  F035         	goto	l2786
 13099  006A90                     u2940:
 13100  006A90                     l2782:
 13101  006A90  0E00               	movlw	0
 13102  006A92  6E31               	movwf	?___fltol^0,c
 13103  006A94  0E00               	movlw	0
 13104  006A96  6E32               	movwf	(?___fltol+1)^0,c
 13105  006A98  0E00               	movlw	0
 13106  006A9A  6E33               	movwf	(?___fltol+2)^0,c
 13107  006A9C  0E00               	movlw	0
 13108  006A9E  6E34               	movwf	(?___fltol+3)^0,c
 13109  006AA0  EFBF  F035         	goto	l477
 13110  006AA4                     l2786:
 13111  006AA4  C031  F035         	movff	___fltol@f1,??___fltol
 13112  006AA8  C032  F036         	movff	___fltol@f1+1,??___fltol+1
 13113  006AAC  C033  F037         	movff	___fltol@f1+2,??___fltol+2
 13114  006AB0  C034  F038         	movff	___fltol@f1+3,??___fltol+3
 13115  006AB4  0E20               	movlw	32
 13116  006AB6  EF62  F035         	goto	u2950
 13117  006ABA                     u2955:
 13118  006ABA  90D8               	bcf	status,0,c
 13119  006ABC  3238               	rrcf	(??___fltol+3)^0,f,c
 13120  006ABE  3237               	rrcf	(??___fltol+2)^0,f,c
 13121  006AC0  3236               	rrcf	(??___fltol+1)^0,f,c
 13122  006AC2  3235               	rrcf	??___fltol^0,f,c
 13123  006AC4                     u2950:
 13124  006AC4  2EE8               	decfsz	wreg,f,c
 13125  006AC6  EF5D  F035         	goto	u2955
 13126  006ACA  5035               	movf	??___fltol^0,w,c
 13127  006ACC  6E39               	movwf	___fltol@sign1^0,c
 13128  006ACE  8E33               	bsf	(___fltol@f1+2)^0,7,c
 13129  006AD0  0EFF               	movlw	255
 13130  006AD2  1631               	andwf	___fltol@f1^0,f,c
 13131  006AD4  0EFF               	movlw	255
 13132  006AD6  1632               	andwf	(___fltol@f1+1)^0,f,c
 13133  006AD8  0EFF               	movlw	255
 13134  006ADA  1633               	andwf	(___fltol@f1+2)^0,f,c
 13135  006ADC  0E00               	movlw	0
 13136  006ADE  1634               	andwf	(___fltol@f1+3)^0,f,c
 13137  006AE0  0E96               	movlw	150
 13138  006AE2  5E3A               	subwf	___fltol@exp1^0,f,c
 13139  006AE4  BE3A               	btfsc	___fltol@exp1^0,7,c
 13140  006AE6  EF79  F035         	goto	u2960
 13141  006AEA  EF77  F035         	goto	u2961
 13142  006AEE                     u2961:
 13143  006AEE  EF8F  F035         	goto	l2806
 13144  006AF2                     u2960:
 13145  006AF2  503A               	movf	___fltol@exp1^0,w,c
 13146  006AF4  0A80               	xorlw	128
 13147  006AF6  0F97               	addlw	151
 13148  006AF8  B0D8               	btfsc	status,0,c
 13149  006AFA  EF81  F035         	goto	u2971
 13150  006AFE  EF83  F035         	goto	u2970
 13151  006B02                     u2971:
 13152  006B02  EF85  F035         	goto	l2802
 13153  006B06                     u2970:
 13154  006B06  EF48  F035         	goto	l2782
 13155  006B0A                     l2802:
 13156  006B0A  90D8               	bcf	status,0,c
 13157  006B0C  3234               	rrcf	(___fltol@f1+3)^0,f,c
 13158  006B0E  3233               	rrcf	(___fltol@f1+2)^0,f,c
 13159  006B10  3232               	rrcf	(___fltol@f1+1)^0,f,c
 13160  006B12  3231               	rrcf	___fltol@f1^0,f,c
 13161  006B14  3E3A               	incfsz	___fltol@exp1^0,f,c
 13162  006B16  EF85  F035         	goto	l2802
 13163  006B1A  EFA7  F035         	goto	l2816
 13164  006B1E                     l2806:
 13165  006B1E  0E1F               	movlw	31
 13166  006B20  643A               	cpfsgt	___fltol@exp1^0,c
 13167  006B22  EF95  F035         	goto	u2981
 13168  006B26  EF97  F035         	goto	u2980
 13169  006B2A                     u2981:
 13170  006B2A  EF9F  F035         	goto	l2814
 13171  006B2E                     u2980:
 13172  006B2E  EF48  F035         	goto	l2782
 13173  006B32                     l2812:
 13174  006B32  90D8               	bcf	status,0,c
 13175  006B34  3631               	rlcf	___fltol@f1^0,f,c
 13176  006B36  3632               	rlcf	(___fltol@f1+1)^0,f,c
 13177  006B38  3633               	rlcf	(___fltol@f1+2)^0,f,c
 13178  006B3A  3634               	rlcf	(___fltol@f1+3)^0,f,c
 13179  006B3C  063A               	decf	___fltol@exp1^0,f,c
 13180  006B3E                     l2814:
 13181  006B3E  503A               	movf	___fltol@exp1^0,w,c
 13182  006B40  A4D8               	btfss	status,2,c
 13183  006B42  EFA5  F035         	goto	u2991
 13184  006B46  EFA7  F035         	goto	u2990
 13185  006B4A                     u2991:
 13186  006B4A  EF99  F035         	goto	l2812
 13187  006B4E                     u2990:
 13188  006B4E                     l2816:
 13189  006B4E  5039               	movf	___fltol@sign1^0,w,c
 13190  006B50  B4D8               	btfsc	status,2,c
 13191  006B52  EFAD  F035         	goto	u3001
 13192  006B56  EFAF  F035         	goto	u3000
 13193  006B5A                     u3001:
 13194  006B5A  EFB7  F035         	goto	l2820
 13195  006B5E                     u3000:
 13196  006B5E  1E34               	comf	(___fltol@f1+3)^0,f,c
 13197  006B60  1E33               	comf	(___fltol@f1+2)^0,f,c
 13198  006B62  1E32               	comf	(___fltol@f1+1)^0,f,c
 13199  006B64  6C31               	negf	___fltol@f1^0,c
 13200  006B66  0E00               	movlw	0
 13201  006B68  2232               	addwfc	(___fltol@f1+1)^0,f,c
 13202  006B6A  2233               	addwfc	(___fltol@f1+2)^0,f,c
 13203  006B6C  2234               	addwfc	(___fltol@f1+3)^0,f,c
 13204  006B6E                     l2820:
 13205  006B6E  C031  F031         	movff	___fltol@f1,?___fltol
 13206  006B72  C032  F032         	movff	___fltol@f1+1,?___fltol+1
 13207  006B76  C033  F033         	movff	___fltol@f1+2,?___fltol+2
 13208  006B7A  C034  F034         	movff	___fltol@f1+3,?___fltol+3
 13209  006B7E                     l477:
 13210  006B7E  0012               	return		;funcret
 13211  006B80                     __end_of___fltol:
 13212                           	opt callstack 0
 13213                           
 13214 ;; *************** function ___flsub *****************
 13215 ;; Defined at:
 13216 ;;		line 245 in file "C:\Program Files (x86)\Microchip\xc8\v2.10\pic\sources\c99\common\sprcadd.c"
 13217 ;; Parameters:    Size  Location     Type
 13218 ;;  b               4   40[COMRAM] long 
 13219 ;;  a               4   44[COMRAM] long 
 13220 ;; Auto vars:     Size  Location     Type
 13221 ;;		None
 13222 ;; Return value:  Size  Location     Type
 13223 ;;                  4   40[COMRAM] long 
 13224 ;; Registers used:
 13225 ;;		wreg, status,2, status,0, cstack
 13226 ;; Tracked objects:
 13227 ;;		On entry : 0/0
 13228 ;;		On exit  : 0/0
 13229 ;;		Unchanged: 0/0
 13230 ;; Data sizes:     COMRAM   BANK0   BANK1   BANK2   BANK3   BANK4   BANK5   BANK6   BANK7   BANK8   BANK9  BANK10  BANK1
      +1  BANK12  BANK13  BANK14  BANK15
 13231 ;;      Params:         8       0       0       0       0       0       0       0       0       0       0       0       
      +0       0       0       0       0
 13232 ;;      Locals:         0       0       0       0       0       0       0       0       0       0       0       0       
      +0       0       0       0       0
 13233 ;;      Temps:          0       0       0       0       0       0       0       0       0       0       0       0       
      +0       0       0       0       0
 13234 ;;      Totals:         8       0       0       0       0       0       0       0       0       0       0       0       
      +0       0       0       0       0
 13235 ;;Total ram usage:        8 bytes
 13236 ;; Hardware stack levels used:    1
 13237 ;; Hardware stack levels required when called:    2
 13238 ;; This function calls:
 13239 ;;		___fladd
 13240 ;; This function is called by:
 13241 ;;		_Beep
 13242 ;; This function uses a non-reentrant model
 13243 ;;
 13244                           
 13245                           	psect	text14
 13246  006EAC                     __ptext14:
 13247                           	opt callstack 0
 13248  006EAC                     ___flsub:
 13249                           	opt callstack 26
 13250  006EAC  0E00               	movlw	0
 13251  006EAE  1A2D               	xorwf	___flsub@a^0,f,c
 13252  006EB0  0E00               	movlw	0
 13253  006EB2  1A2E               	xorwf	(___flsub@a+1)^0,f,c
 13254  006EB4  0E00               	movlw	0
 13255  006EB6  1A2F               	xorwf	(___flsub@a+2)^0,f,c
 13256  006EB8  0E80               	movlw	128
 13257  006EBA  1A30               	xorwf	(___flsub@a+3)^0,f,c
 13258  006EBC  C029  F002         	movff	___flsub@b,___fladd@b
 13259  006EC0  C02A  F003         	movff	___flsub@b+1,___fladd@b+1
 13260  006EC4  C02B  F004         	movff	___flsub@b+2,___fladd@b+2
 13261  006EC8  C02C  F005         	movff	___flsub@b+3,___fladd@b+3
 13262  006ECC  C02D  F006         	movff	___flsub@a,___fladd@a
 13263  006ED0  C02E  F007         	movff	___flsub@a+1,___fladd@a+1
 13264  006ED4  C02F  F008         	movff	___flsub@a+2,___fladd@a+2
 13265  006ED8  C030  F009         	movff	___flsub@a+3,___fladd@a+3
 13266  006EDC  EC67  F02E         	call	___fladd	;wreg free
 13267  006EE0  C002  F029         	movff	?___fladd,?___flsub
 13268  006EE4  C003  F02A         	movff	?___fladd+1,?___flsub+1
 13269  006EE8  C004  F02B         	movff	?___fladd+2,?___flsub+2
 13270  006EEC  C005  F02C         	movff	?___fladd+3,?___flsub+3
 13271  006EF0  0012               	return		;funcret
 13272  006EF2                     __end_of___flsub:
 13273                           	opt callstack 0
 13274                           
 13275 ;; *************** function ___fladd *****************
 13276 ;; Defined at:
 13277 ;;		line 10 in file "C:\Program Files (x86)\Microchip\xc8\v2.10\pic\sources\c99\common\sprcadd.c"
 13278 ;; Parameters:    Size  Location     Type
 13279 ;;  b               4    1[COMRAM] long 
 13280 ;;  a               4    5[COMRAM] long 
 13281 ;; Auto vars:     Size  Location     Type
 13282 ;;  grs             1   16[COMRAM] unsigned char 
 13283 ;;  bexp            1   15[COMRAM] unsigned char 
 13284 ;;  aexp            1   14[COMRAM] unsigned char 
 13285 ;;  signs           1   13[COMRAM] unsigned char 
 13286 ;; Return value:  Size  Location     Type
 13287 ;;                  4    1[COMRAM] unsigned char 
 13288 ;; Registers used:
 13289 ;;		wreg, status,2, status,0
 13290 ;; Tracked objects:
 13291 ;;		On entry : 0/0
 13292 ;;		On exit  : 0/0
 13293 ;;		Unchanged: 0/0
 13294 ;; Data sizes:     COMRAM   BANK0   BANK1   BANK2   BANK3   BANK4   BANK5   BANK6   BANK7   BANK8   BANK9  BANK10  BANK1
      +1  BANK12  BANK13  BANK14  BANK15
 13295 ;;      Params:         8       0       0       0       0       0       0       0       0       0       0       0       
      +0       0       0       0       0
 13296 ;;      Locals:         4       0       0       0       0       0       0       0       0       0       0       0       
      +0       0       0       0       0
 13297 ;;      Temps:          4       0       0       0       0       0       0       0       0       0       0       0       
      +0       0       0       0       0
 13298 ;;      Totals:        16       0       0       0       0       0       0       0       0       0       0       0       
      +0       0       0       0       0
 13299 ;;Total ram usage:       16 bytes
 13300 ;; Hardware stack levels used:    1
 13301 ;; Hardware stack levels required when called:    1
 13302 ;; This function calls:
 13303 ;;		Nothing
 13304 ;; This function is called by:
 13305 ;;		___flsub
 13306 ;; This function uses a non-reentrant model
 13307 ;;
 13308                           
 13309                           	psect	text15
 13310  005CCE                     __ptext15:
 13311                           	opt callstack 0
 13312  005CCE                     ___fladd:
 13313                           	opt callstack 26
 13314  005CCE  5005               	movf	(___fladd@b+3)^0,w,c
 13315  005CD0  0B80               	andlw	128
 13316  005CD2  6E0E               	movwf	___fladd@signs^0,c
 13317  005CD4  5005               	movf	(___fladd@b+3)^0,w,c
 13318  005CD6  2405               	addwf	(___fladd@b+3)^0,w,c
 13319  005CD8  6E10               	movwf	___fladd@bexp^0,c
 13320  005CDA  AE04               	btfss	(___fladd@b+2)^0,7,c
 13321  005CDC  EF72  F02E         	goto	u2301
 13322  005CE0  EF74  F02E         	goto	u2300
 13323  005CE4                     u2301:
 13324  005CE4  EF75  F02E         	goto	l2408
 13325  005CE8                     u2300:
 13326  005CE8  8010               	bsf	___fladd@bexp^0,0,c
 13327  005CEA                     l2408:
 13328  005CEA  5010               	movf	___fladd@bexp^0,w,c
 13329  005CEC  B4D8               	btfsc	status,2,c
 13330  005CEE  EF7B  F02E         	goto	u2311
 13331  005CF2  EF7D  F02E         	goto	u2310
 13332  005CF6                     u2311:
 13333  005CF6  EF92  F02E         	goto	l2418
 13334  005CFA                     u2310:
 13335  005CFA  2810               	incf	___fladd@bexp^0,w,c
 13336  005CFC  A4D8               	btfss	status,2,c
 13337  005CFE  EF83  F02E         	goto	u2321
 13338  005D02  EF85  F02E         	goto	u2320
 13339  005D06                     u2321:
 13340  005D06  EF8D  F02E         	goto	l2414
 13341  005D0A                     u2320:
 13342  005D0A  0E00               	movlw	0
 13343  005D0C  6E02               	movwf	___fladd@b^0,c
 13344  005D0E  0E00               	movlw	0
 13345  005D10  6E03               	movwf	(___fladd@b+1)^0,c
 13346  005D12  0E00               	movlw	0
 13347  005D14  6E04               	movwf	(___fladd@b+2)^0,c
 13348  005D16  0E00               	movlw	0
 13349  005D18  6E05               	movwf	(___fladd@b+3)^0,c
 13350  005D1A                     l2414:
 13351  005D1A  8E04               	bsf	(___fladd@b+2)^0,7,c
 13352  005D1C  0E00               	movlw	0
 13353  005D1E  6E05               	movwf	(___fladd@b+3)^0,c
 13354  005D20  EF9A  F02E         	goto	l2420
 13355  005D24                     l2418:
 13356  005D24  0E00               	movlw	0
 13357  005D26  6E02               	movwf	___fladd@b^0,c
 13358  005D28  0E00               	movlw	0
 13359  005D2A  6E03               	movwf	(___fladd@b+1)^0,c
 13360  005D2C  0E00               	movlw	0
 13361  005D2E  6E04               	movwf	(___fladd@b+2)^0,c
 13362  005D30  0E00               	movlw	0
 13363  005D32  6E05               	movwf	(___fladd@b+3)^0,c
 13364  005D34                     l2420:
 13365  005D34  5009               	movf	(___fladd@a+3)^0,w,c
 13366  005D36  0B80               	andlw	128
 13367  005D38  6E0F               	movwf	___fladd@aexp^0,c
 13368  005D3A  500E               	movf	___fladd@signs^0,w,c
 13369  005D3C  180F               	xorwf	___fladd@aexp^0,w,c
 13370  005D3E  B4D8               	btfsc	status,2,c
 13371  005D40  EFA4  F02E         	goto	u2331
 13372  005D44  EFA6  F02E         	goto	u2330
 13373  005D48                     u2331:
 13374  005D48  EFA7  F02E         	goto	l2426
 13375  005D4C                     u2330:
 13376  005D4C  8C0E               	bsf	___fladd@signs^0,6,c
 13377  005D4E                     l2426:
 13378  005D4E  5009               	movf	(___fladd@a+3)^0,w,c
 13379  005D50  2409               	addwf	(___fladd@a+3)^0,w,c
 13380  005D52  6E0F               	movwf	___fladd@aexp^0,c
 13381  005D54  AE08               	btfss	(___fladd@a+2)^0,7,c
 13382  005D56  EFAF  F02E         	goto	u2341
 13383  005D5A  EFB1  F02E         	goto	u2340
 13384  005D5E                     u2341:
 13385  005D5E  EFB2  F02E         	goto	l2432
 13386  005D62                     u2340:
 13387  005D62  800F               	bsf	___fladd@aexp^0,0,c
 13388  005D64                     l2432:
 13389  005D64  500F               	movf	___fladd@aexp^0,w,c
 13390  005D66  B4D8               	btfsc	status,2,c
 13391  005D68  EFB8  F02E         	goto	u2351
 13392  005D6C  EFBA  F02E         	goto	u2350
 13393  005D70                     u2351:
 13394  005D70  EFCF  F02E         	goto	l2442
 13395  005D74                     u2350:
 13396  005D74  280F               	incf	___fladd@aexp^0,w,c
 13397  005D76  A4D8               	btfss	status,2,c
 13398  005D78  EFC0  F02E         	goto	u2361
 13399  005D7C  EFC2  F02E         	goto	u2360
 13400  005D80                     u2361:
 13401  005D80  EFCA  F02E         	goto	l2438
 13402  005D84                     u2360:
 13403  005D84  0E00               	movlw	0
 13404  005D86  6E06               	movwf	___fladd@a^0,c
 13405  005D88  0E00               	movlw	0
 13406  005D8A  6E07               	movwf	(___fladd@a+1)^0,c
 13407  005D8C  0E00               	movlw	0
 13408  005D8E  6E08               	movwf	(___fladd@a+2)^0,c
 13409  005D90  0E00               	movlw	0
 13410  005D92  6E09               	movwf	(___fladd@a+3)^0,c
 13411  005D94                     l2438:
 13412  005D94  8E08               	bsf	(___fladd@a+2)^0,7,c
 13413  005D96  0E00               	movlw	0
 13414  005D98  6E09               	movwf	(___fladd@a+3)^0,c
 13415  005D9A  EFD7  F02E         	goto	l2444
 13416  005D9E                     l2442:
 13417  005D9E  0E00               	movlw	0
 13418  005DA0  6E06               	movwf	___fladd@a^0,c
 13419  005DA2  0E00               	movlw	0
 13420  005DA4  6E07               	movwf	(___fladd@a+1)^0,c
 13421  005DA6  0E00               	movlw	0
 13422  005DA8  6E08               	movwf	(___fladd@a+2)^0,c
 13423  005DAA  0E00               	movlw	0
 13424  005DAC  6E09               	movwf	(___fladd@a+3)^0,c
 13425  005DAE                     l2444:
 13426  005DAE  5010               	movf	___fladd@bexp^0,w,c
 13427  005DB0  5C0F               	subwf	___fladd@aexp^0,w,c
 13428  005DB2  B0D8               	btfsc	status,0,c
 13429  005DB4  EFDE  F02E         	goto	u2371
 13430  005DB8  EFE0  F02E         	goto	u2370
 13431  005DBC                     u2371:
 13432  005DBC  EF07  F02F         	goto	l2480
 13433  005DC0                     u2370:
 13434  005DC0  AC0E               	btfss	___fladd@signs^0,6,c
 13435  005DC2  EFE5  F02E         	goto	u2381
 13436  005DC6  EFE7  F02E         	goto	u2380
 13437  005DCA                     u2381:
 13438  005DCA  EFE9  F02E         	goto	l2450
 13439  005DCE                     u2380:
 13440  005DCE  0E80               	movlw	128
 13441  005DD0  1A0E               	xorwf	___fladd@signs^0,f,c
 13442  005DD2                     l2450:
 13443  005DD2  C010  F011         	movff	___fladd@bexp,___fladd@grs
 13444  005DD6  C00F  F010         	movff	___fladd@aexp,___fladd@bexp
 13445  005DDA  C011  F00F         	movff	___fladd@grs,___fladd@aexp
 13446  005DDE  C002  F011         	movff	___fladd@b,___fladd@grs
 13447  005DE2  C006  F002         	movff	___fladd@a,___fladd@b
 13448  005DE6  C011  F006         	movff	___fladd@grs,___fladd@a
 13449  005DEA  C003  F011         	movff	___fladd@b+1,___fladd@grs
 13450  005DEE  C007  F003         	movff	___fladd@a+1,___fladd@b+1
 13451  005DF2  C011  F007         	movff	___fladd@grs,___fladd@a+1
 13452  005DF6  C004  F011         	movff	___fladd@b+2,___fladd@grs
 13453  005DFA  C008  F004         	movff	___fladd@a+2,___fladd@b+2
 13454  005DFE  C011  F008         	movff	___fladd@grs,___fladd@a+2
 13455  005E02  C005  F011         	movff	___fladd@b+3,___fladd@grs
 13456  005E06  C009  F005         	movff	___fladd@a+3,___fladd@b+3
 13457  005E0A  C011  F009         	movff	___fladd@grs,___fladd@a+3
 13458  005E0E                     l2480:
 13459  005E0E  0E00               	movlw	0
 13460  005E10  6E11               	movwf	___fladd@grs^0,c
 13461  005E12  5010               	movf	___fladd@bexp^0,w,c
 13462  005E14  C00F  F00A         	movff	___fladd@aexp,??___fladd
 13463  005E18  6A0B               	clrf	(??___fladd+1)^0,c
 13464  005E1A  5E0A               	subwf	??___fladd^0,f,c
 13465  005E1C  0E00               	movlw	0
 13466  005E1E  5A0B               	subwfb	(??___fladd+1)^0,f,c
 13467  005E20  BE0B               	btfsc	(??___fladd+1)^0,7,c
 13468  005E22  EF1C  F02F         	goto	u2391
 13469  005E26  500B               	movf	(??___fladd+1)^0,w,c
 13470  005E28  E109               	bnz	u2390
 13471  005E2A  0E1A               	movlw	26
 13472  005E2C  5C0A               	subwf	??___fladd^0,w,c
 13473  005E2E  A0D8               	btfss	status,0,c
 13474  005E30  EF1C  F02F         	goto	u2391
 13475  005E34  EF1E  F02F         	goto	u2390
 13476  005E38                     u2391:
 13477  005E38  EF55  F02F         	goto	l709
 13478  005E3C                     u2390:
 13479  005E3C  5002               	movf	___fladd@b^0,w,c
 13480  005E3E  1003               	iorwf	(___fladd@b+1)^0,w,c
 13481  005E40  1004               	iorwf	(___fladd@b+2)^0,w,c
 13482  005E42  1005               	iorwf	(___fladd@b+3)^0,w,c
 13483  005E44  A4D8               	btfss	status,2,c
 13484  005E46  EF27  F02F         	goto	u2401
 13485  005E4A  EF2A  F02F         	goto	u2400
 13486  005E4E                     u2401:
 13487  005E4E  0E01               	movlw	1
 13488  005E50  EF2B  F02F         	goto	u2410
 13489  005E54                     u2400:
 13490  005E54  0E00               	movlw	0
 13491  005E56                     u2410:
 13492  005E56  6E11               	movwf	___fladd@grs^0,c
 13493  005E58  0E00               	movlw	0
 13494  005E5A  6E02               	movwf	___fladd@b^0,c
 13495  005E5C  0E00               	movlw	0
 13496  005E5E  6E03               	movwf	(___fladd@b+1)^0,c
 13497  005E60  0E00               	movlw	0
 13498  005E62  6E04               	movwf	(___fladd@b+2)^0,c
 13499  005E64  0E00               	movlw	0
 13500  005E66  6E05               	movwf	(___fladd@b+3)^0,c
 13501  005E68  C00F  F010         	movff	___fladd@aexp,___fladd@bexp
 13502  005E6C  EF5E  F02F         	goto	l708
 13503  005E70                     l710:
 13504  005E70  A011               	btfss	___fladd@grs^0,0,c
 13505  005E72  EF3D  F02F         	goto	u2421
 13506  005E76  EF3F  F02F         	goto	u2420
 13507  005E7A                     u2421:
 13508  005E7A  EF45  F02F         	goto	l2492
 13509  005E7E                     u2420:
 13510  005E7E  90D8               	bcf	status,0,c
 13511  005E80  3011               	rrcf	___fladd@grs^0,w,c
 13512  005E82  0901               	iorlw	1
 13513  005E84  6E11               	movwf	___fladd@grs^0,c
 13514  005E86  EF47  F02F         	goto	l2494
 13515  005E8A                     l2492:
 13516  005E8A  90D8               	bcf	status,0,c
 13517  005E8C  3211               	rrcf	___fladd@grs^0,f,c
 13518  005E8E                     l2494:
 13519  005E8E  A002               	btfss	___fladd@b^0,0,c
 13520  005E90  EF4C  F02F         	goto	u2431
 13521  005E94  EF4E  F02F         	goto	u2430
 13522  005E98                     u2431:
 13523  005E98  EF4F  F02F         	goto	l2498
 13524  005E9C                     u2430:
 13525  005E9C  8E11               	bsf	___fladd@grs^0,7,c
 13526  005E9E                     l2498:
 13527  005E9E  3405               	rlcf	(___fladd@b+3)^0,w,c
 13528  005EA0  3205               	rrcf	(___fladd@b+3)^0,f,c
 13529  005EA2  3204               	rrcf	(___fladd@b+2)^0,f,c
 13530  005EA4  3203               	rrcf	(___fladd@b+1)^0,f,c
 13531  005EA6  3202               	rrcf	___fladd@b^0,f,c
 13532  005EA8  2A10               	incf	___fladd@bexp^0,f,c
 13533  005EAA                     l709:
 13534  005EAA  500F               	movf	___fladd@aexp^0,w,c
 13535  005EAC  5C10               	subwf	___fladd@bexp^0,w,c
 13536  005EAE  A0D8               	btfss	status,0,c
 13537  005EB0  EF5C  F02F         	goto	u2441
 13538  005EB4  EF5E  F02F         	goto	u2440
 13539  005EB8                     u2441:
 13540  005EB8  EF38  F02F         	goto	l710
 13541  005EBC                     u2440:
 13542  005EBC                     l708:
 13543  005EBC  BC0E               	btfsc	___fladd@signs^0,6,c
 13544  005EBE  EF63  F02F         	goto	u2451
 13545  005EC2  EF65  F02F         	goto	u2450
 13546  005EC6                     u2451:
 13547  005EC6  EFA5  F02F         	goto	l2526
 13548  005ECA                     u2450:
 13549  005ECA  5010               	movf	___fladd@bexp^0,w,c
 13550  005ECC  A4D8               	btfss	status,2,c
 13551  005ECE  EF6B  F02F         	goto	u2461
 13552  005ED2  EF6D  F02F         	goto	u2460
 13553  005ED6                     u2461:
 13554  005ED6  EF77  F02F         	goto	l2508
 13555  005EDA                     u2460:
 13556  005EDA  0E00               	movlw	0
 13557  005EDC  6E02               	movwf	?___fladd^0,c
 13558  005EDE  0E00               	movlw	0
 13559  005EE0  6E03               	movwf	(?___fladd+1)^0,c
 13560  005EE2  0E00               	movlw	0
 13561  005EE4  6E04               	movwf	(?___fladd+2)^0,c
 13562  005EE6  0E00               	movlw	0
 13563  005EE8  6E05               	movwf	(?___fladd+3)^0,c
 13564  005EEA  EFC6  F030         	goto	l717
 13565  005EEE                     l2508:
 13566  005EEE  5006               	movf	___fladd@a^0,w,c
 13567  005EF0  2602               	addwf	___fladd@b^0,f,c
 13568  005EF2  5007               	movf	(___fladd@a+1)^0,w,c
 13569  005EF4  2203               	addwfc	(___fladd@b+1)^0,f,c
 13570  005EF6  5008               	movf	(___fladd@a+2)^0,w,c
 13571  005EF8  2204               	addwfc	(___fladd@b+2)^0,f,c
 13572  005EFA  5009               	movf	(___fladd@a+3)^0,w,c
 13573  005EFC  2205               	addwfc	(___fladd@b+3)^0,f,c
 13574  005EFE  A005               	btfss	(___fladd@b+3)^0,0,c
 13575  005F00  EF84  F02F         	goto	u2471
 13576  005F04  EF86  F02F         	goto	u2470
 13577  005F08                     u2471:
 13578  005F08  EF32  F030         	goto	l2562
 13579  005F0C                     u2470:
 13580  005F0C  A011               	btfss	___fladd@grs^0,0,c
 13581  005F0E  EF8B  F02F         	goto	u2481
 13582  005F12  EF8D  F02F         	goto	u2480
 13583  005F16                     u2481:
 13584  005F16  EF93  F02F         	goto	l2516
 13585  005F1A                     u2480:
 13586  005F1A  90D8               	bcf	status,0,c
 13587  005F1C  3011               	rrcf	___fladd@grs^0,w,c
 13588  005F1E  0901               	iorlw	1
 13589  005F20  6E11               	movwf	___fladd@grs^0,c
 13590  005F22  EF95  F02F         	goto	l2518
 13591  005F26                     l2516:
 13592  005F26  90D8               	bcf	status,0,c
 13593  005F28  3211               	rrcf	___fladd@grs^0,f,c
 13594  005F2A                     l2518:
 13595  005F2A  A002               	btfss	___fladd@b^0,0,c
 13596  005F2C  EF9A  F02F         	goto	u2491
 13597  005F30  EF9C  F02F         	goto	u2490
 13598  005F34                     u2491:
 13599  005F34  EF9D  F02F         	goto	l2522
 13600  005F38                     u2490:
 13601  005F38  8E11               	bsf	___fladd@grs^0,7,c
 13602  005F3A                     l2522:
 13603  005F3A  3405               	rlcf	(___fladd@b+3)^0,w,c
 13604  005F3C  3205               	rrcf	(___fladd@b+3)^0,f,c
 13605  005F3E  3204               	rrcf	(___fladd@b+2)^0,f,c
 13606  005F40  3203               	rrcf	(___fladd@b+1)^0,f,c
 13607  005F42  3202               	rrcf	___fladd@b^0,f,c
 13608  005F44  2A10               	incf	___fladd@bexp^0,f,c
 13609  005F46  EF32  F030         	goto	l2562
 13610  005F4A                     l2526:
 13611  005F4A  5006               	movf	___fladd@a^0,w,c
 13612  005F4C  5C02               	subwf	___fladd@b^0,w,c
 13613  005F4E  5007               	movf	(___fladd@a+1)^0,w,c
 13614  005F50  5803               	subwfb	(___fladd@b+1)^0,w,c
 13615  005F52  5008               	movf	(___fladd@a+2)^0,w,c
 13616  005F54  5804               	subwfb	(___fladd@b+2)^0,w,c
 13617  005F56  5005               	movf	(___fladd@b+3)^0,w,c
 13618  005F58  0A80               	xorlw	128
 13619  005F5A  6E0A               	movwf	??___fladd^0,c
 13620  005F5C  5009               	movf	(___fladd@a+3)^0,w,c
 13621  005F5E  0A80               	xorlw	128
 13622  005F60  580A               	subwfb	??___fladd^0,w,c
 13623  005F62  B0D8               	btfsc	status,0,c
 13624  005F64  EFB6  F02F         	goto	u2501
 13625  005F68  EFB8  F02F         	goto	u2500
 13626  005F6C                     u2501:
 13627  005F6C  EFE3  F02F         	goto	l2536
 13628  005F70                     u2500:
 13629  005F70  5002               	movf	___fladd@b^0,w,c
 13630  005F72  5C06               	subwf	___fladd@a^0,w,c
 13631  005F74  6E0A               	movwf	??___fladd^0,c
 13632  005F76  5003               	movf	(___fladd@b+1)^0,w,c
 13633  005F78  5807               	subwfb	(___fladd@a+1)^0,w,c
 13634  005F7A  6E0B               	movwf	(??___fladd+1)^0,c
 13635  005F7C  5004               	movf	(___fladd@b+2)^0,w,c
 13636  005F7E  5808               	subwfb	(___fladd@a+2)^0,w,c
 13637  005F80  6E0C               	movwf	(??___fladd+2)^0,c
 13638  005F82  5005               	movf	(___fladd@b+3)^0,w,c
 13639  005F84  5809               	subwfb	(___fladd@a+3)^0,w,c
 13640  005F86  6E0D               	movwf	(??___fladd+3)^0,c
 13641  005F88  0EFF               	movlw	255
 13642  005F8A  240A               	addwf	??___fladd^0,w,c
 13643  005F8C  6E02               	movwf	___fladd@b^0,c
 13644  005F8E  0EFF               	movlw	255
 13645  005F90  200B               	addwfc	(??___fladd+1)^0,w,c
 13646  005F92  6E03               	movwf	(___fladd@b+1)^0,c
 13647  005F94  0EFF               	movlw	255
 13648  005F96  200C               	addwfc	(??___fladd+2)^0,w,c
 13649  005F98  6E04               	movwf	(___fladd@b+2)^0,c
 13650  005F9A  0EFF               	movlw	255
 13651  005F9C  200D               	addwfc	(??___fladd+3)^0,w,c
 13652  005F9E  6E05               	movwf	(___fladd@b+3)^0,c
 13653  005FA0  0E80               	movlw	128
 13654  005FA2  1A0E               	xorwf	___fladd@signs^0,f,c
 13655  005FA4  6C11               	negf	___fladd@grs^0,c
 13656  005FA6  5011               	movf	___fladd@grs^0,w,c
 13657  005FA8  A4D8               	btfss	status,2,c
 13658  005FAA  EFD9  F02F         	goto	u2511
 13659  005FAE  EFDB  F02F         	goto	u2510
 13660  005FB2                     u2511:
 13661  005FB2  EFEB  F02F         	goto	l725
 13662  005FB6                     u2510:
 13663  005FB6  0E01               	movlw	1
 13664  005FB8  2602               	addwf	___fladd@b^0,f,c
 13665  005FBA  0E00               	movlw	0
 13666  005FBC  2203               	addwfc	(___fladd@b+1)^0,f,c
 13667  005FBE  2204               	addwfc	(___fladd@b+2)^0,f,c
 13668  005FC0  2205               	addwfc	(___fladd@b+3)^0,f,c
 13669  005FC2  EFEB  F02F         	goto	l725
 13670  005FC6                     l2536:
 13671  005FC6  5006               	movf	___fladd@a^0,w,c
 13672  005FC8  5E02               	subwf	___fladd@b^0,f,c
 13673  005FCA  5007               	movf	(___fladd@a+1)^0,w,c
 13674  005FCC  5A03               	subwfb	(___fladd@b+1)^0,f,c
 13675  005FCE  5008               	movf	(___fladd@a+2)^0,w,c
 13676  005FD0  5A04               	subwfb	(___fladd@b+2)^0,f,c
 13677  005FD2  5009               	movf	(___fladd@a+3)^0,w,c
 13678  005FD4  5A05               	subwfb	(___fladd@b+3)^0,f,c
 13679  005FD6                     l725:
 13680  005FD6  5002               	movf	___fladd@b^0,w,c
 13681  005FD8  1003               	iorwf	(___fladd@b+1)^0,w,c
 13682  005FDA  1004               	iorwf	(___fladd@b+2)^0,w,c
 13683  005FDC  1005               	iorwf	(___fladd@b+3)^0,w,c
 13684  005FDE  A4D8               	btfss	status,2,c
 13685  005FE0  EFF4  F02F         	goto	u2521
 13686  005FE4  EFF6  F02F         	goto	u2520
 13687  005FE8                     u2521:
 13688  005FE8  EF2B  F030         	goto	l2560
 13689  005FEC                     u2520:
 13690  005FEC  5011               	movf	___fladd@grs^0,w,c
 13691  005FEE  A4D8               	btfss	status,2,c
 13692  005FF0  EFFC  F02F         	goto	u2531
 13693  005FF4  EFFE  F02F         	goto	u2530
 13694  005FF8                     u2531:
 13695  005FF8  EF2B  F030         	goto	l2560
 13696  005FFC                     u2530:
 13697  005FFC  0E00               	movlw	0
 13698  005FFE  6E02               	movwf	?___fladd^0,c
 13699  006000  0E00               	movlw	0
 13700  006002  6E03               	movwf	(?___fladd+1)^0,c
 13701  006004  0E00               	movlw	0
 13702  006006  6E04               	movwf	(?___fladd+2)^0,c
 13703  006008  0E00               	movlw	0
 13704  00600A  6E05               	movwf	(?___fladd+3)^0,c
 13705  00600C  EFC6  F030         	goto	l717
 13706  006010                     l2544:
 13707  006010  90D8               	bcf	status,0,c
 13708  006012  3602               	rlcf	___fladd@b^0,f,c
 13709  006014  3603               	rlcf	(___fladd@b+1)^0,f,c
 13710  006016  3604               	rlcf	(___fladd@b+2)^0,f,c
 13711  006018  3605               	rlcf	(___fladd@b+3)^0,f,c
 13712  00601A  AE11               	btfss	___fladd@grs^0,7,c
 13713  00601C  EF12  F030         	goto	u2541
 13714  006020  EF14  F030         	goto	u2540
 13715  006024                     u2541:
 13716  006024  EF15  F030         	goto	l2550
 13717  006028                     u2540:
 13718  006028  8002               	bsf	___fladd@b^0,0,c
 13719  00602A                     l2550:
 13720  00602A  A011               	btfss	___fladd@grs^0,0,c
 13721  00602C  EF1A  F030         	goto	u2551
 13722  006030  EF1C  F030         	goto	u2550
 13723  006034                     u2551:
 13724  006034  EF20  F030         	goto	l2554
 13725  006038                     u2550:
 13726  006038  80D8               	bsf	status,0,c
 13727  00603A  3611               	rlcf	___fladd@grs^0,f,c
 13728  00603C  EF22  F030         	goto	l2556
 13729  006040                     l2554:
 13730  006040  90D8               	bcf	status,0,c
 13731  006042  3611               	rlcf	___fladd@grs^0,f,c
 13732  006044                     l2556:
 13733  006044  5010               	movf	___fladd@bexp^0,w,c
 13734  006046  B4D8               	btfsc	status,2,c
 13735  006048  EF28  F030         	goto	u2561
 13736  00604C  EF2A  F030         	goto	u2560
 13737  006050                     u2561:
 13738  006050  EF2B  F030         	goto	l2560
 13739  006054                     u2560:
 13740  006054  0610               	decf	___fladd@bexp^0,f,c
 13741  006056                     l2560:
 13742  006056  AE04               	btfss	(___fladd@b+2)^0,7,c
 13743  006058  EF30  F030         	goto	u2571
 13744  00605C  EF32  F030         	goto	u2570
 13745  006060                     u2571:
 13746  006060  EF08  F030         	goto	l2544
 13747  006064                     u2570:
 13748  006064                     l2562:
 13749  006064  0E00               	movlw	0
 13750  006066  6E0F               	movwf	___fladd@aexp^0,c
 13751  006068  AE11               	btfss	___fladd@grs^0,7,c
 13752  00606A  EF39  F030         	goto	u2581
 13753  00606E  EF3B  F030         	goto	u2580
 13754  006072                     u2581:
 13755  006072  EF53  F030         	goto	l734
 13756  006076                     u2580:
 13757  006076  C011  F00A         	movff	___fladd@grs,??___fladd
 13758  00607A  0E7F               	movlw	127
 13759  00607C  160A               	andwf	??___fladd^0,f,c
 13760  00607E  B4D8               	btfsc	status,2,c
 13761  006080  EF44  F030         	goto	u2591
 13762  006084  EF46  F030         	goto	u2590
 13763  006088                     u2591:
 13764  006088  EF4A  F030         	goto	l735
 13765  00608C                     u2590:
 13766  00608C                     l2568:
 13767  00608C  0E01               	movlw	1
 13768  00608E  6E0F               	movwf	___fladd@aexp^0,c
 13769  006090  EF53  F030         	goto	l734
 13770  006094                     l735:
 13771  006094  A002               	btfss	___fladd@b^0,0,c
 13772  006096  EF4F  F030         	goto	u2601
 13773  00609A  EF51  F030         	goto	u2600
 13774  00609E                     u2601:
 13775  00609E  EF53  F030         	goto	l734
 13776  0060A2                     u2600:
 13777  0060A2  EF46  F030         	goto	l2568
 13778  0060A6                     l734:
 13779  0060A6  500F               	movf	___fladd@aexp^0,w,c
 13780  0060A8  B4D8               	btfsc	status,2,c
 13781  0060AA  EF59  F030         	goto	u2611
 13782  0060AE  EF5B  F030         	goto	u2610
 13783  0060B2                     u2611:
 13784  0060B2  EF86  F030         	goto	l2580
 13785  0060B6                     u2610:
 13786  0060B6  0E01               	movlw	1
 13787  0060B8  2602               	addwf	___fladd@b^0,f,c
 13788  0060BA  0E00               	movlw	0
 13789  0060BC  2203               	addwfc	(___fladd@b+1)^0,f,c
 13790  0060BE  2204               	addwfc	(___fladd@b+2)^0,f,c
 13791  0060C0  2205               	addwfc	(___fladd@b+3)^0,f,c
 13792  0060C2  A005               	btfss	(___fladd@b+3)^0,0,c
 13793  0060C4  EF66  F030         	goto	u2621
 13794  0060C8  EF68  F030         	goto	u2620
 13795  0060CC                     u2621:
 13796  0060CC  EF86  F030         	goto	l2580
 13797  0060D0                     u2620:
 13798  0060D0  C002  F00A         	movff	___fladd@b,??___fladd
 13799  0060D4  C003  F00B         	movff	___fladd@b+1,??___fladd+1
 13800  0060D8  C004  F00C         	movff	___fladd@b+2,??___fladd+2
 13801  0060DC  C005  F00D         	movff	___fladd@b+3,??___fladd+3
 13802  0060E0  340D               	rlcf	(??___fladd+3)^0,w,c
 13803  0060E2  320D               	rrcf	(??___fladd+3)^0,f,c
 13804  0060E4  320C               	rrcf	(??___fladd+2)^0,f,c
 13805  0060E6  320B               	rrcf	(??___fladd+1)^0,f,c
 13806  0060E8  320A               	rrcf	??___fladd^0,f,c
 13807  0060EA  C00A  F002         	movff	??___fladd,___fladd@b
 13808  0060EE  C00B  F003         	movff	??___fladd+1,___fladd@b+1
 13809  0060F2  C00C  F004         	movff	??___fladd+2,___fladd@b+2
 13810  0060F6  C00D  F005         	movff	??___fladd+3,___fladd@b+3
 13811  0060FA  2810               	incf	___fladd@bexp^0,w,c
 13812  0060FC  B4D8               	btfsc	status,2,c
 13813  0060FE  EF83  F030         	goto	u2631
 13814  006102  EF85  F030         	goto	u2630
 13815  006106                     u2631:
 13816  006106  EF86  F030         	goto	l2580
 13817  00610A                     u2630:
 13818  00610A  2A10               	incf	___fladd@bexp^0,f,c
 13819  00610C                     l2580:
 13820  00610C  2810               	incf	___fladd@bexp^0,w,c
 13821  00610E  B4D8               	btfsc	status,2,c
 13822  006110  EF8C  F030         	goto	u2641
 13823  006114  EF8E  F030         	goto	u2640
 13824  006118                     u2641:
 13825  006118  EF96  F030         	goto	l2584
 13826  00611C                     u2640:
 13827  00611C  5010               	movf	___fladd@bexp^0,w,c
 13828  00611E  A4D8               	btfss	status,2,c
 13829  006120  EF94  F030         	goto	u2651
 13830  006124  EF96  F030         	goto	u2650
 13831  006128                     u2651:
 13832  006128  EFA8  F030         	goto	l2588
 13833  00612C                     u2650:
 13834  00612C                     l2584:
 13835  00612C  0E00               	movlw	0
 13836  00612E  6E02               	movwf	___fladd@b^0,c
 13837  006130  0E00               	movlw	0
 13838  006132  6E03               	movwf	(___fladd@b+1)^0,c
 13839  006134  0E00               	movlw	0
 13840  006136  6E04               	movwf	(___fladd@b+2)^0,c
 13841  006138  0E00               	movlw	0
 13842  00613A  6E05               	movwf	(___fladd@b+3)^0,c
 13843  00613C  5010               	movf	___fladd@bexp^0,w,c
 13844  00613E  A4D8               	btfss	status,2,c
 13845  006140  EFA4  F030         	goto	u2661
 13846  006144  EFA6  F030         	goto	u2660
 13847  006148                     u2661:
 13848  006148  EFA8  F030         	goto	l2588
 13849  00614C                     u2660:
 13850  00614C  0E00               	movlw	0
 13851  00614E  6E0E               	movwf	___fladd@signs^0,c
 13852  006150                     l2588:
 13853  006150  A010               	btfss	___fladd@bexp^0,0,c
 13854  006152  EFAD  F030         	goto	u2671
 13855  006156  EFAF  F030         	goto	u2670
 13856  00615A                     u2671:
 13857  00615A  EFB2  F030         	goto	l2592
 13858  00615E                     u2670:
 13859  00615E  8E04               	bsf	(___fladd@b+2)^0,7,c
 13860  006160  EFB3  F030         	goto	l2594
 13861  006164                     l2592:
 13862  006164  9E04               	bcf	(___fladd@b+2)^0,7,c
 13863  006166                     l2594:
 13864  006166  90D8               	bcf	status,0,c
 13865  006168  3010               	rrcf	___fladd@bexp^0,w,c
 13866  00616A  6E05               	movwf	(___fladd@b+3)^0,c
 13867  00616C  AE0E               	btfss	___fladd@signs^0,7,c
 13868  00616E  EFBB  F030         	goto	u2681
 13869  006172  EFBD  F030         	goto	u2680
 13870  006176                     u2681:
 13871  006176  EFBE  F030         	goto	l2600
 13872  00617A                     u2680:
 13873  00617A  8E05               	bsf	(___fladd@b+3)^0,7,c
 13874  00617C                     l2600:
 13875  00617C  C002  F002         	movff	___fladd@b,?___fladd
 13876  006180  C003  F003         	movff	___fladd@b+1,?___fladd+1
 13877  006184  C004  F004         	movff	___fladd@b+2,?___fladd+2
 13878  006188  C005  F005         	movff	___fladd@b+3,?___fladd+3
 13879  00618C                     l717:
 13880  00618C  0012               	return		;funcret
 13881  00618E                     __end_of___fladd:
 13882                           	opt callstack 0
 13883                           
 13884 ;; *************** function ___fldiv *****************
 13885 ;; Defined at:
 13886 ;;		line 11 in file "C:\Program Files (x86)\Microchip\xc8\v2.10\pic\sources\c99\common\sprcdiv.c"
 13887 ;; Parameters:    Size  Location     Type
 13888 ;;  b               4   15[COMRAM] unsigned char 
 13889 ;;  a               4   19[COMRAM] unsigned char 
 13890 ;; Auto vars:     Size  Location     Type
 13891 ;;  grs             4   34[COMRAM] unsigned long 
 13892 ;;  rem             4   27[COMRAM] unsigned long 
 13893 ;;  new_exp         2   32[COMRAM] short 
 13894 ;;  aexp            1   39[COMRAM] unsigned char 
 13895 ;;  bexp            1   38[COMRAM] unsigned char 
 13896 ;;  sign            1   31[COMRAM] unsigned char 
 13897 ;; Return value:  Size  Location     Type
 13898 ;;                  4   15[COMRAM] unsigned char 
 13899 ;; Registers used:
 13900 ;;		wreg, status,2, status,0
 13901 ;; Tracked objects:
 13902 ;;		On entry : 0/0
 13903 ;;		On exit  : 0/0
 13904 ;;		Unchanged: 0/0
 13905 ;; Data sizes:     COMRAM   BANK0   BANK1   BANK2   BANK3   BANK4   BANK5   BANK6   BANK7   BANK8   BANK9  BANK10  BANK1
      +1  BANK12  BANK13  BANK14  BANK15
 13906 ;;      Params:         8       0       0       0       0       0       0       0       0       0       0       0       
      +0       0       0       0       0
 13907 ;;      Locals:        13       0       0       0       0       0       0       0       0       0       0       0       
      +0       0       0       0       0
 13908 ;;      Temps:          4       0       0       0       0       0       0       0       0       0       0       0       
      +0       0       0       0       0
 13909 ;;      Totals:        25       0       0       0       0       0       0       0       0       0       0       0       
      +0       0       0       0       0
 13910 ;;Total ram usage:       25 bytes
 13911 ;; Hardware stack levels used:    1
 13912 ;; Hardware stack levels required when called:    1
 13913 ;; This function calls:
 13914 ;;		Nothing
 13915 ;; This function is called by:
 13916 ;;		_Beep
 13917 ;; This function uses a non-reentrant model
 13918 ;;
 13919                           
 13920                           	psect	text16
 13921  00618E                     __ptext16:
 13922                           	opt callstack 0
 13923  00618E                     ___fldiv:
 13924                           	opt callstack 27
 13925  00618E  5013               	movf	(___fldiv@b+3)^0,w,c
 13926  006190  0B80               	andlw	128
 13927  006192  6E20               	movwf	___fldiv@sign^0,c
 13928  006194  5013               	movf	(___fldiv@b+3)^0,w,c
 13929  006196  2413               	addwf	(___fldiv@b+3)^0,w,c
 13930  006198  6E27               	movwf	___fldiv@bexp^0,c
 13931  00619A  AE12               	btfss	(___fldiv@b+2)^0,7,c
 13932  00619C  EFD2  F030         	goto	u2711
 13933  0061A0  EFD4  F030         	goto	u2710
 13934  0061A4                     u2711:
 13935  0061A4  EFD5  F030         	goto	l2642
 13936  0061A8                     u2710:
 13937  0061A8  8027               	bsf	___fldiv@bexp^0,0,c
 13938  0061AA                     l2642:
 13939  0061AA  5027               	movf	___fldiv@bexp^0,w,c
 13940  0061AC  B4D8               	btfsc	status,2,c
 13941  0061AE  EFDB  F030         	goto	u2721
 13942  0061B2  EFDD  F030         	goto	u2720
 13943  0061B6                     u2721:
 13944  0061B6  EFF2  F030         	goto	l2652
 13945  0061BA                     u2720:
 13946  0061BA  2827               	incf	___fldiv@bexp^0,w,c
 13947  0061BC  A4D8               	btfss	status,2,c
 13948  0061BE  EFE3  F030         	goto	u2731
 13949  0061C2  EFE5  F030         	goto	u2730
 13950  0061C6                     u2731:
 13951  0061C6  EFED  F030         	goto	l2648
 13952  0061CA                     u2730:
 13953  0061CA  0E00               	movlw	0
 13954  0061CC  6E10               	movwf	___fldiv@b^0,c
 13955  0061CE  0E00               	movlw	0
 13956  0061D0  6E11               	movwf	(___fldiv@b+1)^0,c
 13957  0061D2  0E00               	movlw	0
 13958  0061D4  6E12               	movwf	(___fldiv@b+2)^0,c
 13959  0061D6  0E00               	movlw	0
 13960  0061D8  6E13               	movwf	(___fldiv@b+3)^0,c
 13961  0061DA                     l2648:
 13962  0061DA  8E12               	bsf	(___fldiv@b+2)^0,7,c
 13963  0061DC  0E00               	movlw	0
 13964  0061DE  6E13               	movwf	(___fldiv@b+3)^0,c
 13965  0061E0  EFFA  F030         	goto	l2654
 13966  0061E4                     l2652:
 13967  0061E4  0E00               	movlw	0
 13968  0061E6  6E10               	movwf	___fldiv@b^0,c
 13969  0061E8  0E00               	movlw	0
 13970  0061EA  6E11               	movwf	(___fldiv@b+1)^0,c
 13971  0061EC  0E00               	movlw	0
 13972  0061EE  6E12               	movwf	(___fldiv@b+2)^0,c
 13973  0061F0  0E00               	movlw	0
 13974  0061F2  6E13               	movwf	(___fldiv@b+3)^0,c
 13975  0061F4                     l2654:
 13976  0061F4  5017               	movf	(___fldiv@a+3)^0,w,c
 13977  0061F6  0B80               	andlw	128
 13978  0061F8  1A20               	xorwf	___fldiv@sign^0,f,c
 13979  0061FA  5017               	movf	(___fldiv@a+3)^0,w,c
 13980  0061FC  2417               	addwf	(___fldiv@a+3)^0,w,c
 13981  0061FE  6E28               	movwf	___fldiv@aexp^0,c
 13982  006200  AE16               	btfss	(___fldiv@a+2)^0,7,c
 13983  006202  EF05  F031         	goto	u2741
 13984  006206  EF07  F031         	goto	u2740
 13985  00620A                     u2741:
 13986  00620A  EF08  F031         	goto	l2662
 13987  00620E                     u2740:
 13988  00620E  8028               	bsf	___fldiv@aexp^0,0,c
 13989  006210                     l2662:
 13990  006210  5028               	movf	___fldiv@aexp^0,w,c
 13991  006212  B4D8               	btfsc	status,2,c
 13992  006214  EF0E  F031         	goto	u2751
 13993  006218  EF10  F031         	goto	u2750
 13994  00621C                     u2751:
 13995  00621C  EF25  F031         	goto	l2672
 13996  006220                     u2750:
 13997  006220  2828               	incf	___fldiv@aexp^0,w,c
 13998  006222  A4D8               	btfss	status,2,c
 13999  006224  EF16  F031         	goto	u2761
 14000  006228  EF18  F031         	goto	u2760
 14001  00622C                     u2761:
 14002  00622C  EF20  F031         	goto	l2668
 14003  006230                     u2760:
 14004  006230  0E00               	movlw	0
 14005  006232  6E14               	movwf	___fldiv@a^0,c
 14006  006234  0E00               	movlw	0
 14007  006236  6E15               	movwf	(___fldiv@a+1)^0,c
 14008  006238  0E00               	movlw	0
 14009  00623A  6E16               	movwf	(___fldiv@a+2)^0,c
 14010  00623C  0E00               	movlw	0
 14011  00623E  6E17               	movwf	(___fldiv@a+3)^0,c
 14012  006240                     l2668:
 14013  006240  8E16               	bsf	(___fldiv@a+2)^0,7,c
 14014  006242  0E00               	movlw	0
 14015  006244  6E17               	movwf	(___fldiv@a+3)^0,c
 14016  006246  EF2D  F031         	goto	l2674
 14017  00624A                     l2672:
 14018  00624A  0E00               	movlw	0
 14019  00624C  6E14               	movwf	___fldiv@a^0,c
 14020  00624E  0E00               	movlw	0
 14021  006250  6E15               	movwf	(___fldiv@a+1)^0,c
 14022  006252  0E00               	movlw	0
 14023  006254  6E16               	movwf	(___fldiv@a+2)^0,c
 14024  006256  0E00               	movlw	0
 14025  006258  6E17               	movwf	(___fldiv@a+3)^0,c
 14026  00625A                     l2674:
 14027  00625A  5014               	movf	___fldiv@a^0,w,c
 14028  00625C  1015               	iorwf	(___fldiv@a+1)^0,w,c
 14029  00625E  1016               	iorwf	(___fldiv@a+2)^0,w,c
 14030  006260  1017               	iorwf	(___fldiv@a+3)^0,w,c
 14031  006262  A4D8               	btfss	status,2,c
 14032  006264  EF36  F031         	goto	u2771
 14033  006268  EF38  F031         	goto	u2770
 14034  00626C                     u2771:
 14035  00626C  EF50  F031         	goto	l2686
 14036  006270                     u2770:
 14037  006270  0E00               	movlw	0
 14038  006272  6E10               	movwf	___fldiv@b^0,c
 14039  006274  0E00               	movlw	0
 14040  006276  6E11               	movwf	(___fldiv@b+1)^0,c
 14041  006278  0E00               	movlw	0
 14042  00627A  6E12               	movwf	(___fldiv@b+2)^0,c
 14043  00627C  0E00               	movlw	0
 14044  00627E  6E13               	movwf	(___fldiv@b+3)^0,c
 14045  006280  0E80               	movlw	128
 14046  006282  1212               	iorwf	(___fldiv@b+2)^0,f,c
 14047  006284  0E7F               	movlw	127
 14048  006286  1213               	iorwf	(___fldiv@b+3)^0,f,c
 14049  006288                     l2680:
 14050  006288  5020               	movf	___fldiv@sign^0,w,c
 14051  00628A  1213               	iorwf	(___fldiv@b+3)^0,f,c
 14052  00628C  C010  F010         	movff	___fldiv@b,?___fldiv
 14053  006290  C011  F011         	movff	___fldiv@b+1,?___fldiv+1
 14054  006294  C012  F012         	movff	___fldiv@b+2,?___fldiv+2
 14055  006298  C013  F013         	movff	___fldiv@b+3,?___fldiv+3
 14056  00629C  EF93  F032         	goto	l762
 14057  0062A0                     l2686:
 14058  0062A0  5027               	movf	___fldiv@bexp^0,w,c
 14059  0062A2  A4D8               	btfss	status,2,c
 14060  0062A4  EF56  F031         	goto	u2781
 14061  0062A8  EF58  F031         	goto	u2780
 14062  0062AC                     u2781:
 14063  0062AC  EF62  F031         	goto	l2694
 14064  0062B0                     u2780:
 14065  0062B0  0E00               	movlw	0
 14066  0062B2  6E10               	movwf	?___fldiv^0,c
 14067  0062B4  0E00               	movlw	0
 14068  0062B6  6E11               	movwf	(?___fldiv+1)^0,c
 14069  0062B8  0E00               	movlw	0
 14070  0062BA  6E12               	movwf	(?___fldiv+2)^0,c
 14071  0062BC  0E00               	movlw	0
 14072  0062BE  6E13               	movwf	(?___fldiv+3)^0,c
 14073  0062C0  EF93  F032         	goto	l762
 14074  0062C4                     l2694:
 14075  0062C4  5028               	movf	___fldiv@aexp^0,w,c
 14076  0062C6  C027  F018         	movff	___fldiv@bexp,??___fldiv
 14077  0062CA  6A19               	clrf	(??___fldiv+1)^0,c
 14078  0062CC  5E18               	subwf	??___fldiv^0,f,c
 14079  0062CE  0E00               	movlw	0
 14080  0062D0  5A19               	subwfb	(??___fldiv+1)^0,f,c
 14081  0062D2  0E7F               	movlw	127
 14082  0062D4  2418               	addwf	??___fldiv^0,w,c
 14083  0062D6  6E21               	movwf	___fldiv@new_exp^0,c
 14084  0062D8  0E00               	movlw	0
 14085  0062DA  2019               	addwfc	(??___fldiv+1)^0,w,c
 14086  0062DC  6E22               	movwf	(___fldiv@new_exp+1)^0,c
 14087  0062DE  C010  F01C         	movff	___fldiv@b,___fldiv@rem
 14088  0062E2  C011  F01D         	movff	___fldiv@b+1,___fldiv@rem+1
 14089  0062E6  C012  F01E         	movff	___fldiv@b+2,___fldiv@rem+2
 14090  0062EA  C013  F01F         	movff	___fldiv@b+3,___fldiv@rem+3
 14091  0062EE  0E00               	movlw	0
 14092  0062F0  6E10               	movwf	___fldiv@b^0,c
 14093  0062F2  0E00               	movlw	0
 14094  0062F4  6E11               	movwf	(___fldiv@b+1)^0,c
 14095  0062F6  0E00               	movlw	0
 14096  0062F8  6E12               	movwf	(___fldiv@b+2)^0,c
 14097  0062FA  0E00               	movlw	0
 14098  0062FC  6E13               	movwf	(___fldiv@b+3)^0,c
 14099  0062FE  0E00               	movlw	0
 14100  006300  6E23               	movwf	___fldiv@grs^0,c
 14101  006302  0E00               	movlw	0
 14102  006304  6E24               	movwf	(___fldiv@grs+1)^0,c
 14103  006306  0E00               	movlw	0
 14104  006308  6E25               	movwf	(___fldiv@grs+2)^0,c
 14105  00630A  0E00               	movlw	0
 14106  00630C  6E26               	movwf	(___fldiv@grs+3)^0,c
 14107  00630E  0E00               	movlw	0
 14108  006310  6E28               	movwf	___fldiv@aexp^0,c
 14109  006312  EFC3  F031         	goto	l764
 14110  006316                     l2704:
 14111  006316  5028               	movf	___fldiv@aexp^0,w,c
 14112  006318  B4D8               	btfsc	status,2,c
 14113  00631A  EF91  F031         	goto	u2791
 14114  00631E  EF93  F031         	goto	u2790
 14115  006322                     u2791:
 14116  006322  EFAA  F031         	goto	l2712
 14117  006326                     u2790:
 14118  006326  90D8               	bcf	status,0,c
 14119  006328  361C               	rlcf	___fldiv@rem^0,f,c
 14120  00632A  361D               	rlcf	(___fldiv@rem+1)^0,f,c
 14121  00632C  361E               	rlcf	(___fldiv@rem+2)^0,f,c
 14122  00632E  361F               	rlcf	(___fldiv@rem+3)^0,f,c
 14123  006330  90D8               	bcf	status,0,c
 14124  006332  3610               	rlcf	___fldiv@b^0,f,c
 14125  006334  3611               	rlcf	(___fldiv@b+1)^0,f,c
 14126  006336  3612               	rlcf	(___fldiv@b+2)^0,f,c
 14127  006338  3613               	rlcf	(___fldiv@b+3)^0,f,c
 14128  00633A  AE26               	btfss	(___fldiv@grs+3)^0,7,c
 14129  00633C  EFA2  F031         	goto	u2801
 14130  006340  EFA4  F031         	goto	u2800
 14131  006344                     u2801:
 14132  006344  EFA5  F031         	goto	l767
 14133  006348                     u2800:
 14134  006348  8010               	bsf	___fldiv@b^0,0,c
 14135  00634A                     l767:
 14136  00634A  90D8               	bcf	status,0,c
 14137  00634C  3623               	rlcf	___fldiv@grs^0,f,c
 14138  00634E  3624               	rlcf	(___fldiv@grs+1)^0,f,c
 14139  006350  3625               	rlcf	(___fldiv@grs+2)^0,f,c
 14140  006352  3626               	rlcf	(___fldiv@grs+3)^0,f,c
 14141  006354                     l2712:
 14142  006354  5014               	movf	___fldiv@a^0,w,c
 14143  006356  5C1C               	subwf	___fldiv@rem^0,w,c
 14144  006358  5015               	movf	(___fldiv@a+1)^0,w,c
 14145  00635A  581D               	subwfb	(___fldiv@rem+1)^0,w,c
 14146  00635C  5016               	movf	(___fldiv@a+2)^0,w,c
 14147  00635E  581E               	subwfb	(___fldiv@rem+2)^0,w,c
 14148  006360  5017               	movf	(___fldiv@a+3)^0,w,c
 14149  006362  581F               	subwfb	(___fldiv@rem+3)^0,w,c
 14150  006364  A0D8               	btfss	status,0,c
 14151  006366  EFB7  F031         	goto	u2811
 14152  00636A  EFB9  F031         	goto	u2810
 14153  00636E                     u2811:
 14154  00636E  EFC2  F031         	goto	l2718
 14155  006372                     u2810:
 14156  006372  8C26               	bsf	(___fldiv@grs+3)^0,6,c
 14157  006374  5014               	movf	___fldiv@a^0,w,c
 14158  006376  5E1C               	subwf	___fldiv@rem^0,f,c
 14159  006378  5015               	movf	(___fldiv@a+1)^0,w,c
 14160  00637A  5A1D               	subwfb	(___fldiv@rem+1)^0,f,c
 14161  00637C  5016               	movf	(___fldiv@a+2)^0,w,c
 14162  00637E  5A1E               	subwfb	(___fldiv@rem+2)^0,f,c
 14163  006380  5017               	movf	(___fldiv@a+3)^0,w,c
 14164  006382  5A1F               	subwfb	(___fldiv@rem+3)^0,f,c
 14165  006384                     l2718:
 14166  006384  2A28               	incf	___fldiv@aexp^0,f,c
 14167  006386                     l764:
 14168  006386  0E19               	movlw	25
 14169  006388  6428               	cpfsgt	___fldiv@aexp^0,c
 14170  00638A  EFC9  F031         	goto	u2821
 14171  00638E  EFCB  F031         	goto	u2820
 14172  006392                     u2821:
 14173  006392  EF8B  F031         	goto	l2704
 14174  006396                     u2820:
 14175  006396  501C               	movf	___fldiv@rem^0,w,c
 14176  006398  101D               	iorwf	(___fldiv@rem+1)^0,w,c
 14177  00639A  101E               	iorwf	(___fldiv@rem+2)^0,w,c
 14178  00639C  101F               	iorwf	(___fldiv@rem+3)^0,w,c
 14179  00639E  B4D8               	btfsc	status,2,c
 14180  0063A0  EFD4  F031         	goto	u2831
 14181  0063A4  EFD6  F031         	goto	u2830
 14182  0063A8                     u2831:
 14183  0063A8  EFEE  F031         	goto	l2730
 14184  0063AC                     u2830:
 14185  0063AC  8023               	bsf	___fldiv@grs^0,0,c
 14186  0063AE  EFEE  F031         	goto	l2730
 14187  0063B2                     l2724:
 14188  0063B2  90D8               	bcf	status,0,c
 14189  0063B4  3610               	rlcf	___fldiv@b^0,f,c
 14190  0063B6  3611               	rlcf	(___fldiv@b+1)^0,f,c
 14191  0063B8  3612               	rlcf	(___fldiv@b+2)^0,f,c
 14192  0063BA  3613               	rlcf	(___fldiv@b+3)^0,f,c
 14193  0063BC  AE26               	btfss	(___fldiv@grs+3)^0,7,c
 14194  0063BE  EFE3  F031         	goto	u2841
 14195  0063C2  EFE5  F031         	goto	u2840
 14196  0063C6                     u2841:
 14197  0063C6  EFE6  F031         	goto	l773
 14198  0063CA                     u2840:
 14199  0063CA  8010               	bsf	___fldiv@b^0,0,c
 14200  0063CC                     l773:
 14201  0063CC  90D8               	bcf	status,0,c
 14202  0063CE  3623               	rlcf	___fldiv@grs^0,f,c
 14203  0063D0  3624               	rlcf	(___fldiv@grs+1)^0,f,c
 14204  0063D2  3625               	rlcf	(___fldiv@grs+2)^0,f,c
 14205  0063D4  3626               	rlcf	(___fldiv@grs+3)^0,f,c
 14206  0063D6  0621               	decf	___fldiv@new_exp^0,f,c
 14207  0063D8  A0D8               	btfss	status,0,c
 14208  0063DA  0622               	decf	(___fldiv@new_exp+1)^0,f,c
 14209  0063DC                     l2730:
 14210  0063DC  AE12               	btfss	(___fldiv@b+2)^0,7,c
 14211  0063DE  EFF3  F031         	goto	u2851
 14212  0063E2  EFF5  F031         	goto	u2850
 14213  0063E6                     u2851:
 14214  0063E6  EFD9  F031         	goto	l2724
 14215  0063EA                     u2850:
 14216  0063EA  0E00               	movlw	0
 14217  0063EC  6E28               	movwf	___fldiv@aexp^0,c
 14218  0063EE  AE26               	btfss	(___fldiv@grs+3)^0,7,c
 14219  0063F0  EFFC  F031         	goto	u2861
 14220  0063F4  EFFE  F031         	goto	u2860
 14221  0063F8                     u2861:
 14222  0063F8  EF22  F032         	goto	l775
 14223  0063FC                     u2860:
 14224  0063FC  0EFF               	movlw	255
 14225  0063FE  1423               	andwf	___fldiv@grs^0,w,c
 14226  006400  6E18               	movwf	??___fldiv^0,c
 14227  006402  0EFF               	movlw	255
 14228  006404  1424               	andwf	(___fldiv@grs+1)^0,w,c
 14229  006406  6E19               	movwf	(??___fldiv+1)^0,c
 14230  006408  0EFF               	movlw	255
 14231  00640A  1425               	andwf	(___fldiv@grs+2)^0,w,c
 14232  00640C  6E1A               	movwf	(??___fldiv+2)^0,c
 14233  00640E  0E7F               	movlw	127
 14234  006410  1426               	andwf	(___fldiv@grs+3)^0,w,c
 14235  006412  6E1B               	movwf	(??___fldiv+3)^0,c
 14236  006414  5018               	movf	??___fldiv^0,w,c
 14237  006416  1019               	iorwf	(??___fldiv+1)^0,w,c
 14238  006418  101A               	iorwf	(??___fldiv+2)^0,w,c
 14239  00641A  101B               	iorwf	(??___fldiv+3)^0,w,c
 14240  00641C  B4D8               	btfsc	status,2,c
 14241  00641E  EF13  F032         	goto	u2871
 14242  006422  EF15  F032         	goto	u2870
 14243  006426                     u2871:
 14244  006426  EF19  F032         	goto	l776
 14245  00642A                     u2870:
 14246  00642A                     l2738:
 14247  00642A  0E01               	movlw	1
 14248  00642C  6E28               	movwf	___fldiv@aexp^0,c
 14249  00642E  EF22  F032         	goto	l775
 14250  006432                     l776:
 14251  006432  A010               	btfss	___fldiv@b^0,0,c
 14252  006434  EF1E  F032         	goto	u2881
 14253  006438  EF20  F032         	goto	u2880
 14254  00643C                     u2881:
 14255  00643C  EF22  F032         	goto	l775
 14256  006440                     u2880:
 14257  006440  EF15  F032         	goto	l2738
 14258  006444                     l775:
 14259  006444  5028               	movf	___fldiv@aexp^0,w,c
 14260  006446  B4D8               	btfsc	status,2,c
 14261  006448  EF28  F032         	goto	u2891
 14262  00644C  EF2A  F032         	goto	u2890
 14263  006450                     u2891:
 14264  006450  EF4E  F032         	goto	l2750
 14265  006454                     u2890:
 14266  006454  0E01               	movlw	1
 14267  006456  2610               	addwf	___fldiv@b^0,f,c
 14268  006458  0E00               	movlw	0
 14269  00645A  2211               	addwfc	(___fldiv@b+1)^0,f,c
 14270  00645C  2212               	addwfc	(___fldiv@b+2)^0,f,c
 14271  00645E  2213               	addwfc	(___fldiv@b+3)^0,f,c
 14272  006460  A013               	btfss	(___fldiv@b+3)^0,0,c
 14273  006462  EF35  F032         	goto	u2901
 14274  006466  EF37  F032         	goto	u2900
 14275  00646A                     u2901:
 14276  00646A  EF4E  F032         	goto	l2750
 14277  00646E                     u2900:
 14278  00646E  C010  F018         	movff	___fldiv@b,??___fldiv
 14279  006472  C011  F019         	movff	___fldiv@b+1,??___fldiv+1
 14280  006476  C012  F01A         	movff	___fldiv@b+2,??___fldiv+2
 14281  00647A  C013  F01B         	movff	___fldiv@b+3,??___fldiv+3
 14282  00647E  341B               	rlcf	(??___fldiv+3)^0,w,c
 14283  006480  321B               	rrcf	(??___fldiv+3)^0,f,c
 14284  006482  321A               	rrcf	(??___fldiv+2)^0,f,c
 14285  006484  3219               	rrcf	(??___fldiv+1)^0,f,c
 14286  006486  3218               	rrcf	??___fldiv^0,f,c
 14287  006488  C018  F010         	movff	??___fldiv,___fldiv@b
 14288  00648C  C019  F011         	movff	??___fldiv+1,___fldiv@b+1
 14289  006490  C01A  F012         	movff	??___fldiv+2,___fldiv@b+2
 14290  006494  C01B  F013         	movff	??___fldiv+3,___fldiv@b+3
 14291  006498  4A21               	infsnz	___fldiv@new_exp^0,f,c
 14292  00649A  2A22               	incf	(___fldiv@new_exp+1)^0,f,c
 14293  00649C                     l2750:
 14294  00649C  BE22               	btfsc	(___fldiv@new_exp+1)^0,7,c
 14295  00649E  EF59  F032         	goto	u2911
 14296  0064A2  5022               	movf	(___fldiv@new_exp+1)^0,w,c
 14297  0064A4  E108               	bnz	u2910
 14298  0064A6  2821               	incf	___fldiv@new_exp^0,w,c
 14299  0064A8  A0D8               	btfss	status,0,c
 14300  0064AA  EF59  F032         	goto	u2911
 14301  0064AE  EF5B  F032         	goto	u2910
 14302  0064B2                     u2911:
 14303  0064B2  EF66  F032         	goto	l2754
 14304  0064B6                     u2910:
 14305  0064B6  0E00               	movlw	0
 14306  0064B8  6E22               	movwf	(___fldiv@new_exp+1)^0,c
 14307  0064BA  6821               	setf	___fldiv@new_exp^0,c
 14308  0064BC  0E00               	movlw	0
 14309  0064BE  6E10               	movwf	___fldiv@b^0,c
 14310  0064C0  0E00               	movlw	0
 14311  0064C2  6E11               	movwf	(___fldiv@b+1)^0,c
 14312  0064C4  0E00               	movlw	0
 14313  0064C6  6E12               	movwf	(___fldiv@b+2)^0,c
 14314  0064C8  0E00               	movlw	0
 14315  0064CA  6E13               	movwf	(___fldiv@b+3)^0,c
 14316  0064CC                     l2754:
 14317  0064CC  BE22               	btfsc	(___fldiv@new_exp+1)^0,7,c
 14318  0064CE  EF73  F032         	goto	u2920
 14319  0064D2  5022               	movf	(___fldiv@new_exp+1)^0,w,c
 14320  0064D4  E106               	bnz	u2921
 14321  0064D6  0421               	decf	___fldiv@new_exp^0,w,c
 14322  0064D8  B0D8               	btfsc	status,0,c
 14323  0064DA  EF71  F032         	goto	u2921
 14324  0064DE  EF73  F032         	goto	u2920
 14325  0064E2                     u2921:
 14326  0064E2  EF81  F032         	goto	l2758
 14327  0064E6                     u2920:
 14328  0064E6  0E00               	movlw	0
 14329  0064E8  6E22               	movwf	(___fldiv@new_exp+1)^0,c
 14330  0064EA  0E00               	movlw	0
 14331  0064EC  6E21               	movwf	___fldiv@new_exp^0,c
 14332  0064EE  0E00               	movlw	0
 14333  0064F0  6E10               	movwf	___fldiv@b^0,c
 14334  0064F2  0E00               	movlw	0
 14335  0064F4  6E11               	movwf	(___fldiv@b+1)^0,c
 14336  0064F6  0E00               	movlw	0
 14337  0064F8  6E12               	movwf	(___fldiv@b+2)^0,c
 14338  0064FA  0E00               	movlw	0
 14339  0064FC  6E13               	movwf	(___fldiv@b+3)^0,c
 14340  0064FE  0E00               	movlw	0
 14341  006500  6E20               	movwf	___fldiv@sign^0,c
 14342  006502                     l2758:
 14343  006502  C021  F027         	movff	___fldiv@new_exp,___fldiv@bexp
 14344  006506  A027               	btfss	___fldiv@bexp^0,0,c
 14345  006508  EF88  F032         	goto	u2931
 14346  00650C  EF8A  F032         	goto	u2930
 14347  006510                     u2931:
 14348  006510  EF8D  F032         	goto	l2764
 14349  006514                     u2930:
 14350  006514  8E12               	bsf	(___fldiv@b+2)^0,7,c
 14351  006516  EF8E  F032         	goto	l2766
 14352  00651A                     l2764:
 14353  00651A  9E12               	bcf	(___fldiv@b+2)^0,7,c
 14354  00651C                     l2766:
 14355  00651C  90D8               	bcf	status,0,c
 14356  00651E  3027               	rrcf	___fldiv@bexp^0,w,c
 14357  006520  6E13               	movwf	(___fldiv@b+3)^0,c
 14358  006522  EF44  F031         	goto	l2680
 14359  006526                     l762:
 14360  006526  0012               	return		;funcret
 14361  006528                     __end_of___fldiv:
 14362                           	opt callstack 0
 14363                           
 14364 ;; *************** function _atoi *****************
 14365 ;; Defined at:
 14366 ;;		line 4 in file "C:\Program Files (x86)\Microchip\xc8\v2.10\pic\sources\c99\common\atoi.c"
 14367 ;; Parameters:    Size  Location     Type
 14368 ;;  s               2    8[COMRAM] PTR const unsigned char 
 14369 ;;		 -> main@str(20), 
 14370 ;; Auto vars:     Size  Location     Type
 14371 ;;  n               2   21[COMRAM] int 
 14372 ;;  neg             2   14[COMRAM] int 
 14373 ;; Return value:  Size  Location     Type
 14374 ;;                  2    8[COMRAM] int 
 14375 ;; Registers used:
 14376 ;;		wreg, fsr2l, fsr2h, status,2, status,0, prodl, prodh, cstack
 14377 ;; Tracked objects:
 14378 ;;		On entry : 0/0
 14379 ;;		On exit  : 0/0
 14380 ;;		Unchanged: 0/0
 14381 ;; Data sizes:     COMRAM   BANK0   BANK1   BANK2   BANK3   BANK4   BANK5   BANK6   BANK7   BANK8   BANK9  BANK10  BANK1
      +1  BANK12  BANK13  BANK14  BANK15
 14382 ;;      Params:         2       0       0       0       0       0       0       0       0       0       0       0       
      +0       0       0       0       0
 14383 ;;      Locals:         9       0       0       0       0       0       0       0       0       0       0       0       
      +0       0       0       0       0
 14384 ;;      Temps:          4       0       0       0       0       0       0       0       0       0       0       0       
      +0       0       0       0       0
 14385 ;;      Totals:        15       0       0       0       0       0       0       0       0       0       0       0       
      +0       0       0       0       0
 14386 ;;Total ram usage:       15 bytes
 14387 ;; Hardware stack levels used:    1
 14388 ;; Hardware stack levels required when called:    2
 14389 ;; This function calls:
 14390 ;;		___wmul
 14391 ;;		_isdigit
 14392 ;;		_isspace
 14393 ;; This function is called by:
 14394 ;;		_main
 14395 ;; This function uses a non-reentrant model
 14396 ;;
 14397                           
 14398                           	psect	text17
 14399  0066DC                     __ptext17:
 14400                           	opt callstack 0
 14401  0066DC                     _atoi:
 14402                           	opt callstack 28
 14403  0066DC  0E00               	movlw	0
 14404  0066DE  6E17               	movwf	(atoi@n+1)^0,c
 14405  0066E0  0E00               	movlw	0
 14406  0066E2  6E16               	movwf	atoi@n^0,c
 14407  0066E4  0E00               	movlw	0
 14408  0066E6  6E10               	movwf	(atoi@neg+1)^0,c
 14409  0066E8  0E00               	movlw	0
 14410  0066EA  6E0F               	movwf	atoi@neg^0,c
 14411  0066EC  EF7A  F033         	goto	l3012
 14412  0066F0                     l3010:
 14413  0066F0  4A09               	infsnz	atoi@s^0,f,c
 14414  0066F2  2A0A               	incf	(atoi@s+1)^0,f,c
 14415  0066F4                     l3012:
 14416  0066F4  0E01               	movlw	1
 14417  0066F6  6E15               	movwf	_atoi$1270^0,c
 14418  0066F8  C009  FFD9         	movff	atoi@s,fsr2l
 14419  0066FC  C00A  FFDA         	movff	atoi@s+1,fsr2h
 14420  006700  0E20               	movlw	32
 14421  006702  18DE               	xorwf	postinc2,w,c
 14422  006704  B4D8               	btfsc	status,2,c
 14423  006706  EF87  F033         	goto	u3271
 14424  00670A  EF89  F033         	goto	u3270
 14425  00670E                     u3271:
 14426  00670E  EFA5  F033         	goto	l3020
 14427  006712                     u3270:
 14428  006712  0EF7               	movlw	247
 14429  006714  6E0B               	movwf	??_atoi^0,c
 14430  006716  0EFF               	movlw	255
 14431  006718  6E0C               	movwf	(??_atoi+1)^0,c
 14432  00671A  C009  FFD9         	movff	atoi@s,fsr2l
 14433  00671E  C00A  FFDA         	movff	atoi@s+1,fsr2h
 14434  006722  50DF               	movf	indf2,w,c
 14435  006724  6E0D               	movwf	(??_atoi+2)^0,c
 14436  006726  6A0E               	clrf	(??_atoi+3)^0,c
 14437  006728  500B               	movf	??_atoi^0,w,c
 14438  00672A  260D               	addwf	(??_atoi+2)^0,f,c
 14439  00672C  500C               	movf	(??_atoi+1)^0,w,c
 14440  00672E  220E               	addwfc	(??_atoi+3)^0,f,c
 14441  006730  500E               	movf	(??_atoi+3)^0,w,c
 14442  006732  E109               	bnz	u3280
 14443  006734  0E05               	movlw	5
 14444  006736  5C0D               	subwf	(??_atoi+2)^0,w,c
 14445  006738  A0D8               	btfss	status,0,c
 14446  00673A  EFA1  F033         	goto	u3281
 14447  00673E  EFA3  F033         	goto	u3280
 14448  006742                     u3281:
 14449  006742  EFA5  F033         	goto	l3020
 14450  006746                     u3280:
 14451  006746  0E00               	movlw	0
 14452  006748  6E15               	movwf	_atoi$1270^0,c
 14453  00674A                     l3020:
 14454  00674A  C015  F011         	movff	_atoi$1270,_atoi$1269
 14455  00674E  6A12               	clrf	(_atoi$1269+1)^0,c
 14456  006750  5011               	movf	_atoi$1269^0,w,c
 14457  006752  1012               	iorwf	(_atoi$1269+1)^0,w,c
 14458  006754  A4D8               	btfss	status,2,c
 14459  006756  EFAF  F033         	goto	u3291
 14460  00675A  EFB1  F033         	goto	u3290
 14461  00675E                     u3291:
 14462  00675E  EF78  F033         	goto	l3010
 14463  006762                     u3290:
 14464  006762  EFBB  F033         	goto	l3030
 14465  006766                     l3026:
 14466  006766  0E00               	movlw	0
 14467  006768  6E10               	movwf	(atoi@neg+1)^0,c
 14468  00676A  0E01               	movlw	1
 14469  00676C  6E0F               	movwf	atoi@neg^0,c
 14470  00676E                     l3028:
 14471  00676E  4A09               	infsnz	atoi@s^0,f,c
 14472  006770  2A0A               	incf	(atoi@s+1)^0,f,c
 14473  006772  EFF0  F033         	goto	l3036
 14474  006776                     l3030:
 14475  006776  C009  FFD9         	movff	atoi@s,fsr2l
 14476  00677A  C00A  FFDA         	movff	atoi@s+1,fsr2h
 14477  00677E  50DF               	movf	indf2,w,c
 14478  006780  6E0B               	movwf	??_atoi^0,c
 14479  006782  6A0C               	clrf	(??_atoi+1)^0,c
 14480                           
 14481                           ; Switch on 2 bytes has been partitioned into a top level switch of size 1, and 1 sub-sw
      +                          itches
 14482                           ; Switch size 1, requested type "simple"
 14483                           ; Number of cases is 1, Range of values is 0 to 0
 14484                           ; switch strategies available:
 14485                           ; Name         Instructions Cycles
 14486                           ; simple_byte            4     3 (average)
 14487                           ;	Chosen strategy is simple_byte
 14488  006784  500C               	movf	(??_atoi+1)^0,w,c
 14489  006786  0A00               	xorlw	0	; case 0
 14490  006788  B4D8               	btfsc	status,2,c
 14491  00678A  EFC9  F033         	goto	l3118
 14492  00678E  EFF0  F033         	goto	l3036
 14493  006792                     l3118:
 14494                           
 14495                           ; Switch size 1, requested type "simple"
 14496                           ; Number of cases is 2, Range of values is 43 to 45
 14497                           ; switch strategies available:
 14498                           ; Name         Instructions Cycles
 14499                           ; simple_byte            7     4 (average)
 14500                           ;	Chosen strategy is simple_byte
 14501  006792  500B               	movf	??_atoi^0,w,c
 14502  006794  0A2B               	xorlw	43	; case 43
 14503  006796  B4D8               	btfsc	status,2,c
 14504  006798  EFB7  F033         	goto	l3028
 14505  00679C  0A06               	xorlw	6	; case 45
 14506  00679E  B4D8               	btfsc	status,2,c
 14507  0067A0  EFB3  F033         	goto	l3026
 14508  0067A4  EFF0  F033         	goto	l3036
 14509  0067A8                     l3032:
 14510  0067A8  C016  F002         	movff	atoi@n,___wmul@multiplier
 14511  0067AC  C017  F003         	movff	atoi@n+1,___wmul@multiplier+1
 14512  0067B0  0E00               	movlw	0
 14513  0067B2  6E05               	movwf	(___wmul@multiplicand+1)^0,c
 14514  0067B4  0E0A               	movlw	10
 14515  0067B6  6E04               	movwf	___wmul@multiplicand^0,c
 14516  0067B8  ECED  F037         	call	___wmul	;wreg free
 14517  0067BC  C009  FFD9         	movff	atoi@s,fsr2l
 14518  0067C0  C00A  FFDA         	movff	atoi@s+1,fsr2h
 14519  0067C4  50DF               	movf	indf2,w,c
 14520  0067C6  6E0B               	movwf	??_atoi^0,c
 14521  0067C8  500B               	movf	??_atoi^0,w,c
 14522  0067CA  5E02               	subwf	?___wmul^0,f,c
 14523  0067CC  0E00               	movlw	0
 14524  0067CE  5A03               	subwfb	(?___wmul+1)^0,f,c
 14525  0067D0  0E30               	movlw	48
 14526  0067D2  2402               	addwf	?___wmul^0,w,c
 14527  0067D4  6E16               	movwf	atoi@n^0,c
 14528  0067D6  0E00               	movlw	0
 14529  0067D8  2003               	addwfc	(?___wmul+1)^0,w,c
 14530  0067DA  6E17               	movwf	(atoi@n+1)^0,c
 14531  0067DC  EFB7  F033         	goto	l3028
 14532  0067E0                     l3036:
 14533  0067E0  0ED0               	movlw	208
 14534  0067E2  6E0B               	movwf	??_atoi^0,c
 14535  0067E4  0EFF               	movlw	255
 14536  0067E6  6E0C               	movwf	(??_atoi+1)^0,c
 14537  0067E8  C009  FFD9         	movff	atoi@s,fsr2l
 14538  0067EC  C00A  FFDA         	movff	atoi@s+1,fsr2h
 14539  0067F0  50DF               	movf	indf2,w,c
 14540  0067F2  6E0D               	movwf	(??_atoi+2)^0,c
 14541  0067F4  6A0E               	clrf	(??_atoi+3)^0,c
 14542  0067F6  500B               	movf	??_atoi^0,w,c
 14543  0067F8  260D               	addwf	(??_atoi+2)^0,f,c
 14544  0067FA  500C               	movf	(??_atoi+1)^0,w,c
 14545  0067FC  220E               	addwfc	(??_atoi+3)^0,f,c
 14546  0067FE  500E               	movf	(??_atoi+3)^0,w,c
 14547  006800  E10A               	bnz	u3300
 14548  006802  0E0A               	movlw	10
 14549  006804  5C0D               	subwf	(??_atoi+2)^0,w,c
 14550  006806  A0D8               	btfss	status,0,c
 14551  006808  EF08  F034         	goto	u3301
 14552  00680C  EF0B  F034         	goto	u3300
 14553  006810                     u3301:
 14554  006810  0E01               	movlw	1
 14555  006812  EF0C  F034         	goto	u3310
 14556  006816                     u3300:
 14557  006816  0E00               	movlw	0
 14558  006818                     u3310:
 14559  006818  6E13               	movwf	_atoi$1271^0,c
 14560  00681A  6A14               	clrf	(_atoi$1271+1)^0,c
 14561  00681C  5013               	movf	_atoi$1271^0,w,c
 14562  00681E  1014               	iorwf	(_atoi$1271+1)^0,w,c
 14563  006820  A4D8               	btfss	status,2,c
 14564  006822  EF15  F034         	goto	u3321
 14565  006826  EF17  F034         	goto	u3320
 14566  00682A                     u3321:
 14567  00682A  EFD4  F033         	goto	l3032
 14568  00682E                     u3320:
 14569  00682E  500F               	movf	atoi@neg^0,w,c
 14570  006830  1010               	iorwf	(atoi@neg+1)^0,w,c
 14571  006832  A4D8               	btfss	status,2,c
 14572  006834  EF1E  F034         	goto	u3331
 14573  006838  EF20  F034         	goto	u3330
 14574  00683C                     u3331:
 14575  00683C  EF2E  F034         	goto	l879
 14576  006840                     u3330:
 14577  006840  C016  F00B         	movff	atoi@n,??_atoi
 14578  006844  C017  F00C         	movff	atoi@n+1,??_atoi+1
 14579  006848  1E0B               	comf	??_atoi^0,f,c
 14580  00684A  1E0C               	comf	(??_atoi+1)^0,f,c
 14581  00684C  4A0B               	infsnz	??_atoi^0,f,c
 14582  00684E  2A0C               	incf	(??_atoi+1)^0,f,c
 14583  006850  C00B  F009         	movff	??_atoi,?_atoi
 14584  006854  C00C  F00A         	movff	??_atoi+1,?_atoi+1
 14585  006858  EF32  F034         	goto	l882
 14586  00685C                     l879:
 14587  00685C  C016  F009         	movff	atoi@n,?_atoi
 14588  006860  C017  F00A         	movff	atoi@n+1,?_atoi+1
 14589  006864                     l882:
 14590  006864  0012               	return		;funcret
 14591  006866                     __end_of_atoi:
 14592                           	opt callstack 0
 14593                           
 14594 ;; *************** function _isspace *****************
 14595 ;; Defined at:
 14596 ;;		line 5 in file "C:\Program Files (x86)\Microchip\xc8\v2.10\pic\sources\c99\common\isspace.c"
 14597 ;; Parameters:    Size  Location     Type
 14598 ;;  c               2    1[COMRAM] int 
 14599 ;; Auto vars:     Size  Location     Type
 14600 ;;		None
 14601 ;; Return value:  Size  Location     Type
 14602 ;;                  2    1[COMRAM] int 
 14603 ;; Registers used:
 14604 ;;		wreg, status,2, status,0
 14605 ;; Tracked objects:
 14606 ;;		On entry : 0/0
 14607 ;;		On exit  : 0/0
 14608 ;;		Unchanged: 0/0
 14609 ;; Data sizes:     COMRAM   BANK0   BANK1   BANK2   BANK3   BANK4   BANK5   BANK6   BANK7   BANK8   BANK9  BANK10  BANK1
      +1  BANK12  BANK13  BANK14  BANK15
 14610 ;;      Params:         2       0       0       0       0       0       0       0       0       0       0       0       
      +0       0       0       0       0
 14611 ;;      Locals:         1       0       0       0       0       0       0       0       0       0       0       0       
      +0       0       0       0       0
 14612 ;;      Temps:          4       0       0       0       0       0       0       0       0       0       0       0       
      +0       0       0       0       0
 14613 ;;      Totals:         7       0       0       0       0       0       0       0       0       0       0       0       
      +0       0       0       0       0
 14614 ;;Total ram usage:        7 bytes
 14615 ;; Hardware stack levels used:    1
 14616 ;; Hardware stack levels required when called:    1
 14617 ;; This function calls:
 14618 ;;		Nothing
 14619 ;; This function is called by:
 14620 ;;		_atoi
 14621 ;; This function uses a non-reentrant model
 14622 ;;
 14623                           
 14624                           	psect	text18
 14625  006E5A                     __ptext18:
 14626                           	opt callstack 0
 14627  006E5A                     _isspace:
 14628                           	opt callstack 28
 14629  006E5A  0E01               	movlw	1
 14630  006E5C  6E08               	movwf	_isspace$1287^0,c
 14631  006E5E  0E20               	movlw	32
 14632  006E60  1802               	xorwf	isspace@c^0,w,c
 14633  006E62  1003               	iorwf	(isspace@c+1)^0,w,c
 14634  006E64  B4D8               	btfsc	status,2,c
 14635  006E66  EF37  F037         	goto	u3161
 14636  006E6A  EF39  F037         	goto	u3160
 14637  006E6E                     u3161:
 14638  006E6E  EF52  F037         	goto	l2922
 14639  006E72                     u3160:
 14640  006E72  0EF7               	movlw	247
 14641  006E74  6E04               	movwf	??_isspace^0,c
 14642  006E76  0EFF               	movlw	255
 14643  006E78  6E05               	movwf	(??_isspace+1)^0,c
 14644  006E7A  C002  F006         	movff	isspace@c,??_isspace+2
 14645  006E7E  C003  F007         	movff	isspace@c+1,??_isspace+3
 14646  006E82  5004               	movf	??_isspace^0,w,c
 14647  006E84  2606               	addwf	(??_isspace+2)^0,f,c
 14648  006E86  5005               	movf	(??_isspace+1)^0,w,c
 14649  006E88  2207               	addwfc	(??_isspace+3)^0,f,c
 14650  006E8A  5007               	movf	(??_isspace+3)^0,w,c
 14651  006E8C  E109               	bnz	u3170
 14652  006E8E  0E05               	movlw	5
 14653  006E90  5C06               	subwf	(??_isspace+2)^0,w,c
 14654  006E92  A0D8               	btfss	status,0,c
 14655  006E94  EF4E  F037         	goto	u3171
 14656  006E98  EF50  F037         	goto	u3170
 14657  006E9C                     u3171:
 14658  006E9C  EF52  F037         	goto	l2922
 14659  006EA0                     u3170:
 14660  006EA0  0E00               	movlw	0
 14661  006EA2  6E08               	movwf	_isspace$1287^0,c
 14662  006EA4                     l2922:
 14663  006EA4  C008  F002         	movff	_isspace$1287,?_isspace
 14664  006EA8  6A03               	clrf	(?_isspace+1)^0,c
 14665  006EAA  0012               	return		;funcret
 14666  006EAC                     __end_of_isspace:
 14667                           	opt callstack 0
 14668                           
 14669 ;; *************** function _isdigit *****************
 14670 ;; Defined at:
 14671 ;;		line 5 in file "C:\Program Files (x86)\Microchip\xc8\v2.10\pic\sources\c99\common\isdigit.c"
 14672 ;; Parameters:    Size  Location     Type
 14673 ;;  c               2    1[COMRAM] int 
 14674 ;; Auto vars:     Size  Location     Type
 14675 ;;		None
 14676 ;; Return value:  Size  Location     Type
 14677 ;;                  2    1[COMRAM] int 
 14678 ;; Registers used:
 14679 ;;		wreg, status,2, status,0
 14680 ;; Tracked objects:
 14681 ;;		On entry : 0/0
 14682 ;;		On exit  : 0/0
 14683 ;;		Unchanged: 0/0
 14684 ;; Data sizes:     COMRAM   BANK0   BANK1   BANK2   BANK3   BANK4   BANK5   BANK6   BANK7   BANK8   BANK9  BANK10  BANK1
      +1  BANK12  BANK13  BANK14  BANK15
 14685 ;;      Params:         2       0       0       0       0       0       0       0       0       0       0       0       
      +0       0       0       0       0
 14686 ;;      Locals:         0       0       0       0       0       0       0       0       0       0       0       0       
      +0       0       0       0       0
 14687 ;;      Temps:          4       0       0       0       0       0       0       0       0       0       0       0       
      +0       0       0       0       0
 14688 ;;      Totals:         6       0       0       0       0       0       0       0       0       0       0       0       
      +0       0       0       0       0
 14689 ;;Total ram usage:        6 bytes
 14690 ;; Hardware stack levels used:    1
 14691 ;; Hardware stack levels required when called:    1
 14692 ;; This function calls:
 14693 ;;		Nothing
 14694 ;; This function is called by:
 14695 ;;		_atoi
 14696 ;; This function uses a non-reentrant model
 14697 ;;
 14698                           
 14699                           	psect	text19
 14700  006F2A                     __ptext19:
 14701                           	opt callstack 0
 14702  006F2A                     _isdigit:
 14703                           	opt callstack 28
 14704  006F2A  0ED0               	movlw	208
 14705  006F2C  6E04               	movwf	??_isdigit^0,c
 14706  006F2E  0EFF               	movlw	255
 14707  006F30  6E05               	movwf	(??_isdigit+1)^0,c
 14708  006F32  C002  F006         	movff	isdigit@c,??_isdigit+2
 14709  006F36  C003  F007         	movff	isdigit@c+1,??_isdigit+3
 14710  006F3A  5004               	movf	??_isdigit^0,w,c
 14711  006F3C  2606               	addwf	(??_isdigit+2)^0,f,c
 14712  006F3E  5005               	movf	(??_isdigit+1)^0,w,c
 14713  006F40  2207               	addwfc	(??_isdigit+3)^0,f,c
 14714  006F42  5007               	movf	(??_isdigit+3)^0,w,c
 14715  006F44  E10A               	bnz	u3180
 14716  006F46  0E0A               	movlw	10
 14717  006F48  5C06               	subwf	(??_isdigit+2)^0,w,c
 14718  006F4A  A0D8               	btfss	status,0,c
 14719  006F4C  EFAA  F037         	goto	u3181
 14720  006F50  EFAD  F037         	goto	u3180
 14721  006F54                     u3181:
 14722  006F54  0E01               	movlw	1
 14723  006F56  EFAE  F037         	goto	u3190
 14724  006F5A                     u3180:
 14725  006F5A  0E00               	movlw	0
 14726  006F5C                     u3190:
 14727  006F5C  6E02               	movwf	?_isdigit^0,c
 14728  006F5E  6A03               	clrf	(?_isdigit+1)^0,c
 14729  006F60  0012               	return		;funcret
 14730  006F62                     __end_of_isdigit:
 14731                           	opt callstack 0
 14732                           
 14733 ;; *************** function ___wmul *****************
 14734 ;; Defined at:
 14735 ;;		line 15 in file "C:\Program Files (x86)\Microchip\xc8\v2.10\pic\sources\c99\common\Umul16.c"
 14736 ;; Parameters:    Size  Location     Type
 14737 ;;  multiplier      2    1[COMRAM] unsigned int 
 14738 ;;  multiplicand    2    3[COMRAM] unsigned int 
 14739 ;; Auto vars:     Size  Location     Type
 14740 ;;  product         2    5[COMRAM] unsigned int 
 14741 ;; Return value:  Size  Location     Type
 14742 ;;                  2    1[COMRAM] unsigned int 
 14743 ;; Registers used:
 14744 ;;		wreg, status,2, status,0, prodl, prodh
 14745 ;; Tracked objects:
 14746 ;;		On entry : 0/0
 14747 ;;		On exit  : 0/0
 14748 ;;		Unchanged: 0/0
 14749 ;; Data sizes:     COMRAM   BANK0   BANK1   BANK2   BANK3   BANK4   BANK5   BANK6   BANK7   BANK8   BANK9  BANK10  BANK1
      +1  BANK12  BANK13  BANK14  BANK15
 14750 ;;      Params:         4       0       0       0       0       0       0       0       0       0       0       0       
      +0       0       0       0       0
 14751 ;;      Locals:         2       0       0       0       0       0       0       0       0       0       0       0       
      +0       0       0       0       0
 14752 ;;      Temps:          0       0       0       0       0       0       0       0       0       0       0       0       
      +0       0       0       0       0
 14753 ;;      Totals:         6       0       0       0       0       0       0       0       0       0       0       0       
      +0       0       0       0       0
 14754 ;;Total ram usage:        6 bytes
 14755 ;; Hardware stack levels used:    1
 14756 ;; Hardware stack levels required when called:    1
 14757 ;; This function calls:
 14758 ;;		Nothing
 14759 ;; This function is called by:
 14760 ;;		_atoi
 14761 ;; This function uses a non-reentrant model
 14762 ;;
 14763                           
 14764                           	psect	text20
 14765  006FDA                     __ptext20:
 14766                           	opt callstack 0
 14767  006FDA                     ___wmul:
 14768                           	opt callstack 28
 14769  006FDA  5002               	movf	___wmul@multiplier^0,w,c
 14770  006FDC  0204               	mulwf	___wmul@multiplicand^0,c
 14771  006FDE  CFF3 F006          	movff	prodl,___wmul@product
 14772  006FE2  CFF4 F007          	movff	prodh,___wmul@product+1
 14773  006FE6  5002               	movf	___wmul@multiplier^0,w,c
 14774  006FE8  0205               	mulwf	(___wmul@multiplicand+1)^0,c
 14775  006FEA  50F3               	movf	243,w,c
 14776  006FEC  2607               	addwf	(___wmul@product+1)^0,f,c
 14777  006FEE  5003               	movf	(___wmul@multiplier+1)^0,w,c
 14778  006FF0  0204               	mulwf	___wmul@multiplicand^0,c
 14779  006FF2  50F3               	movf	243,w,c
 14780  006FF4  2607               	addwf	(___wmul@product+1)^0,f,c
 14781  006FF6  C006  F002         	movff	___wmul@product,?___wmul
 14782  006FFA  C007  F003         	movff	___wmul@product+1,?___wmul+1
 14783  006FFE  0012               	return		;funcret
 14784  007000                     __end_of___wmul:
 14785                           	opt callstack 0
 14786                           
 14787 ;; *************** function _UART_Initialize *****************
 14788 ;; Defined at:
 14789 ;;		line 89 in file "main.c"
 14790 ;; Parameters:    Size  Location     Type
 14791 ;;		None
 14792 ;; Auto vars:     Size  Location     Type
 14793 ;;		None
 14794 ;; Return value:  Size  Location     Type
 14795 ;;                  1    wreg      void 
 14796 ;; Registers used:
 14797 ;;		wreg, status,2
 14798 ;; Tracked objects:
 14799 ;;		On entry : 0/0
 14800 ;;		On exit  : 0/0
 14801 ;;		Unchanged: 0/0
 14802 ;; Data sizes:     COMRAM   BANK0   BANK1   BANK2   BANK3   BANK4   BANK5   BANK6   BANK7   BANK8   BANK9  BANK10  BANK1
      +1  BANK12  BANK13  BANK14  BANK15
 14803 ;;      Params:         0       0       0       0       0       0       0       0       0       0       0       0       
      +0       0       0       0       0
 14804 ;;      Locals:         0       0       0       0       0       0       0       0       0       0       0       0       
      +0       0       0       0       0
 14805 ;;      Temps:          0       0       0       0       0       0       0       0       0       0       0       0       
      +0       0       0       0       0
 14806 ;;      Totals:         0       0       0       0       0       0       0       0       0       0       0       0       
      +0       0       0       0       0
 14807 ;;Total ram usage:        0 bytes
 14808 ;; Hardware stack levels used:    1
 14809 ;; Hardware stack levels required when called:    1
 14810 ;; This function calls:
 14811 ;;		Nothing
 14812 ;; This function is called by:
 14813 ;;		_main
 14814 ;; This function uses a non-reentrant model
 14815 ;;
 14816                           
 14817                           	psect	text21
 14818  006F8C                     __ptext21:
 14819                           	opt callstack 0
 14820  006F8C                     _UART_Initialize:
 14821                           	opt callstack 29
 14822  006F8C                     
 14823                           ;main.c: 90:     };
 14824  006F8C  0E00               	movlw	0
 14825  006F8E  010F               	movlb	15	; () banked
 14826  006F90  6F38               	movwf	56,b	;volatile
 14827                           
 14828                           ;main.c: 91:     TXREG1 = c;
 14829  006F92  0E00               	movlw	0
 14830  006F94  6F3A               	movwf	58,b	;volatile
 14831  006F96                     
 14832                           ; BSR set to: 15
 14833                           ;main.c: 93: 
 14834  006F96  9C94               	bcf	148,6,c	;volatile
 14835  006F98                     
 14836                           ; BSR set to: 15
 14837                           ;main.c: 94: char read_char(void) {
 14838  006F98  8E94               	bsf	148,7,c	;volatile
 14839  006F9A                     
 14840                           ; BSR set to: 15
 14841                           ;main.c: 96:         if (RCSTA1bits.OERR == 1) {
 14842  006F9A  98AC               	bcf	172,4,c	;volatile
 14843  006F9C                     
 14844                           ; BSR set to: 15
 14845                           ;main.c: 97:             RCSTA1bits.OERR = 0;
 14846  006F9C  9CAC               	bcf	172,6,c	;volatile
 14847  006F9E                     
 14848                           ; BSR set to: 15
 14849                           ;main.c: 98:             RCSTA1bits.CREN = 0;
 14850  006F9E  8AAC               	bsf	172,5,c	;volatile
 14851  006FA0                     
 14852                           ; BSR set to: 15
 14853                           ;main.c: 100:         }
 14854  006FA0  9CAB               	bcf	171,6,c	;volatile
 14855  006FA2                     
 14856                           ; BSR set to: 15
 14857                           ;main.c: 101:     }
 14858  006FA2  88AB               	bsf	171,4,c	;volatile
 14859  006FA4                     
 14860                           ; BSR set to: 15
 14861                           ;main.c: 102:     return RCREG1;
 14862  006FA4  8EAB               	bsf	171,7,c	;volatile
 14863  006FA6                     
 14864                           ; BSR set to: 15
 14865                           ;main.c: 104: 
 14866  006FA6  96B8               	bcf	184,3,c	;volatile
 14867  006FA8                     
 14868                           ; BSR set to: 15
 14869                           ;main.c: 105: void read_line(char * s, int max_len) {
 14870  006FA8  94AC               	bcf	172,2,c	;volatile
 14871                           
 14872                           ;main.c: 107:     for (;;) {
 14873  006FAA  0E33               	movlw	51
 14874  006FAC  6EAF               	movwf	175,c	;volatile
 14875                           
 14876                           ;main.c: 108:         char c = read_char();
 14877  006FAE  0E00               	movlw	0
 14878  006FB0  6EB0               	movwf	176,c	;volatile
 14879  006FB2                     
 14880                           ; BSR set to: 15
 14881  006FB2  0012               	return		;funcret
 14882  006FB4                     __end_of_UART_Initialize:
 14883                           	opt callstack 0
 14884                           
 14885 ;; *************** function _TIMER1_Initialize *****************
 14886 ;; Defined at:
 14887 ;;		line 79 in file "main.c"
 14888 ;; Parameters:    Size  Location     Type
 14889 ;;		None
 14890 ;; Auto vars:     Size  Location     Type
 14891 ;;		None
 14892 ;; Return value:  Size  Location     Type
 14893 ;;                  1    wreg      void 
 14894 ;; Registers used:
 14895 ;;		wreg, status,2
 14896 ;; Tracked objects:
 14897 ;;		On entry : 0/0
 14898 ;;		On exit  : 0/0
 14899 ;;		Unchanged: 0/0
 14900 ;; Data sizes:     COMRAM   BANK0   BANK1   BANK2   BANK3   BANK4   BANK5   BANK6   BANK7   BANK8   BANK9  BANK10  BANK1
      +1  BANK12  BANK13  BANK14  BANK15
 14901 ;;      Params:         0       0       0       0       0       0       0       0       0       0       0       0       
      +0       0       0       0       0
 14902 ;;      Locals:         0       0       0       0       0       0       0       0       0       0       0       0       
      +0       0       0       0       0
 14903 ;;      Temps:          0       0       0       0       0       0       0       0       0       0       0       0       
      +0       0       0       0       0
 14904 ;;      Totals:         0       0       0       0       0       0       0       0       0       0       0       0       
      +0       0       0       0       0
 14905 ;;Total ram usage:        0 bytes
 14906 ;; Hardware stack levels used:    1
 14907 ;; Hardware stack levels required when called:    1
 14908 ;; This function calls:
 14909 ;;		Nothing
 14910 ;; This function is called by:
 14911 ;;		_main
 14912 ;; This function uses a non-reentrant model
 14913 ;;
 14914                           
 14915                           	psect	text22
 14916  007022                     __ptext22:
 14917                           	opt callstack 0
 14918  007022                     _TIMER1_Initialize:
 14919                           	opt callstack 29
 14920  007022                     
 14921                           ;main.c: 80:     BAUDCON1bits.BRG16 = 0;
 14922  007022  90CD               	bcf	205,0,c	;volatile
 14923  007024                     
 14924                           ;main.c: 81:     TXSTA1bits.BRGH = 0;
 14925  007024  0E3F               	movlw	-193
 14926  007026  16CD               	andwf	205,f,c	;volatile
 14927  007028                     
 14928                           ;main.c: 82: 
 14929  007028  82CD               	bsf	205,1,c	;volatile
 14930                           
 14931                           ;main.c: 83:     SPBRG1 = 51;
 14932  00702A  0E30               	movlw	48
 14933  00702C  12CD               	iorwf	205,f,c	;volatile
 14934                           
 14935                           ;main.c: 84:     SPBRGH1 = 0;
 14936  00702E  0E00               	movlw	0
 14937  007030  6ECF               	movwf	207,c	;volatile
 14938  007032  0E00               	movlw	0
 14939  007034  6ECE               	movwf	206,c	;volatile
 14940  007036                     
 14941                           ;main.c: 85: }
 14942  007036  909E               	bcf	158,0,c	;volatile
 14943  007038                     
 14944                           ;main.c: 86: 
 14945  007038  809D               	bsf	157,0,c	;volatile
 14946  00703A  0012               	return		;funcret
 14947  00703C                     __end_of_TIMER1_Initialize:
 14948                           	opt callstack 0
 14949                           
 14950 ;; *************** function _OSCILLATOR_Initialize *****************
 14951 ;; Defined at:
 14952 ;;		line 69 in file "main.c"
 14953 ;; Parameters:    Size  Location     Type
 14954 ;;		None
 14955 ;; Auto vars:     Size  Location     Type
 14956 ;;		None
 14957 ;; Return value:  Size  Location     Type
 14958 ;;                  1    wreg      void 
 14959 ;; Registers used:
 14960 ;;		wreg, status,2
 14961 ;; Tracked objects:
 14962 ;;		On entry : 0/0
 14963 ;;		On exit  : 0/0
 14964 ;;		Unchanged: 0/0
 14965 ;; Data sizes:     COMRAM   BANK0   BANK1   BANK2   BANK3   BANK4   BANK5   BANK6   BANK7   BANK8   BANK9  BANK10  BANK1
      +1  BANK12  BANK13  BANK14  BANK15
 14966 ;;      Params:         0       0       0       0       0       0       0       0       0       0       0       0       
      +0       0       0       0       0
 14967 ;;      Locals:         0       0       0       0       0       0       0       0       0       0       0       0       
      +0       0       0       0       0
 14968 ;;      Temps:          0       0       0       0       0       0       0       0       0       0       0       0       
      +0       0       0       0       0
 14969 ;;      Totals:         0       0       0       0       0       0       0       0       0       0       0       0       
      +0       0       0       0       0
 14970 ;;Total ram usage:        0 bytes
 14971 ;; Hardware stack levels used:    1
 14972 ;; Hardware stack levels required when called:    1
 14973 ;; This function calls:
 14974 ;;		Nothing
 14975 ;; This function is called by:
 14976 ;;		_main
 14977 ;; This function uses a non-reentrant model
 14978 ;;
 14979                           
 14980                           	psect	text23
 14981  00703C                     __ptext23:
 14982                           	opt callstack 0
 14983  00703C                     _OSCILLATOR_Initialize:
 14984                           	opt callstack 29
 14985  00703C                     
 14986                           ;main.c: 71: 
 14987  00703C  0EFC               	movlw	-4
 14988  00703E  16D3               	andwf	211,f,c	;volatile
 14989                           
 14990                           ;main.c: 72:     TXSTA1bits.SYNC = 0;
 14991  007040  0E70               	movlw	112
 14992  007042  12D3               	iorwf	211,f,c	;volatile
 14993  007044                     
 14994                           ;main.c: 73:     TXSTA1bits.TX9 = 0;
 14995  007044  8C9B               	bsf	155,6,c	;volatile
 14996  007046                     l80:
 14997  007046  A4D3               	btfss	211,2,c	;volatile
 14998  007048  EF28  F038         	goto	u3201
 14999  00704C  EF2A  F038         	goto	u3200
 15000  007050                     u3201:
 15001  007050  EF23  F038         	goto	l80
 15002  007054                     u3200:
 15003  007054  0012               	return		;funcret
 15004  007056                     __end_of_OSCILLATOR_Initialize:
 15005                           	opt callstack 0
 15006                           
 15007 ;; *************** function _ISR *****************
 15008 ;; Defined at:
 15009 ;;		line 174 in file "main.c"
 15010 ;; Parameters:    Size  Location     Type
 15011 ;;		None
 15012 ;; Auto vars:     Size  Location     Type
 15013 ;;		None
 15014 ;; Return value:  Size  Location     Type
 15015 ;;                  1    wreg      void 
 15016 ;; Registers used:
 15017 ;;		wreg, status,2, status,0
 15018 ;; Tracked objects:
 15019 ;;		On entry : 0/0
 15020 ;;		On exit  : 0/0
 15021 ;;		Unchanged: 0/0
 15022 ;; Data sizes:     COMRAM   BANK0   BANK1   BANK2   BANK3   BANK4   BANK5   BANK6   BANK7   BANK8   BANK9  BANK10  BANK1
      +1  BANK12  BANK13  BANK14  BANK15
 15023 ;;      Params:         0       0       0       0       0       0       0       0       0       0       0       0       
      +0       0       0       0       0
 15024 ;;      Locals:         0       0       0       0       0       0       0       0       0       0       0       0       
      +0       0       0       0       0
 15025 ;;      Temps:          1       0       0       0       0       0       0       0       0       0       0       0       
      +0       0       0       0       0
 15026 ;;      Totals:         1       0       0       0       0       0       0       0       0       0       0       0       
      +0       0       0       0       0
 15027 ;;Total ram usage:        1 bytes
 15028 ;; Hardware stack levels used:    1
 15029 ;; This function calls:
 15030 ;;		Nothing
 15031 ;; This function is called by:
 15032 ;;		Interrupt level 2
 15033 ;; This function uses a non-reentrant model
 15034 ;;
 15035                           
 15036                           	psect	intcode
 15037  000008                     __pintcode:
 15038                           	opt callstack 0
 15039  000008                     _ISR:
 15040                           	opt callstack 25
 15041                           
 15042                           ;incstack = 0
 15043  000008  8247               	bsf	int$flags,1,c	;set compiler interrupt flag (level 2)
 15044  00000A                     
 15045                           ;main.c: 175:  sleep(109);
 15046  00000A  A09E               	btfss	158,0,c	;volatile
 15047  00000C  EF0A  F000         	goto	i2u112_41
 15048  000010  EF0C  F000         	goto	i2u112_40
 15049  000014                     i2u112_41:
 15050  000014  EF22  F000         	goto	i2l1662
 15051  000018                     i2u112_40:
 15052  000018                     
 15053                           ;main.c: 176:  Beep(73, 106);
 15054  000018  C043  FFCE         	movff	_offset,4046	;volatile
 15055  00001C  C044  FFCF         	movff	_offset+1,4047	;volatile
 15056  000020                     
 15057                           ;main.c: 177:  sleep(110);
 15058  000020  2A46               	incf	_cnt^0,f,c
 15059  000022                     
 15060                           ;main.c: 178:  Beep(92, 213);
 15061  000022  B089               	btfsc	137,0,c	;volatile
 15062  000024  EF16  F000         	goto	i2u113_41
 15063  000028  EF19  F000         	goto	i2u113_40
 15064  00002C                     i2u113_41:
 15065  00002C  0E01               	movlw	1
 15066  00002E  EF1A  F000         	goto	i2u113_46
 15067  000032                     i2u113_40:
 15068  000032  0E00               	movlw	0
 15069  000034                     i2u113_46:
 15070  000034  0AFF               	xorlw	255
 15071  000036  6E01               	movwf	??_ISR^0,c
 15072  000038  5089               	movf	137,w,c	;volatile
 15073  00003A  1801               	xorwf	??_ISR^0,w,c
 15074  00003C  0BFE               	andlw	-2
 15075  00003E  1801               	xorwf	??_ISR^0,w,c
 15076  000040  6E89               	movwf	137,c	;volatile
 15077  000042                     
 15078                           ;main.c: 179:  sleep(220);
 15079  000042  909E               	bcf	158,0,c	;volatile
 15080  000044                     i2l1662:
 15081                           
 15082                           ;main.c: 181:  sleep(109);
 15083  000044  0E8C               	movlw	140
 15084  000046  1846               	xorwf	_cnt^0,w,c
 15085  000048  A4D8               	btfss	status,2,c
 15086  00004A  EF29  F000         	goto	i2u114_41
 15087  00004E  EF2B  F000         	goto	i2u114_40
 15088  000052                     i2u114_41:
 15089  000052  EF46  F000         	goto	i2l135
 15090  000056                     i2u114_40:
 15091  000056  0445               	decf	_on^0,w,c
 15092  000058  A4D8               	btfss	status,2,c
 15093  00005A  EF31  F000         	goto	i2u115_41
 15094  00005E  EF33  F000         	goto	i2u115_40
 15095  000062                     i2u115_41:
 15096  000062  EF46  F000         	goto	i2l135
 15097  000066                     i2u115_40:
 15098  000066                     
 15099                           ;main.c: 182:  Beep(69, 106);
 15100  000066  0E00               	movlw	0
 15101  000068  6E46               	movwf	_cnt^0,c
 15102  00006A                     
 15103                           ;main.c: 183:  sleep(110);
 15104  00006A  B289               	btfsc	137,1,c	;volatile
 15105  00006C  EF3A  F000         	goto	i2u116_41
 15106  000070  EF3D  F000         	goto	i2u116_40
 15107  000074                     i2u116_41:
 15108  000074  0E01               	movlw	1
 15109  000076  EF3E  F000         	goto	i2u116_46
 15110  00007A                     i2u116_40:
 15111  00007A  0E00               	movlw	0
 15112  00007C                     i2u116_46:
 15113  00007C  0AFF               	xorlw	255
 15114  00007E  6E01               	movwf	??_ISR^0,c
 15115  000080  4601               	rlncf	??_ISR^0,f,c
 15116  000082  5089               	movf	137,w,c	;volatile
 15117  000084  1801               	xorwf	??_ISR^0,w,c
 15118  000086  0BFD               	andlw	-3
 15119  000088  1801               	xorwf	??_ISR^0,w,c
 15120  00008A  6E89               	movwf	137,c	;volatile
 15121  00008C                     i2l135:
 15122  00008C  9247               	bcf	int$flags,1,c	;clear compiler interrupt flag (level 2)
 15123  00008E  0011               	retfie		f
 15124  000090                     __end_of_ISR:
 15125                           	opt callstack 0
 15126                           
 15127                           	psect	rparam
 15128  0000                     
 15129                           	psect	temp
 15130  000047                     btemp:
 15131                           	opt callstack 0
 15132  000047                     	ds	1
 15133  0000                     int$flags	set	btemp
 15134  0000                     wtemp8	set	btemp+1
 15135  0000                     ttemp5	set	btemp+1
 15136  0000                     ttemp6	set	btemp+4
 15137  0000                     ttemp7	set	btemp+8
 15138                           tosu	equ	0xFFF
 15139                           tosh	equ	0xFFE
 15140                           tosl	equ	0xFFD
 15141                           stkptr	equ	0xFFC
 15142                           pclatu	equ	0xFFB
 15143                           pclath	equ	0xFFA
 15144                           pcl	equ	0xFF9
 15145                           tblptru	equ	0xFF8
 15146                           tblptrh	equ	0xFF7
 15147                           tblptrl	equ	0xFF6
 15148                           tablat	equ	0xFF5
 15149                           prodh	equ	0xFF4
 15150                           prodl	equ	0xFF3
 15151                           indf0	equ	0xFEF
 15152                           postinc0	equ	0xFEE
 15153                           postdec0	equ	0xFED
 15154                           preinc0	equ	0xFEC
 15155                           plusw0	equ	0xFEB
 15156                           fsr0h	equ	0xFEA
 15157                           fsr0l	equ	0xFE9
 15158                           wreg	equ	0xFE8
 15159                           indf1	equ	0xFE7
 15160                           postinc1	equ	0xFE6
 15161                           postdec1	equ	0xFE5
 15162                           preinc1	equ	0xFE4
 15163                           plusw1	equ	0xFE3
 15164                           fsr1h	equ	0xFE2
 15165                           fsr1l	equ	0xFE1
 15166                           bsr	equ	0xFE0
 15167                           indf2	equ	0xFDF
 15168                           postinc2	equ	0xFDE
 15169                           postdec2	equ	0xFDD
 15170                           preinc2	equ	0xFDC
 15171                           plusw2	equ	0xFDB
 15172                           fsr2h	equ	0xFDA
 15173                           fsr2l	equ	0xFD9
 15174                           status	equ	0xFD8


Data Sizes:
    Strings     90
    Constant    0
    Data        0
    BSS         44
    Persistent  0
    Stack       0

Auto Spaces:
    Space          Size  Autos    Used
    COMRAM           94     66      70
    BANK0           160     24      64
    BANK1           256      0       0
    BANK2           256      0       0
    BANK3           256      0       0
    BANK4           256      0       0
    BANK5           256      0       0
    BANK6           256      0       0
    BANK7           256      0       0
    BANK8           256      0       0
    BANK9           256      0       0
    BANK10          256      0       0
    BANK11          256      0       0
    BANK12          256      0       0
    BANK13          256      0       0
    BANK14          256      0       0
    BANK15           56      0       0

Pointer List with Targets:

    vfpfcnvrt@ap	PTR PTR void  size(2) Largest target is 2
		 -> printf@ap(COMRAM[2]), 

    printf@fmt	PTR const unsigned char  size(2) Largest target is 48
		 -> STR_3(CODE[32]), STR_2(CODE[48]), STR_1(CODE[10]), 

    printf@ap	PTR void [1] size(2) Largest target is 2
		 -> ?_printf(COMRAM[2]), 

    S1291_IO_FILE$buffer	PTR unsigned char  size(2) Largest target is 0

    fputc@fp.buffer	PTR unsigned char  size(2) Largest target is 0

    fputc@fp	PTR struct _IO_FILE size(2) Largest target is 0
		 -> NULL(NULL[0]), 

    atoi@s	PTR const unsigned char  size(2) Largest target is 20
		 -> main@str(BANK0[20]), 

    vfprintf@ap	PTR PTR void  size(2) Largest target is 2
		 -> printf@ap(COMRAM[2]), 

    vfprintf@fp	PTR struct _IO_FILE size(2) Largest target is 0
		 -> NULL(NULL[0]), 

    vfprintf@fmt	PTR const unsigned char  size(2) Largest target is 48
		 -> STR_3(CODE[32]), STR_2(CODE[48]), STR_1(CODE[10]), 

    vfprintf@cfmt	PTR unsigned char  size(2) Largest target is 48
		 -> STR_3(CODE[32]), STR_2(CODE[48]), STR_1(CODE[10]), 

    vfpfcnvrt@fp	PTR struct _IO_FILE size(2) Largest target is 0
		 -> NULL(NULL[0]), 

    vfpfcnvrt@fmt	PTR PTR unsigned char  size(2) Largest target is 2
		 -> vfprintf@cfmt(COMRAM[2]), 

    read_line@s	PTR unsigned char  size(2) Largest target is 20
		 -> main@str(BANK0[20]), 


Critical Paths under _main in COMRAM

    _main->_Beep
    _read_line->_putchar
    _putchar->_fputc
    _printf->_vfprintf
    _vfprintf->_vfpfcnvrt
    _vfpfcnvrt->_fputc
    _fputc->_putch
    _peer_gynt_mountain_king->_Beep
    _Beep->___fltol
    ___fltol->___flsub
    ___flsub->___fldiv
    ___fldiv->___xxtofl
    _atoi->_isspace

Critical Paths under _ISR in COMRAM

    None.

Critical Paths under _main in BANK0

    None.

Critical Paths under _ISR in BANK0

    None.

Critical Paths under _main in BANK1

    None.

Critical Paths under _ISR in BANK1

    None.

Critical Paths under _main in BANK2

    None.

Critical Paths under _ISR in BANK2

    None.

Critical Paths under _main in BANK3

    None.

Critical Paths under _ISR in BANK3

    None.

Critical Paths under _main in BANK4

    None.

Critical Paths under _ISR in BANK4

    None.

Critical Paths under _main in BANK5

    None.

Critical Paths under _ISR in BANK5

    None.

Critical Paths under _main in BANK6

    None.

Critical Paths under _ISR in BANK6

    None.

Critical Paths under _main in BANK7

    None.

Critical Paths under _ISR in BANK7

    None.

Critical Paths under _main in BANK8

    None.

Critical Paths under _ISR in BANK8

    None.

Critical Paths under _main in BANK9

    None.

Critical Paths under _ISR in BANK9

    None.

Critical Paths under _main in BANK10

    None.

Critical Paths under _ISR in BANK10

    None.

Critical Paths under _main in BANK11

    None.

Critical Paths under _ISR in BANK11

    None.

Critical Paths under _main in BANK12

    None.

Critical Paths under _ISR in BANK12

    None.

Critical Paths under _main in BANK13

    None.

Critical Paths under _ISR in BANK13

    None.

Critical Paths under _main in BANK14

    None.

Critical Paths under _ISR in BANK14

    None.

Critical Paths under _main in BANK15

    None.

Critical Paths under _ISR in BANK15

    None.

Call Graph Tables:

 ---------------------------------------------------------------------------------
 (Depth) Function   	        Calls       Base Space   Used Autos Params    Refs
 ---------------------------------------------------------------------------------
 (0) _main                                                25    25      0  352039
                                             65 COMRAM     1     1      0
                                              0 BANK0     24    24      0
                               _Beep
              _OSCILLATOR_Initialize
                  _TIMER1_Initialize
                    _UART_Initialize
                               _atoi
            _peer_gynt_mountain_king
                             _printf
                          _read_line
                              _sleep
 ---------------------------------------------------------------------------------
 (1) _read_line                                            8     4      4    2358
                                             13 COMRAM     8     4      4
                            _putchar
                          _read_char
 ---------------------------------------------------------------------------------
 (2) _read_char                                            0     0      0       0
 ---------------------------------------------------------------------------------
 (2) _putchar                                              2     0      2    1670
                                             11 COMRAM     2     0      2
                              _fputc
 ---------------------------------------------------------------------------------
 (1) _printf                                               6     4      2    2454
                                             25 COMRAM     6     4      2
                           _vfprintf
 ---------------------------------------------------------------------------------
 (2) _vfprintf                                             8     2      6    2109
                                             17 COMRAM     8     2      6
                          _vfpfcnvrt
 ---------------------------------------------------------------------------------
 (3) _vfpfcnvrt                                           40    34      6    1648
                                             11 COMRAM     6     0      6
                              _fputc
 ---------------------------------------------------------------------------------
 (3) _fputc                                                9     5      4    1099
                                              2 COMRAM     9     5      4
                              _putch
 ---------------------------------------------------------------------------------
 (4) _putch                                                1     1      0      31
                                              1 COMRAM     1     1      0
 ---------------------------------------------------------------------------------
 (1) _peer_gynt_mountain_king                              0     0      0  172804
                               _Beep
                              _sleep
 ---------------------------------------------------------------------------------
 (1) _sleep                                                5     3      2   54968
                                              1 COMRAM     5     3      2
 ---------------------------------------------------------------------------------
 (2) _Beep                                                 7     3      4  117836
                                             58 COMRAM     7     3      4
                            ___fldiv
                            ___flsub
                            ___fltol
                           ___xxtofl
 ---------------------------------------------------------------------------------
 (3) ___xxtofl                                            14    10      4     656
                                              1 COMRAM    14    10      4
 ---------------------------------------------------------------------------------
 (3) ___fltol                                             10     6      4     517
                                             48 COMRAM    10     6      4
                            ___fldiv (ARG)
                            ___flsub (ARG)
                           ___xxtofl (ARG)
 ---------------------------------------------------------------------------------
 (3) ___flsub                                              8     0      8    3647
                                             40 COMRAM     8     0      8
                            ___fladd
                            ___fldiv (ARG)
                           ___xxtofl (ARG)
 ---------------------------------------------------------------------------------
 (4) ___fladd                                             16     8      8    3262
                                              1 COMRAM    16     8      8
 ---------------------------------------------------------------------------------
 (3) ___fldiv                                             25    17      8    2183
                                             15 COMRAM    25    17      8
                           ___xxtofl (ARG)
 ---------------------------------------------------------------------------------
 (1) _atoi                                                15    13      2    1425
                                              8 COMRAM    15    13      2
                             ___wmul
                            _isdigit
                            _isspace
 ---------------------------------------------------------------------------------
 (2) _isspace                                              7     5      2     259
                                              1 COMRAM     7     5      2
 ---------------------------------------------------------------------------------
 (2) _isdigit                                              6     4      2     191
                                              1 COMRAM     6     4      2
 ---------------------------------------------------------------------------------
 (2) ___wmul                                               6     2      4     412
                                              1 COMRAM     6     2      4
 ---------------------------------------------------------------------------------
 (1) _UART_Initialize                                      0     0      0       0
 ---------------------------------------------------------------------------------
 (1) _TIMER1_Initialize                                    0     0      0       0
 ---------------------------------------------------------------------------------
 (1) _OSCILLATOR_Initialize                                0     0      0       0
 ---------------------------------------------------------------------------------
 Estimated maximum stack depth 4
 ---------------------------------------------------------------------------------
 (Depth) Function   	        Calls       Base Space   Used Autos Params    Refs
 ---------------------------------------------------------------------------------
 (6) _ISR                                                  1     1      0       0
                                              0 COMRAM     1     1      0
 ---------------------------------------------------------------------------------
 Estimated maximum stack depth 6
 ---------------------------------------------------------------------------------

 Call Graph Graphs:

 _main (ROOT)
   _Beep
     ___fldiv
       ___xxtofl (ARG)
     ___flsub
       ___fladd
       ___fldiv (ARG)
         ___xxtofl (ARG)
       ___xxtofl (ARG)
     ___fltol
       ___fldiv (ARG)
         ___xxtofl (ARG)
       ___flsub (ARG)
         ___fladd
         ___fldiv (ARG)
           ___xxtofl (ARG)
         ___xxtofl (ARG)
       ___xxtofl (ARG)
     ___xxtofl
   _OSCILLATOR_Initialize
   _TIMER1_Initialize
   _UART_Initialize
   _atoi
     ___wmul
     _isdigit
     _isspace
   _peer_gynt_mountain_king
     _Beep
       ___fldiv
         ___xxtofl (ARG)
       ___flsub
         ___fladd
         ___fldiv (ARG)
           ___xxtofl (ARG)
         ___xxtofl (ARG)
       ___fltol
         ___fldiv (ARG)
           ___xxtofl (ARG)
         ___flsub (ARG)
           ___fladd
           ___fldiv (ARG)
             ___xxtofl (ARG)
           ___xxtofl (ARG)
         ___xxtofl (ARG)
       ___xxtofl
     _sleep
   _printf
     _vfprintf
       _vfpfcnvrt
         _fputc
           _putch
   _read_line
     _putchar
       _fputc
         _putch
     _read_char
   _sleep

 _ISR (ROOT)

 Address spaces:
Name               Size   Autos  Total    Cost      Usage
BIGRAM             F37      0       0      37        0.0%
EEDATA             400      0       0       0        0.0%
BITBANK14          100      0       0      33        0.0%
BANK14             100      0       0      34        0.0%
BITBANK13          100      0       0      31        0.0%
BANK13             100      0       0      32        0.0%
BITBANK12          100      0       0      29        0.0%
BANK12             100      0       0      30        0.0%
BITBANK11          100      0       0      27        0.0%
BANK11             100      0       0      28        0.0%
BITBANK10          100      0       0      25        0.0%
BANK10             100      0       0      26        0.0%
BITBANK9           100      0       0      23        0.0%
BANK9              100      0       0      24        0.0%
BITBANK8           100      0       0      21        0.0%
BANK8              100      0       0      22        0.0%
BITBANK7           100      0       0      19        0.0%
BANK7              100      0       0      20        0.0%
BITBANK6           100      0       0      17        0.0%
BANK6              100      0       0      18        0.0%
BITBANK5           100      0       0      15        0.0%
BANK5              100      0       0      16        0.0%
BITBANK4           100      0       0      13        0.0%
BANK4              100      0       0      14        0.0%
BITBANK3           100      0       0      10        0.0%
BANK3              100      0       0      11        0.0%
BITBANK2           100      0       0       8        0.0%
BANK2              100      0       0       9        0.0%
BITBANK1           100      0       0       6        0.0%
BANK1              100      0       0       7        0.0%
BITBANK0            A0      0       0       4        0.0%
BANK0               A0     18      40       5       40.0%
BITCOMRAM           5E      0       0       0        0.0%
COMRAM              5E     42      46       1       74.5%
BITBANK15           38      0       0      35        0.0%
BANK15              38      0       0      36        0.0%
BITSFR_1             0      0       0     200        0.0%
SFR_1                0      0       0     200        0.0%
BITSFR               0      0       0     200        0.0%
SFR                  0      0       0     200        0.0%
STACK                0      0       0       2        0.0%
NULL                 0      0       0       0        0.0%
ABS                  0      0      86      12        0.0%
DATA                 0      0      86       3        0.0%
CODE                 0      0       0       0        0.0%


Microchip Technology PIC18 Macro Assembler V2.10 build 88905656 
Symbol Table                                                                                   Tue Sep 24 00:01:24 2019

                    ___fldiv@aexp 0028                      ___fldiv@bexp 0027  
                      __CFG_IESO$ 000000                      ___fldiv@sign 0020  
                              l80 7046                                l83 7054  
                              l92 706E                                l86 703A  
                              l95 7080                                l89 6FB2  
                              l98 6F7A                                l99 6F66  
                     __CFG_FCMEN$ 000000                                _on 0045  
             ___wmul@multiplicand 0004                               l102 6F8A  
                             l121 696E                               l113 6A74  
                             l122 6970                               l107 6A78  
                             l125 6F12                               l119 6958  
                             l128 6F28                               l138 5CCC  
                             l171 6D5A                               l180 6FFE  
                             l176 6E50                               l177 6E58  
                             l710 5E70                               l708 5EBC  
                             l725 5FD6                               l717 618C  
                             l709 5EAA                               l477 6B7E  
                             l734 60A6                               l750 6EF0  
                             l735 6094                               l762 6526  
                             l842 6616                               l835 657E  
                             l923 6FD8                               l764 6386  
                             l908 6DF6                               l773 63CC  
                             l838 66DA                               l775 6444  
                             l767 634A                               l776 6432  
                             l928 706A                               l849 6672  
                             l882 6864                               l885 6F60  
                             l893 6EAA                               l879 685C  
                     __CFG_WDTEN$ 000000                               _ISR 0008  
                             _cnt 0046                               wreg 000FE8  
                      _TXSTA1bits 000FAC                              ?_ISR 0001  
                    __CFG_PLLCFG$ 000000                      ___fltol@exp1 003A  
__size_of_peer_gynt_mountain_king 4C72                              l3000 6A34  
                            l3010 66F0                              l3002 6A52  
                            l3020 674A                              l3012 66F4  
                            l3004 6A5C                              l3030 6776  
                            l3014 66F8                              l3006 6A6C  
                            l3040 681C                              l3032 67A8  
                            l3024 6750                              l3016 6712  
                            l3008 66DC                              l3042 682E  
                            l3026 6766                              l3018 6746  
                            l2410 5CFA                              l2402 5CCE  
                            l3050 6B80                              l3044 6840  
                            l3036 67E0                              l3028 676E  
                            l2500 5EA8                              l2420 5D34  
                            l2412 5D0A                              l2404 5CDA  
                            l3060 6BA2                              l3052 6B8A  
                            l3118 6792                              l2510 5EFE  
                            l2502 5ECA                              l2430 5D62  
                            l2422 5D3A                              l2414 5D1A  
                            l2406 5CE8                              l3070 6BAE  
                            l3062 6BA4                              l3054 6B8E  
                            l2600 617C                              l2520 5F38  
                            l2512 5F0C                              l2504 5EDA  
                            l2440 5D96                              l2432 5D64  
                            l2424 5D4C                              l2416 5D1C  
                            l2408 5CEA                              l3080 6BCC  
                            l3072 6BB0                              l3064 6BA6  
                            l3056 6B92                              l2530 5FA4  
                            l2522 5F3A                              l2514 5F1A  
                            l2450 5DD2                              l2434 5D74  
                            l2442 5D9E                              l2426 5D4E  
                            l2418 5D24                              l2610 6CB4  
                            l3090 6C1A                              l3082 6BD0  
                            l3074 6BB2                              l3066 6BAA  
                            l3058 6B9E                              l2700 62FE  
                            l2540 5FFC                              l2532 5FA6  
                            l2524 5F44                              l2516 5F26  
                            l2508 5EEE                              l2460 5DE6  
                            l2452 5DD6                              l2444 5DAE  
                            l2436 5D84                              l2428 5D54  
                            l2612 6CB8                              l2604 6C70  
                            l3092 6C2E                              l3084 6BF2  
                            l3076 6BB4                              l3068 6BAC  
                            l2710 6348                              l2702 630E  
                            l2550 602A                              l2534 5FB6  
                            l2518 5F2A                              l2526 5F4A  
                            l2470 5DFA                              l2462 5DEA  
                            l2454 5DDA                              l2446 5DC0  
                            l2438 5D94                              l2382 706E  
                            l2390 6D80                              l2630 6D48  
                            l2614 6CDC                              l2622 6D0A  
                            l2606 6C94                              l3094 6C40  
                            l3086 6BFE                              l3078 6BC8  
                            l2720 6396                              l2712 6354  
                            l2704 6316                              l2640 61A8  
                            l2552 6038                              l2544 6010  
                            l2560 6056                              l2528 5F70  
                            l2536 5FC6                              l2472 5DFE  
                            l2464 5DEE                              l2456 5DDE  
                            l2448 5DCE                              l2480 5E0E  
                            l2384 707C                              l2392 6D8A  
                            l2624 6D18                              l2616 6CEA  
                            l2608 6CA2                              l3096 6C54  
                            l3088 6C0E                              l2722 63AC  
                            l2730 63DC                              l2714 6372  
                            l2706 6326                              l2650 61DC  
                            l2642 61AA                              l2554 6040  
                            l2546 601A                              l2538 5FEC  
                            l2562 6064                              l2490 5E7E  
                            l2482 5E12                              l2474 5E02  
                            l2466 5DF2                              l2458 5DE2  
                            l2802 6B0A                              l2394 6DA8  
                            l2386 6D5C                              l2618 6CFE  
                            l2732 63EA                              l2724 63B2  
                            l2716 6374                              l2708 633A  
                            l2660 620E                              l2644 61BA  
                            l2652 61E4                              l2636 618E  
                            l2572 60B6                              l2580 610C  
                            l2564 6068                              l2556 6044  
                            l2548 6028                              l2492 5E8A  
                            l2484 5E3C                              l2476 5E06  
                            l2468 5DF6                              l2820 6B6E  
                            l2812 6B32                              l2804 6B14  
                            l2396 6DDE                              l2388 6D6E  
                            l2628 6D24                              l2900 6DF8  
                            l2910 6FF6                              l2742 6454  
                            l2750 649C                              l2734 63EE  
                            l2726 63BC                              l2718 6384  
                            l2670 6242                              l2662 6210  
                            l2654 61F4                              l2646 61CA  
                            l2638 619A                              l2590 615E  
                            l2582 611C                              l2574 60C2  
                            l2566 6076                              l2558 6054  
                            l2494 5E8E                              l2486 5E58  
                            l2478 5E0A                              l2814 6B3E  
                            l2806 6B1E                              l2830 658E  
                            l2398 6DF0                              l2902 6E00  
                            l2920 6EA0                              l2760 6506  
                            l2752 64B6                              l2744 6460  
                            l2736 63FC                              l2728 63CA  
                            l2680 6288                              l2664 6220  
                            l2672 624A                              l2656 61FA  
                            l2648 61DA                              l2592 6164  
                            l2584 612C                              l2576 60D0  
                            l2568 608C                              l2496 5E9C  
                            l2488 5E68                              l2816 6B4E  
                            l2840 65CC                              l2832 65A4  
                            l2824 652A                              l2904 6E0E  
                            l2930 703C                              l2922 6EA4  
                            l2914 6E5A                              l2762 6514  
                            l2754 64CC                              l2746 646E  
                            l2738 642A                              l2690 62B0  
                            l2682 628C                              l2674 625A  
                            l2666 6230                              l2658 6200  
                            l2594 6166                              l2586 614C  
                            l2578 610A                              l2498 5E9E  
                            l2818 6B5E                              l2850 6654  
                            l2842 65FE                              l2826 653A  
                            l2906 6E34                              l2932 7044  
                            l2940 6F9A                              l2908 6FDA  
                            l2916 6E5E                              l2764 651A  
                            l2756 64E6                              l2748 6498  
                            l2676 6270                              l2668 6240  
                            l2596 616C                              l2588 6150  
                            l2780 6A7A                              l2860 66AA  
                            l2852 6662                              l2844 6600  
                            l2836 65B8                              l2828 6548  
                            l2950 6FA4                              l2942 6F9C  
                            l2934 6F8C                              l2926 6F2A  
                            l2918 6E72                              l2766 651C  
                            l2758 6502                              l2694 62C4  
                            l2678 6280                              l2686 62A0  
                            l2598 617A                              l2774 6EAC  
                            l2790 6AD0                              l2782 6A90  
                            l2862 66BA                              l2854 6680  
                            l2846 660C                              l2838 65C0  
                            l2870 6866                              l2952 6FA6  
                            l2944 6F9E                              l2936 6F96  
                            l2696 62DE                              l2688 62B0  
                            l2776 6EBC                              l2792 6AE0  
                            l2864 66C8                              l2856 6682  
                            l2848 6648                              l2880 6954  
                            l2872 692E                              l2970 7038  
                            l2962 7022                              l2954 6FA8  
                            l2946 6FA0                              l2938 6F98  
                            l2698 62EE                              l2794 6AE4  
                            l2786 6AA4                              l2866 66CA  
                            l2858 6686                              l2874 6936  
                            l2882 6EF2                              l2890 6F74  
                            l2964 7024                              l2948 6FA2  
                            l2796 6AF2                              l2788 6ACE  
                            l2876 6938                              l2884 6EFE  
                            l2972 105C                              l2956 6FB4  
                            l2892 6F88                              l2980 6992  
                            l2966 7028                              l2878 6944  
                            l2886 6F0E                              l2958 6FBC  
                            l2990 69CE                              l2982 69A8  
                            l2974 6972                              l2968 7036  
                            l2896 7056                              l2888 6F62  
                            l2992 69E0                              l2976 697A  
                            l2994 69FA                              l2978 6980  
                            l2996 6A1A                              l2988 69BC  
                            l2998 6A24                              STR_1 1051  
                            STR_2 1001                              STR_3 1031  
                            u3000 6B5E                              u3001 6B5A  
                            u3010 653A                              u3011 6536  
                            u2300 5CE8                              u3100 66C8  
                            u3020 6548                              u2301 5CE4  
                            u3101 66C4                              u3021 6544  
                            u2310 5CFA                              u3030 65A4  
                            u3110 696E                              u2311 5CF6  
                            u3031 65A0                              u3111 696A  
                            u3200 7054                              u2400 5E54  
                            u2320 5D0A                              u3040 65FA  
                            u3120 6F28                              u3201 7050  
                            u2401 5E4E                              u2321 5D06  
                            u3041 65F6                              u3121 6F24  
                            u2410 5E56                              u2330 5D4C  
                            u3050 6644                              u2250 707C  
                            u3130 6F74                              u3210 6992  
                            u2331 5D48                              u3051 6640  
                            u2251 7078                              u3131 6F70  
                            u3211 698E                              u3300 6816  
                            u2500 5F70                              u2420 5E7E  
                            u2340 5D62                              u3060 6662  
                            u2260 6D6E                              u3140 6F88  
                            u3220 69CE                              u3301 6810  
                            u2501 5F6C                              u2421 5E7A  
                            u2341 5D5E                              u3061 665E  
                            u2261 6D6A                              u3141 6F84  
                            u3221 69CA                              u3310 6818  
                            u2510 5FB6                              u2430 5E9C  
                            u2350 5D74                              u3070 6672  
                            u2270 6D80                              u3150 6E50  
                            u3230 69E0                              u2511 5FB2  
                            u2431 5E98                              u2351 5D70  
                            u3071 666E                              u2271 6D7C  
                            u3151 6E4C                              u3231 69DC  
                            u3160 6E72                              u3320 682E  
                            u2600 60A2                              u2520 5FEC  
                            u2440 5EBC                              u2360 5D84  
                            u3080 6680                              u2280 6DA8  
                            u3240 69FA                              u3161 6E6E  
                            u3321 682A                              u2601 609E  
                            u2521 5FE8                              u2441 5EB8  
                            u2361 5D80                              u3081 667C  
                            u2281 6DA4                              u3241 69F6  
                            u3170 6EA0                              u3330 6840  
                            u2610 60B6                              u2530 5FFC  
                            u2450 5ECA                              u2370 5DC0  
                            u3090 66BA                              u2290 6DDE  
                            u3250 6A34                              u3171 6E9C  
                            u3331 683C                              u2611 60B2  
                            u2531 5FF8                              u2451 5EC6  
                            u2371 5DBC                              u3091 66B6  
                            u2291 6DDA                              u3251 6A30  
                            u3180 6F5A                              u2620 60D0  
                            u2540 6028                              u2460 5EDA  
                            u2380 5DCE                              u2700 6CDC  
                            u3260 6A52                              u3340 6BE0  
                            u3181 6F54                              u2621 60CC  
                            u2541 6024                              u2461 5ED6  
                            u2381 5DCA                              u2701 6CD8  
                            u3261 6A4E                              u3341 6BDA  
                            u3190 6F5C                              u3270 6712  
                            u2710 61A8                              u2630 610A  
                            u2550 6038                              u2470 5F0C  
                            u2390 5E3C                              u3350 6C40  
                            u3271 670E                              u2711 61A4  
                            u2631 6106                              u2551 6034  
                            u2471 5F08                              u2391 5E38  
                            u3351 6C3C                              u3280 6746  
                            u2800 6348                              u2720 61BA  
                            u2640 611C                              u2560 6054  
                            u2480 5F1A                              u3281 6742  
                            u2801 6344                              u2721 61B6  
                            u2641 6118                              u2561 6050  
                            u2481 5F16                              u3290 6762  
                            u2810 6372                              u2730 61CA  
                            u2650 612C                              u2570 6064  
                            u2490 5F38                              u3346 6BE2  
                            u3291 675E                              u2811 636E  
                            u2731 61C6                              u2651 6128  
                            u2571 6060                              u2491 5F34  
                            u2900 646E                              u2820 6396  
                            u2740 620E                              u2660 614C  
                            u2580 6076                              u2901 646A  
                            u2821 6392                              u2741 620A  
                            u2661 6148                              u2581 6072  
                            u2910 64B6                              u2830 63AC  
                            u2750 6220                              u2670 615E  
                            u2590 608C                              u2911 64B2  
                            u2831 63A8                              u2751 621C  
                            u2671 615A                              u2591 6088  
                            u3367 6F04                              u2920 64E6  
                            u2840 63CA                              u2760 6230  
                            u2680 617A                              u2921 64E2  
                            u2841 63C6                              u2761 622C  
                            u2681 6176                              u3377 694A  
                            u2930 6514                              u2850 63EA  
                            u2770 6270                              u2690 6C94  
                            u2931 6510                              u2851 63E6  
                            u2771 626C                              u2691 6C90  
                            u2860 63FC                              u2780 62B0  
                            u2940 6A90                              u2861 63F8  
                            u2781 62AC                              u2941 6A8C  
                            u2870 642A                              u2790 6326  
                            u2950 6AC4                              u2871 6426  
                            u2791 6322                              u2880 6440  
                            u2960 6AF2                              u2881 643C  
                            u2961 6AEE                              u2890 6454  
                            u2970 6B06                              u2891 6450  
                            u2971 6B02                              u2955 6ABA  
                            u2980 6B2E                              u2981 6B2A  
                            u2990 6B4E                              u2991 6B4A  
                            _TMR1 000FCE                              _Beep 6866  
                    __CFG_PWRTEN$ 000000                              _dbuf 0060  
                            _atoi 66DC                              _main 6B80  
                            _prec 0084                              _nout 0080  
                            fsr1h 000FE2                              fsr2h 000FDA  
                            indf2 000FDF                              fsr1l 000FE1  
                            fsr2l 000FD9                              btemp 0047  
                   __CFG_BORV$190 000000                              prodh 000FF4  
                            prodl 000FF3                              start 0090  
                 ___fldiv@new_exp 0021                      ___param_bank 000000  
                           ??_ISR 0001                  ?_UART_Initialize 0001  
                           ?_Beep 003B                      _BAUDCON1bits 000FB8  
  __size_of_OSCILLATOR_Initialize 001A     __end_of_OSCILLATOR_Initialize 7056  
                   ___fltol@sign1 0039                             ?_atoi 0009  
                 __end_of___fladd 618E                             ?_main 0001  
                 __end_of___fldiv 6528                             Beep@i 0040  
                 __end_of___flsub 6EF2                   __end_of___fltol 6B80  
                           i2l135 008C                      vfpfcnvrt@fmt 000E  
                           _flags 0086                             _fputc 6D5C  
                 __end_of_isdigit 6F62                             _sleep 6EF2  
                           atoi@n 0016                             atoi@s 0009  
                           _width 0082                             _putch 706C  
                           main@f 009C                   __end_of_isspace 6EAC  
                           tablat 000FF5                             ttemp5 0048  
                           ttemp6 004B                             ttemp7 004F  
                 __end_of_putchar 706C                             status 000FD8  
                           wtemp8 0048                      __end_of_Beep 6972  
      __size_of_TIMER1_Initialize 001A                   __initialization 7000  
                    __end_of_atoi 6866                      __end_of_main 6C70  
                          ??_Beep 003F                            ??_atoi 000B  
                          ??_main 0042                     __activetblptr 000002  
                  __CFG_PRICLKEN$ 000001                            ?_fputc 0003  
                          ?_sleep 0002                            _ANSELA 000F38  
                          ?_putch 0001                            _ANSELC 000F3A  
                          i2l1660 0042                            i2l1652 000A  
                          i2l1654 0018                            i2l1662 0044  
                          i2l1664 0056                            i2l1656 0020  
                          i2l1666 0066                            i2l1658 0022  
                          i2l1668 006A                            _RCREG1 000FAE  
                          _SPBRG1 000FAF                            _TXREG1 000FAD  
                __end_of___xxtofl 66DC                      vfprintf@cfmt 0018  
                       ??___fladd 000A                            ___wmul 6FDA  
                       ??___fldiv 0018                         ??___flsub 0031  
                       ??___fltol 0035                            _offset 0043  
                          clear_0 7006                            _printf 6FB4  
                          main@ms 009E                            fputc@c 0003  
                       ??_isdigit 0004                      __mediumconst 0000  
                       ??_isspace 0004                            sleep@i 0005  
                          tblptrh 000FF7                            tblptrl 000FF6  
                          tblptru 000FF8                            putch@c 0002  
         _peer_gynt_mountain_king 105C                  __end_of_vfprintf 6E5A  
                       ??_putchar 000E                      ___xxtofl@arg 000C  
                    ___xxtofl@exp 000B                      ___xxtofl@val 0002  
                      __accesstop 0060           __end_of__initialization 7014  
                   ___rparam_used 000001                        ___fltol@f1 0031  
                    Beep@duration 003D                    __pcstackCOMRAM 0001  
                   __end_of_fputc 6DF8                     __end_of_sleep 6F2A  
                   __end_of_putch 7082                           ??_fputc 0007  
                         ??_sleep 0004                           ??_putch 0002  
                      __pbssBANK0 0060                __size_of_read_char 002A  
              __size_of_read_line 0108                           ?___wmul 0002  
                         ?_printf 001A         ??_peer_gynt_mountain_king 0042  
                       ?___xxtofl 0002                __size_of_vfpfcnvrt 00EC  
                         _SPBRGH1 000FB0                           __Hparam 0000  
                         __Lparam 0000                           ___fladd 5CCE  
                         ___fldiv 618E                           ___flsub 6EAC  
                         ___fltol 6A7A                   __size_of___wmul 0026  
                       ?_vfprintf 0012                      __psmallconst 1000  
                         __pcinit 7000                           __ramtop 1000  
                         __ptext0 6B80                           __ptext1 6972  
                         __ptext2 6F62                           __ptext3 7056  
                         __ptext4 6FB4                           __ptext5 6DF8  
                         __ptext6 6C70                           __ptext7 6D5C  
                         __ptext8 706C                           __ptext9 105C  
                 __size_of_printf 0026                      __size_of_ISR 0088  
                       _T1CONbits 000FCD             _OSCILLATOR_Initialize 703C  
                         _isdigit 6F2A                        ??___xxtofl 0006  
               __end_of_read_char 6F8C                 __end_of_read_line 6A7A  
        __size_of_UART_Initialize 0028                           _isspace 6E5A  
                         atoi@neg 000F                           _putchar 7056  
                         main@str 0088              end_of_initialization 7014  
                         fputc@fp 0005                     __Lmediumconst 0000  
 __end_of_peer_gynt_mountain_king 5CCE                           sleep@ms 0002  
               __end_of_vfpfcnvrt 6D5C                           postdec2 000FDD  
                         postinc0 000FEE                           postinc1 000FE6  
                         postinc2 000FDE                        ??_vfprintf 0018  
                     ___fladd@grs 0011                     ___xxtofl@sign 000A  
                       _TRISAbits 000F92                         _TRISCbits 000F94  
                     ___fldiv@grs 0023                       ___fldiv@rem 001C  
                   Beep@frequency 003B                       vfpfcnvrt@ap 0010  
                     vfpfcnvrt@fp 000C                    __end_of___wmul 7000  
          ?_OSCILLATOR_Initialize 0001                    __end_of_printf 6FDA  
             start_initialization 7000                       __end_of_ISR 0090  
               ??_UART_Initialize 0002                       vfprintf@fmt 0014  
                        ??___wmul 0006                  read_line@max_len 0010  
                        ??_printf 001C                        read_line@c 0015  
                      read_line@i 0013                        read_line@s 000E  
                       ___fladd@a 0006                         ___fladd@b 0002  
                       ___fldiv@a 0014                         ___fldiv@b 0010  
                     __pbssCOMRAM 0043                         ___flsub@a 002D  
                       ___flsub@b 0029                     __pcstackBANK0 0088  
               __size_of___xxtofl 01B4                         _atoi$1270 0015  
                       _atoi$1271 0013                         _atoi$1269 0011  
                       __pintcode 0008                          ?___fladd 0002  
                        ?___fldiv 0010                          ?___flsub 0029  
                        ?___fltol 0031                 __size_of_vfprintf 0062  
                     __smallconst 1000                          ?_isdigit 0002  
                        ?_isspace 0002                          ?_putchar 000C  
                       _read_char 6F62                    __size_of_fputc 009C  
                       _read_line 6972                    __size_of_sleep 0038  
                  __size_of_putch 0016                    ___wmul@product 0006  
                        _LATAbits 000F89                          _PIE1bits 000F9D  
                        i2u112_40 0018                          i2u112_41 0014  
                        i2u113_40 0032                          i2u113_41 002C  
                        i2u113_46 0034                          i2u114_40 0056  
                        i2u114_41 0052                          i2u115_40 0066  
                        i2u115_41 0062                          i2u116_40 007A  
                        i2u116_41 0074                          i2u116_46 007C  
                        _PIR1bits 000F9E                  __CFG_WDTPS$32768 000000  
                       _vfpfcnvrt 6C70          ?_peer_gynt_mountain_king 0001  
               ___wmul@multiplier 0002                      _isspace$1287 0008  
                      ?_read_char 0001                        ?_read_line 000E  
                        __Hrparam 0000                        vfprintf@ap 0016  
                        __Lrparam 0000                        vfprintf@fp 0012  
              __CFG_BOREN$SBORDIS 000000           ??_OSCILLATOR_Initialize 0002  
                __size_of___fladd 04C0                  __size_of___fldiv 039A  
                __size_of___flsub 0046                  __size_of___fltol 0106  
                      ?_vfpfcnvrt 000C                        _ANSELAbits 000F38  
                 _UART_Initialize 6F8C                          ___xxtofl 6528  
                __size_of_isdigit 0038                  __size_of_isspace 0052  
                        __ptext10 6EF2                          __ptext11 6866  
                        __ptext20 6FDA                          __ptext12 6528  
                        __ptext21 6F8C                          __ptext13 6A7A  
                        __ptext22 7022                          __ptext14 6EAC  
                        __ptext23 703C                          __ptext15 5CCE  
                        __ptext16 618E                          __ptext17 66DC  
                        __ptext18 6E5A                          __ptext19 6F2A  
                __size_of_putchar 0016                     __size_of_Beep 010C  
                   __size_of_atoi 018A                     __size_of_main 00F0  
                        int$flags 0047                          _vfprintf 6DF8  
                       printf@fmt 001A                       _OSCTUNEbits 000F9B  
                      _INTCONbits 000FF2                          isdigit@c 0002  
                     ??_read_char 0002                       ??_read_line 0012  
                        intlevel2 0000                          isspace@c 0002  
                      _RCSTA1bits 000FAB                        _OSCCONbits 000FD3  
                        printf@ap 001E                 _TIMER1_Initialize 7022  
         __end_of_UART_Initialize 6FB4                       ??_vfpfcnvrt 0012  
              ?_TIMER1_Initialize 0001                          putchar@c 000C  
             ??_TIMER1_Initialize 0002                     ___fladd@signs 000E  
                    ___fladd@aexp 000F                      ___fladd@bexp 0010  
               __CFG_FOSC$INTIO67 000000         __end_of_TIMER1_Initialize 703C  
